

Microchip MPLAB XC8 Assembler V2.32 build 20210201212658 
                                                                                               Wed Dec 22 04:37:54 2021

Microchip MPLAB XC8 C Compiler v2.32 (Free license) build 20210201212658 Og1 
     1                           	processor	16F887
     2                           	pagewidth 120
     3                           	opt	flic
     4                           	psect	idataBANK0,global,class=CODE,delta=2,noexec
     5                           	psect	strings,global,class=STRING,delta=2,noexec
     6                           	psect	cinit,global,class=CODE,merge=1,delta=2
     7                           	psect	bitbssBANK0,global,bit,class=BANK0,space=1,delta=1,noexec
     8                           	psect	dataBANK0,global,class=BANK0,space=1,delta=1,noexec
     9                           	psect	cstackCOMMON,global,class=COMMON,space=1,delta=1,noexec
    10                           	psect	cstackBANK0,global,class=BANK0,space=1,delta=1,noexec
    11                           	psect	maintext,global,class=CODE,split=1,delta=2
    12                           	psect	text1,local,class=CODE,merge=1,delta=2,group=1
    13                           	psect	text2,local,class=CODE,merge=1,delta=2,group=1
    14                           	psect	text3,local,class=CODE,merge=1,delta=2
    15                           	psect	text4,local,class=CODE,merge=1,delta=2
    16                           	psect	text5,local,class=CODE,merge=1,delta=2
    17                           	psect	text6,local,class=CODE,merge=1,delta=2
    18                           	psect	text7,local,class=CODE,merge=1,delta=2
    19                           	psect	text8,local,class=CODE,merge=1,delta=2
    20                           	psect	text9,local,class=CODE,merge=1,delta=2
    21                           	psect	text10,local,class=CODE,merge=1,delta=2,group=1
    22                           	psect	text11,local,class=CODE,merge=1,delta=2,group=1
    23                           	psect	text12,local,class=CODE,merge=1,delta=2,group=1
    24                           	psect	text13,local,class=CODE,merge=1,delta=2,group=1
    25                           	psect	config,global,abs,ovrld,class=CONFIG,space=4,delta=2,noexec
    26                           	dabs	1,0x7E,2
    27  0000                     
    28                           ; Version 2.20
    29                           ; Generated 12/02/2020 GMT
    30                           ; 
    31                           ; Copyright © 2020, Microchip Technology Inc. and its subsidiaries ("Microchip")
    32                           ; All rights reserved.
    33                           ; 
    34                           ; This software is developed by Microchip Technology Inc. and its subsidiaries ("Microch
      +                          ip").
    35                           ; 
    36                           ; Redistribution and use in source and binary forms, with or without modification, are
    37                           ; permitted provided that the following conditions are met:
    38                           ; 
    39                           ;     1. Redistributions of source code must retain the above copyright notice, this lis
      +                          t of
    40                           ;        conditions and the following disclaimer.
    41                           ; 
    42                           ;     2. Redistributions in binary form must reproduce the above copyright notice, this 
      +                          list
    43                           ;        of conditions and the following disclaimer in the documentation and/or other
    44                           ;        materials provided with the distribution.
    45                           ; 
    46                           ;     3. Microchip's name may not be used to endorse or promote products derived from th
      +                          is
    47                           ;        software without specific prior written permission.
    48                           ; 
    49                           ; THIS SOFTWARE IS PROVIDED BY MICROCHIP "AS IS" AND ANY EXPRESS OR IMPLIED WARRANTIES,
    50                           ; INCLUDING, BUT NOT LIMITED TO, THE IMPLIED WARRANTIES OF MERCHANTABILITY AND FITNESS F
      +                          OR
    51                           ; PURPOSE ARE DISCLAIMED.  IN NO EVENT SHALL MICROCHIP BE LIABLE FOR ANY DIRECT, INDIREC
      +                          T,
    52                           ; INCIDENTAL, SPECIAL, EXEMPLARY, OR CONSEQUENTIAL DAMAGES (INCLUDING BUT NOT LIMITED TO
    53                           ; PROCUREMENT OF SUBSTITUTE GOODS OR SERVICES; LOSS OF USE, DATA OR PROFITS; OR BUSINESS
    54                           ; INTERRUPTION) HOWSOEVER CAUSED AND ON ANY THEORY OF LIABILITY, WHETHER IN CONTRACT, ST
      +                          RICT
    55                           ; LIABILITY, OR TORT (INCLUDING NEGLIGENCE OR OTHERWISE) ARISING IN ANY WAY OUT OF THE U
      +                          SE OF
    56                           ; THIS SOFTWARE, EVEN IF ADVISED OF THE POSSIBILITY OF SUCH DAMAGE.
    57                           ; 
    58                           ; 
    59                           ; Code-generator required, PIC16F887 Definitions
    60                           ; 
    61                           ; SFR Addresses
    62  0000                     	;# 
    63  0001                     	;# 
    64  0002                     	;# 
    65  0003                     	;# 
    66  0004                     	;# 
    67  0005                     	;# 
    68  0006                     	;# 
    69  0007                     	;# 
    70  0008                     	;# 
    71  0009                     	;# 
    72  000A                     	;# 
    73  000B                     	;# 
    74  000C                     	;# 
    75  000D                     	;# 
    76  000E                     	;# 
    77  000E                     	;# 
    78  000F                     	;# 
    79  0010                     	;# 
    80  0011                     	;# 
    81  0012                     	;# 
    82  0013                     	;# 
    83  0014                     	;# 
    84  0015                     	;# 
    85  0015                     	;# 
    86  0016                     	;# 
    87  0017                     	;# 
    88  0018                     	;# 
    89  0019                     	;# 
    90  001A                     	;# 
    91  001B                     	;# 
    92  001B                     	;# 
    93  001C                     	;# 
    94  001D                     	;# 
    95  001E                     	;# 
    96  001F                     	;# 
    97  0081                     	;# 
    98  0085                     	;# 
    99  0086                     	;# 
   100  0087                     	;# 
   101  0088                     	;# 
   102  0089                     	;# 
   103  008C                     	;# 
   104  008D                     	;# 
   105  008E                     	;# 
   106  008F                     	;# 
   107  0090                     	;# 
   108  0091                     	;# 
   109  0092                     	;# 
   110  0093                     	;# 
   111  0093                     	;# 
   112  0093                     	;# 
   113  0094                     	;# 
   114  0095                     	;# 
   115  0096                     	;# 
   116  0097                     	;# 
   117  0098                     	;# 
   118  0099                     	;# 
   119  009A                     	;# 
   120  009B                     	;# 
   121  009C                     	;# 
   122  009D                     	;# 
   123  009E                     	;# 
   124  009F                     	;# 
   125  0105                     	;# 
   126  0107                     	;# 
   127  0108                     	;# 
   128  0109                     	;# 
   129  010C                     	;# 
   130  010C                     	;# 
   131  010D                     	;# 
   132  010E                     	;# 
   133  010F                     	;# 
   134  0185                     	;# 
   135  0187                     	;# 
   136  0188                     	;# 
   137  0189                     	;# 
   138  018C                     	;# 
   139  018D                     	;# 
   140  0000                     	;# 
   141  0001                     	;# 
   142  0002                     	;# 
   143  0003                     	;# 
   144  0004                     	;# 
   145  0005                     	;# 
   146  0006                     	;# 
   147  0007                     	;# 
   148  0008                     	;# 
   149  0009                     	;# 
   150  000A                     	;# 
   151  000B                     	;# 
   152  000C                     	;# 
   153  000D                     	;# 
   154  000E                     	;# 
   155  000E                     	;# 
   156  000F                     	;# 
   157  0010                     	;# 
   158  0011                     	;# 
   159  0012                     	;# 
   160  0013                     	;# 
   161  0014                     	;# 
   162  0015                     	;# 
   163  0015                     	;# 
   164  0016                     	;# 
   165  0017                     	;# 
   166  0018                     	;# 
   167  0019                     	;# 
   168  001A                     	;# 
   169  001B                     	;# 
   170  001B                     	;# 
   171  001C                     	;# 
   172  001D                     	;# 
   173  001E                     	;# 
   174  001F                     	;# 
   175  0081                     	;# 
   176  0085                     	;# 
   177  0086                     	;# 
   178  0087                     	;# 
   179  0088                     	;# 
   180  0089                     	;# 
   181  008C                     	;# 
   182  008D                     	;# 
   183  008E                     	;# 
   184  008F                     	;# 
   185  0090                     	;# 
   186  0091                     	;# 
   187  0092                     	;# 
   188  0093                     	;# 
   189  0093                     	;# 
   190  0093                     	;# 
   191  0094                     	;# 
   192  0095                     	;# 
   193  0096                     	;# 
   194  0097                     	;# 
   195  0098                     	;# 
   196  0099                     	;# 
   197  009A                     	;# 
   198  009B                     	;# 
   199  009C                     	;# 
   200  009D                     	;# 
   201  009E                     	;# 
   202  009F                     	;# 
   203  0105                     	;# 
   204  0107                     	;# 
   205  0108                     	;# 
   206  0109                     	;# 
   207  010C                     	;# 
   208  010C                     	;# 
   209  010D                     	;# 
   210  010E                     	;# 
   211  010F                     	;# 
   212  0185                     	;# 
   213  0187                     	;# 
   214  0188                     	;# 
   215  0189                     	;# 
   216  018C                     	;# 
   217  018D                     	;# 
   218                           
   219                           	psect	idataBANK0
   220  0D10                     __pidataBANK0:
   221                           
   222                           ;initializer for main@F1360
   223  0D10  3431               	retlw	49
   224  0D11  342E               	retlw	46
   225  0D12  3432               	retlw	50
   226  0D13  3433               	retlw	51
   227  0D14  3434               	retlw	52
   228  0D15  3400               	retlw	0
   229  001E                     _ADRESH	set	30
   230  001F                     _ADCON0bits	set	31
   231  0039                     _RC1	set	57
   232  0038                     _RC0	set	56
   233  00F8                     _ADON	set	248
   234  0043                     _RD3	set	67
   235  0047                     _RD7	set	71
   236  0046                     _RD6	set	70
   237  0045                     _RD5	set	69
   238  0044                     _RD4	set	68
   239  0042                     _RD2	set	66
   240  009E                     _ADRESL	set	158
   241  04FF                     _ADFM	set	1279
   242  04FC                     _VCFG0	set	1276
   243  04FD                     _VCFG1	set	1277
   244  0428                     _TRISA0	set	1064
   245  0447                     _TRISD7	set	1095
   246  0446                     _TRISD6	set	1094
   247  0445                     _TRISD5	set	1093
   248  0444                     _TRISD4	set	1092
   249  0443                     _TRISD3	set	1091
   250  0442                     _TRISD2	set	1090
   251  0847                     _C2ON	set	2119
   252  083F                     _C1ON	set	2111
   253  0189                     _ANSELH	set	393
   254  0188                     _ANSEL	set	392
   255                           
   256                           	psect	strings
   257  0800                     __pstrings:
   258  0800                     stringtab:
   259  0800                     __stringtab:
   260                           
   261                           ;	String table - string pointers are 1 byte each
   262  0800  1BFF               	btfsc	btemp+1,7
   263  0801  280A               	ljmp	stringcode
   264  0802  1383               	bcf	3,7
   265  0803  187F               	btfsc	btemp+1,0
   266  0804  1783               	bsf	3,7
   267  0805  0800               	movf	0,w
   268  0806  0A84               	incf	4,f
   269  0807  1903               	skipnz
   270  0808  0AFF               	incf	btemp+1,f
   271  0809  0008               	return
   272  080A                     stringcode:
   273  080A                     stringdir:
   274  080A  3008               	movlw	high stringdir
   275  080B  008A               	movwf	10
   276  080C  0804               	movf	4,w
   277  080D  0A84               	incf	4,f
   278  080E  0782               	addwf	2,f
   279  080F                     __stringbase:
   280  080F  3400               	retlw	0
   281  0810                     __end_of__stringtab:
   282  0810                     STR_2:
   283  0810  3456               	retlw	86	;'V'
   284  0811  346F               	retlw	111	;'o'
   285  0812  346C               	retlw	108	;'l'
   286  0813  3474               	retlw	116	;'t'
   287  0814  3420               	retlw	32	;' '
   288  0815  3420               	retlw	32	;' '
   289  0816  343A               	retlw	58	;':'
   290  0817  3420               	retlw	32	;' '
   291  0818  3400               	retlw	0
   292  0819                     STR_1:
   293  0819  3441               	retlw	65	;'A'
   294  081A  3444               	retlw	68	;'D'
   295  081B  3443               	retlw	67	;'C'
   296  081C  3420               	retlw	32	;' '
   297  081D  3469               	retlw	105	;'i'
   298  081E  346E               	retlw	110	;'n'
   299  081F  343A               	retlw	58	;':'
   300  0820  3420               	retlw	32	;' '
   301  0821  3400               	retlw	0
   302                           
   303                           	psect	cinit
   304  07D7                     start_initialization:	
   305                           ; #config settings
   306                           
   307  07D7                     __initialization:
   308                           
   309                           ; Initialize objects allocated to BANK0
   310  07D7  120A  158A  2510  120A  118A  	fcall	__pidataBANK0	;fetch initializer
   311  07DC  00E4               	movwf	__pdataBANK0& (0+127)
   312  07DD  120A  158A  2511  120A  118A  	fcall	__pidataBANK0+1	;fetch initializer
   313  07E2  00E5               	movwf	(__pdataBANK0+1)& (0+127)
   314  07E3  120A  158A  2512  120A  118A  	fcall	__pidataBANK0+2	;fetch initializer
   315  07E8  00E6               	movwf	(__pdataBANK0+2)& (0+127)
   316  07E9  120A  158A  2513  120A  118A  	fcall	__pidataBANK0+3	;fetch initializer
   317  07EE  00E7               	movwf	(__pdataBANK0+3)& (0+127)
   318  07EF  120A  158A  2514  120A  118A  	fcall	__pidataBANK0+4	;fetch initializer
   319  07F4  00E8               	movwf	(__pdataBANK0+4)& (0+127)
   320  07F5  120A  158A  2515  120A  118A  	fcall	__pidataBANK0+5	;fetch initializer
   321  07FA  00E9               	movwf	(__pdataBANK0+5)& (0+127)
   322                           
   323                           ; Clear objects allocated to BITBANK0
   324  07FB  01EA               	clrf	(__pbitbssBANK0/(0+8))& (0+127)
   325  07FC                     end_of_initialization:	
   326                           ;End of C runtime variable initialization code
   327                           
   328  07FC                     __end_of__initialization:
   329  07FC  0183               	clrf	3
   330  07FD  120A  118A  2965   	ljmp	_main	;jump to C main() function
   331                           
   332                           	psect	bitbssBANK0
   333  0350                     __pbitbssBANK0:
   334  0350                     _RS:
   335  0350                     	ds	1
   336                           
   337                           	psect	dataBANK0
   338  0064                     __pdataBANK0:
   339  0064                     main@F1360:
   340  0064                     	ds	6
   341                           
   342                           	psect	cstackCOMMON
   343  0070                     __pcstackCOMMON:
   344  0070                     ?_Lcd_Write_Nibble:
   345  0070                     ??_Lcd_Write_Nibble:	
   346                           ; 1 bytes @ 0x0
   347                           
   348  0070                     ?_Lcd_Cmd:	
   349                           ; 1 bytes @ 0x0
   350                           
   351  0070                     ?_Lcd_Init:	
   352                           ; 1 bytes @ 0x0
   353                           
   354  0070                     ?_main:	
   355                           ; 1 bytes @ 0x0
   356                           
   357  0070                     ?__Umul8_16:	
   358                           ; 1 bytes @ 0x0
   359                           
   360  0070                     ?___lwmod:	
   361                           ; 2 bytes @ 0x0
   362                           
   363  0070                     ?___xxtofl:	
   364                           ; 2 bytes @ 0x0
   365                           
   366  0070                     __Umul8_16@multiplicand:	
   367                           ; 4 bytes @ 0x0
   368                           
   369  0070                     ___lwmod@divisor:	
   370                           ; 1 bytes @ 0x0
   371                           
   372  0070                     ___xxtofl@val:	
   373                           ; 2 bytes @ 0x0
   374                           
   375                           
   376                           ; 4 bytes @ 0x0
   377  0070                     	ds	1
   378  0071                     Lcd_Write_Nibble@n:
   379                           
   380                           ; 1 bytes @ 0x1
   381  0071                     	ds	1
   382  0072                     ??__Umul8_16:
   383  0072                     ??_Lcd_Cmd:	
   384                           ; 1 bytes @ 0x2
   385                           
   386  0072                     ?_Lcd_Print:	
   387                           ; 1 bytes @ 0x2
   388                           
   389  0072                     Lcd_Print@Dt_Str:	
   390                           ; 1 bytes @ 0x2
   391                           
   392  0072                     ___lwmod@dividend:	
   393                           ; 2 bytes @ 0x2
   394                           
   395                           
   396                           ; 2 bytes @ 0x2
   397  0072                     	ds	2
   398  0074                     ??_Lcd_Print:
   399  0074                     ??___lwmod:	
   400                           ; 1 bytes @ 0x4
   401                           
   402  0074                     ??___xxtofl:	
   403                           ; 1 bytes @ 0x4
   404                           
   405  0074                     Lcd_Cmd@Command:	
   406                           ; 1 bytes @ 0x4
   407                           
   408  0074                     __Umul8_16@product:	
   409                           ; 1 bytes @ 0x4
   410                           
   411                           
   412                           ; 2 bytes @ 0x4
   413  0074                     	ds	1
   414  0075                     ?_Lcd_Goto:
   415  0075                     ??_Lcd_Init:	
   416                           ; 1 bytes @ 0x5
   417                           
   418  0075                     Lcd_Goto@row:	
   419                           ; 1 bytes @ 0x5
   420                           
   421  0075                     Lcd_Print@i:	
   422                           ; 1 bytes @ 0x5
   423                           
   424  0075                     ___lwmod@counter:	
   425                           ; 1 bytes @ 0x5
   426                           
   427                           
   428                           ; 1 bytes @ 0x5
   429  0075                     	ds	1
   430  0076                     ??_Lcd_Goto:
   431  0076                     __Umul8_16@word_mpld:	
   432                           ; 1 bytes @ 0x6
   433                           
   434                           
   435                           ; 2 bytes @ 0x6
   436  0076                     	ds	2
   437  0078                     Lcd_Goto@col:
   438  0078                     __Umul8_16@multiplier:	
   439                           ; 1 bytes @ 0x8
   440                           
   441  0078                     ___xxtofl@sign:	
   442                           ; 1 bytes @ 0x8
   443                           
   444                           
   445                           ; 1 bytes @ 0x8
   446  0078                     	ds	1
   447  0079                     ?_Lcd_Write:
   448  0079                     Lcd_Write@col:	
   449                           ; 1 bytes @ 0x9
   450                           
   451  0079                     ___xxtofl@exp:	
   452                           ; 1 bytes @ 0x9
   453                           
   454                           
   455                           ; 1 bytes @ 0x9
   456  0079                     	ds	1
   457  007A                     Lcd_Write@Dt_Str:
   458  007A                     ___xxtofl@arg:	
   459                           ; 2 bytes @ 0xA
   460                           
   461                           
   462                           ; 4 bytes @ 0xA
   463  007A                     	ds	2
   464  007C                     ??_Lcd_Write:
   465                           
   466                           ; 1 bytes @ 0xC
   467  007C                     	ds	1
   468  007D                     Lcd_Write@row:
   469                           
   470                           ; 1 bytes @ 0xD
   471  007D                     	ds	1
   472                           
   473                           	psect	cstackBANK0
   474  0020                     __pcstackBANK0:
   475  0020                     ?___fldiv:
   476  0020                     ?___flmul:	
   477                           ; 4 bytes @ 0x0
   478                           
   479  0020                     ___fldiv@a:	
   480                           ; 4 bytes @ 0x0
   481                           
   482  0020                     ___flmul@b:	
   483                           ; 4 bytes @ 0x0
   484                           
   485                           
   486                           ; 4 bytes @ 0x0
   487  0020                     	ds	4
   488  0024                     ___fldiv@b:
   489  0024                     ___flmul@a:	
   490                           ; 4 bytes @ 0x4
   491                           
   492                           
   493                           ; 4 bytes @ 0x4
   494  0024                     	ds	4
   495  0028                     ??___fldiv:
   496  0028                     ??___flmul:	
   497                           ; 1 bytes @ 0x8
   498                           
   499                           
   500                           ; 1 bytes @ 0x8
   501  0028                     	ds	5
   502  002D                     ___flmul@sign:
   503  002D                     ___fldiv@rem:	
   504                           ; 1 bytes @ 0xD
   505                           
   506                           
   507                           ; 4 bytes @ 0xD
   508  002D                     	ds	1
   509  002E                     ___flmul@grs:
   510                           
   511                           ; 4 bytes @ 0xE
   512  002E                     	ds	3
   513  0031                     ___fldiv@sign:
   514                           
   515                           ; 1 bytes @ 0x11
   516  0031                     	ds	1
   517  0032                     ___flmul@aexp:
   518  0032                     ___fldiv@new_exp:	
   519                           ; 1 bytes @ 0x12
   520                           
   521                           
   522                           ; 2 bytes @ 0x12
   523  0032                     	ds	1
   524  0033                     ___flmul@bexp:
   525                           
   526                           ; 1 bytes @ 0x13
   527  0033                     	ds	1
   528  0034                     ___fldiv@grs:
   529  0034                     ___flmul@prod:	
   530                           ; 4 bytes @ 0x14
   531                           
   532                           
   533                           ; 4 bytes @ 0x14
   534  0034                     	ds	4
   535  0038                     ___fldiv@bexp:
   536  0038                     ___flmul@temp:	
   537                           ; 1 bytes @ 0x18
   538                           
   539                           
   540                           ; 2 bytes @ 0x18
   541  0038                     	ds	1
   542  0039                     ___fldiv@aexp:
   543                           
   544                           ; 1 bytes @ 0x19
   545  0039                     	ds	1
   546  003A                     ?___fltol:
   547  003A                     ___fltol@f1:	
   548                           ; 4 bytes @ 0x1A
   549                           
   550                           
   551                           ; 4 bytes @ 0x1A
   552  003A                     	ds	4
   553  003E                     ??___fltol:
   554                           
   555                           ; 1 bytes @ 0x1E
   556  003E                     	ds	5
   557  0043                     ___fltol@sign1:
   558                           
   559                           ; 1 bytes @ 0x23
   560  0043                     	ds	1
   561  0044                     ___fltol@exp1:
   562                           
   563                           ; 1 bytes @ 0x24
   564  0044                     	ds	1
   565  0045                     ?_ItoStr:
   566  0045                     ItoStr@valor:	
   567                           ; 1 bytes @ 0x25
   568                           
   569                           
   570                           ; 2 bytes @ 0x25
   571  0045                     	ds	2
   572  0047                     ItoStr@tam:
   573                           
   574                           ; 1 bytes @ 0x27
   575  0047                     	ds	1
   576  0048                     ItoStr@str:
   577                           
   578                           ; 1 bytes @ 0x28
   579  0048                     	ds	1
   580  0049                     ItoStr@volt:
   581                           
   582                           ; 1 bytes @ 0x29
   583  0049                     	ds	1
   584  004A                     ItoStr@dot:
   585                           
   586                           ; 1 bytes @ 0x2A
   587  004A                     	ds	1
   588  004B                     ??_ItoStr:
   589                           
   590                           ; 1 bytes @ 0x2B
   591  004B                     	ds	2
   592  004D                     ItoStr@k:
   593                           
   594                           ; 2 bytes @ 0x2D
   595  004D                     	ds	2
   596  004F                     ItoStr@digito:
   597                           
   598                           ; 1 bytes @ 0x2F
   599  004F                     	ds	1
   600  0050                     ItoStr@termo:
   601                           
   602                           ; 2 bytes @ 0x30
   603  0050                     	ds	2
   604  0052                     ItoStr@pos:
   605                           
   606                           ; 1 bytes @ 0x32
   607  0052                     	ds	1
   608  0053                     ??_main:
   609                           
   610                           ; 1 bytes @ 0x33
   611  0053                     	ds	3
   612  0056                     main@tensao:
   613                           
   614                           ; 4 bytes @ 0x36
   615  0056                     	ds	4
   616  005A                     main@texto:
   617                           
   618                           ; 6 bytes @ 0x3A
   619  005A                     	ds	6
   620  0060                     _main$807:
   621                           
   622                           ; 2 bytes @ 0x40
   623  0060                     	ds	2
   624  0062                     main@num_adc:
   625                           
   626                           ; 2 bytes @ 0x42
   627  0062                     	ds	2
   628                           
   629                           	psect	maintext
   630  0165                     __pmaintext:	
   631 ;;
   632 ;;Main: autosize = 0, tempsize = 3, incstack = 0, save=0
   633 ;;
   634 ;; *************** function _main *****************
   635 ;; Defined at:
   636 ;;		line 76 in file "/media/user/software/simulide/tests/MCU/Test/16F88x/16F887_Vref/sources/testVref.c"
   637 ;; Parameters:    Size  Location     Type
   638 ;;		None
   639 ;; Auto vars:     Size  Location     Type
   640 ;;  texto           6   58[BANK0 ] unsigned char [6]
   641 ;;  tensao          4   54[BANK0 ] float 
   642 ;;  num_adc         2   66[BANK0 ] unsigned int 
   643 ;; Return value:  Size  Location     Type
   644 ;;                  1    wreg      void 
   645 ;; Registers used:
   646 ;;		wreg, fsr0l, fsr0h, status,2, status,0, btemp+1, pclath, cstack
   647 ;; Tracked objects:
   648 ;;		On entry : B00/0
   649 ;;		On exit  : 0/0
   650 ;;		Unchanged: 0/0
   651 ;; Data sizes:     COMMON   BANK0   BANK1   BANK3   BANK2
   652 ;;      Params:         0       0       0       0       0
   653 ;;      Locals:         0      14       0       0       0
   654 ;;      Temps:          0       3       0       0       0
   655 ;;      Totals:         0      17       0       0       0
   656 ;;Total ram usage:       17 bytes
   657 ;; Hardware stack levels required when called: 4
   658 ;; This function calls:
   659 ;;		_ItoStr
   660 ;;		_Lcd_Init
   661 ;;		_Lcd_Write
   662 ;;		___flmul
   663 ;;		___fltol
   664 ;;		___xxtofl
   665 ;; This function is called by:
   666 ;;		Startup code after reset
   667 ;; This function uses a non-reentrant model
   668 ;;
   669                           
   670                           
   671                           ;psect for function _main
   672  0165                     _main:
   673  0165                     l1882:	
   674                           ;incstack = 0
   675                           ; Regs used in _main: [wreg-fsr0h+status,2+status,0+btemp+1+pclath+cstack]
   676                           
   677                           
   678                           ;/media/user/software/simulide/tests/MCU/Test/16F88x/16F887_Vref/sources/testVref.c: 79:
      +                               unsigned int num_adc;;/media/user/software/simulide/tests/MCU/Test/16F88x/16F887_Vr
      +                          ef/sources/testVref.c: 80:     float tensao;;/media/user/software/simulide/tests/MCU/Tes
      +                          t/16F88x/16F887_Vref/sources/testVref.c: 81:     char texto[]="1.234";
   679  0165  305A               	movlw	main@texto& (0+255)
   680  0166  0084               	movwf	4
   681  0167  1283               	bcf	3,5	;RP0=0, select bank0
   682  0168  1303               	bcf	3,6	;RP1=0, select bank0
   683  0169  0864               	movf	main@F1360,w
   684  016A  1383               	bcf	3,7	;select IRP bank0
   685  016B  0080               	movwf	0
   686  016C  0A84               	incf	4,f
   687  016D  0865               	movf	main@F1360+1,w
   688  016E  0080               	movwf	0
   689  016F  0A84               	incf	4,f
   690  0170  0866               	movf	main@F1360+2,w
   691  0171  0080               	movwf	0
   692  0172  0A84               	incf	4,f
   693  0173  0867               	movf	main@F1360+3,w
   694  0174  0080               	movwf	0
   695  0175  0A84               	incf	4,f
   696  0176  0868               	movf	main@F1360+4,w
   697  0177  0080               	movwf	0
   698  0178  0A84               	incf	4,f
   699  0179  0869               	movf	main@F1360+5,w
   700  017A  0080               	movwf	0
   701  017B                     l1884:
   702                           
   703                           ;/media/user/software/simulide/tests/MCU/Test/16F88x/16F887_Vref/sources/testVref.c: 84:
      +                               ANSEL = 0x01;
   704  017B  3001               	movlw	1
   705  017C  1683               	bsf	3,5	;RP0=1, select bank3
   706  017D  1703               	bsf	3,6	;RP1=1, select bank3
   707  017E  0088               	movwf	8	;volatile
   708  017F                     l1886:
   709                           
   710                           ;/media/user/software/simulide/tests/MCU/Test/16F88x/16F887_Vref/sources/testVref.c: 85:
      +                               ANSELH = 0x00;
   711  017F  0189               	clrf	9	;volatile
   712  0180                     l1888:
   713                           
   714                           ;/media/user/software/simulide/tests/MCU/Test/16F88x/16F887_Vref/sources/testVref.c: 86:
      +                               C1ON = 0x00;
   715  0180  1283               	bcf	3,5	;RP0=0, select bank2
   716  0181  1703               	bsf	3,6	;RP1=1, select bank2
   717  0182  1387               	bcf	7,7	;volatile
   718  0183                     l1890:
   719                           
   720                           ;/media/user/software/simulide/tests/MCU/Test/16F88x/16F887_Vref/sources/testVref.c: 87:
      +                               C2ON = 0x00;
   721  0183  1388               	bcf	8,7	;volatile
   722  0184                     l1892:
   723                           
   724                           ;/media/user/software/simulide/tests/MCU/Test/16F88x/16F887_Vref/sources/testVref.c: 88:
      +                               TRISA0 = 0x01;
   725  0184  1683               	bsf	3,5	;RP0=1, select bank1
   726  0185  1303               	bcf	3,6	;RP1=0, select bank1
   727  0186  1405               	bsf	5,0	;volatile
   728  0187                     l1894:
   729                           
   730                           ;/media/user/software/simulide/tests/MCU/Test/16F88x/16F887_Vref/sources/testVref.c: 91:
      +                               ADCON0bits.ADCS = 0x02;
   731  0187  1283               	bcf	3,5	;RP0=0, select bank0
   732  0188  1303               	bcf	3,6	;RP1=0, select bank0
   733  0189  081F               	movf	31,w	;volatile
   734  018A  393F               	andlw	-193
   735  018B  3880               	iorlw	128
   736  018C  009F               	movwf	31	;volatile
   737  018D                     l1896:
   738                           
   739                           ;/media/user/software/simulide/tests/MCU/Test/16F88x/16F887_Vref/sources/testVref.c: 92:
      +                               ADCON0bits.CHS = 0x00;
   740  018D  30C3               	movlw	-61
   741  018E  059F               	andwf	31,f	;volatile
   742  018F                     l1898:
   743                           
   744                           ;/media/user/software/simulide/tests/MCU/Test/16F88x/16F887_Vref/sources/testVref.c: 94:
      +                               VCFG1 = 0;
   745  018F  1683               	bsf	3,5	;RP0=1, select bank1
   746  0190  1303               	bcf	3,6	;RP1=0, select bank1
   747  0191  129F               	bcf	31,5	;volatile
   748  0192                     l1900:
   749                           
   750                           ;/media/user/software/simulide/tests/MCU/Test/16F88x/16F887_Vref/sources/testVref.c: 95:
      +                               VCFG0 = 0;
   751  0192  121F               	bcf	31,4	;volatile
   752  0193                     l1902:
   753                           
   754                           ;/media/user/software/simulide/tests/MCU/Test/16F88x/16F887_Vref/sources/testVref.c: 96:
      +                               ADFM = 1;
   755  0193  179F               	bsf	31,7	;volatile
   756  0194                     l1904:
   757                           
   758                           ;/media/user/software/simulide/tests/MCU/Test/16F88x/16F887_Vref/sources/testVref.c: 97:
      +                               ADON = 1;
   759  0194  1283               	bcf	3,5	;RP0=0, select bank0
   760  0195  1303               	bcf	3,6	;RP1=0, select bank0
   761  0196  141F               	bsf	31,0	;volatile
   762  0197                     l1906:
   763                           
   764                           ;/media/user/software/simulide/tests/MCU/Test/16F88x/16F887_Vref/sources/testVref.c: 99:
      +                               Lcd_Init();
   765  0197  120A  158A  269F  120A  118A  	fcall	_Lcd_Init
   766  019C                     l1908:
   767                           
   768                           ;/media/user/software/simulide/tests/MCU/Test/16F88x/16F887_Vref/sources/testVref.c: 101
      +                          :     Lcd_Write(1,1,"ADC in: ");
   769  019C  01F9               	clrf	Lcd_Write@col
   770  019D  0AF9               	incf	Lcd_Write@col,f
   771  019E  300A               	movlw	(low ((STR_1-__stringbase)| (0+32768)))& (0+255)
   772  019F  00FA               	movwf	Lcd_Write@Dt_Str
   773  01A0  3080               	movlw	128
   774  01A1  00FB               	movwf	Lcd_Write@Dt_Str+1
   775  01A2  3001               	movlw	1
   776  01A3  120A  118A  2006  120A  118A  	fcall	_Lcd_Write
   777  01A8                     l1910:
   778                           
   779                           ;/media/user/software/simulide/tests/MCU/Test/16F88x/16F887_Vref/sources/testVref.c: 102
      +                          :     Lcd_Write(2,1,"Volt  : ");
   780  01A8  01F9               	clrf	Lcd_Write@col
   781  01A9  0AF9               	incf	Lcd_Write@col,f
   782  01AA  3001               	movlw	(low ((STR_2-__stringbase)| (0+32768)))& (0+255)
   783  01AB  00FA               	movwf	Lcd_Write@Dt_Str
   784  01AC  3080               	movlw	128
   785  01AD  00FB               	movwf	Lcd_Write@Dt_Str+1
   786  01AE  3002               	movlw	2
   787  01AF  120A  118A  2006  120A  118A  	fcall	_Lcd_Write
   788  01B4                     l1912:
   789                           
   790                           ;/media/user/software/simulide/tests/MCU/Test/16F88x/16F887_Vref/sources/testVref.c: 106
      +                          :         _delay((unsigned long)((1)*(20000000UL/4000.0)));
   791  01B4  3007               	movlw	7
   792  01B5  1283               	bcf	3,5	;RP0=0, select bank0
   793  01B6  1303               	bcf	3,6	;RP1=0, select bank0
   794  01B7  00D4               	movwf	??_main+1
   795  01B8  307C               	movlw	124
   796  01B9  00D3               	movwf	??_main
   797  01BA                     u2637:
   798  01BA  0BD3               	decfsz	??_main,f
   799  01BB  29BA               	goto	u2637
   800  01BC  0BD4               	decfsz	??_main+1,f
   801  01BD  29BA               	goto	u2637
   802  01BE  0000               	nop
   803  01BF                     l1914:
   804                           
   805                           ;/media/user/software/simulide/tests/MCU/Test/16F88x/16F887_Vref/sources/testVref.c: 107
      +                          :         ADCON0bits.GO = 1;
   806  01BF  1283               	bcf	3,5	;RP0=0, select bank0
   807  01C0  1303               	bcf	3,6	;RP1=0, select bank0
   808  01C1  149F               	bsf	31,1	;volatile
   809  01C2                     l114:	
   810                           ;/media/user/software/simulide/tests/MCU/Test/16F88x/16F887_Vref/sources/testVref.c: 108
      +                          :         while(ADCON0bits.GO_DONE);
   811                           
   812  01C2  189F               	btfsc	31,1	;volatile
   813  01C3  29C5               	goto	u2581
   814  01C4  29C6               	goto	u2580
   815  01C5                     u2581:
   816  01C5  29C2               	goto	l114
   817  01C6                     u2580:
   818  01C6                     l1916:
   819                           
   820                           ;/media/user/software/simulide/tests/MCU/Test/16F88x/16F887_Vref/sources/testVref.c: 109
      +                          :         num_adc = (unsigned int)((ADRESH << 8 ) | (ADRESL));
   821  01C6  081E               	movf	30,w	;volatile
   822  01C7  00E3               	movwf	main@num_adc+1
   823  01C8  1683               	bsf	3,5	;RP0=1, select bank1
   824  01C9  1303               	bcf	3,6	;RP1=0, select bank1
   825  01CA  081E               	movf	30,w	;volatile
   826  01CB  1283               	bcf	3,5	;RP0=0, select bank0
   827  01CC  1303               	bcf	3,6	;RP1=0, select bank0
   828  01CD  00E2               	movwf	main@num_adc
   829  01CE                     l1918:
   830                           
   831                           ;/media/user/software/simulide/tests/MCU/Test/16F88x/16F887_Vref/sources/testVref.c: 110
      +                          :         tensao = (float)(num_adc * 0.004887585533);
   832  01CE  303B               	movlw	59
   833  01CF  00A3               	movwf	___flmul@b+3
   834  01D0  30A0               	movlw	160
   835  01D1  00A2               	movwf	___flmul@b+2
   836  01D2  3028               	movlw	40
   837  01D3  00A1               	movwf	___flmul@b+1
   838  01D4  300A               	movlw	10
   839  01D5  00A0               	movwf	___flmul@b
   840  01D6  0862               	movf	main@num_adc,w
   841  01D7  00F0               	movwf	___xxtofl@val
   842  01D8  0863               	movf	main@num_adc+1,w
   843  01D9  00F1               	movwf	___xxtofl@val+1
   844  01DA  01F2               	clrf	___xxtofl@val+2
   845  01DB  01F3               	clrf	___xxtofl@val+3
   846  01DC  3000               	movlw	0
   847  01DD  120A  158A  2746  120A  118A  	fcall	___xxtofl
   848  01E2  0873               	movf	?___xxtofl+3,w
   849  01E3  1283               	bcf	3,5	;RP0=0, select bank0
   850  01E4  1303               	bcf	3,6	;RP1=0, select bank0
   851  01E5  00A7               	movwf	___flmul@a+3
   852  01E6  0872               	movf	?___xxtofl+2,w
   853  01E7  00A6               	movwf	___flmul@a+2
   854  01E8  0871               	movf	?___xxtofl+1,w
   855  01E9  00A5               	movwf	___flmul@a+1
   856  01EA  0870               	movf	?___xxtofl,w
   857  01EB  00A4               	movwf	___flmul@a
   858  01EC  120A  118A  2476  120A  118A  	fcall	___flmul
   859  01F1  1283               	bcf	3,5	;RP0=0, select bank0
   860  01F2  1303               	bcf	3,6	;RP1=0, select bank0
   861  01F3  0823               	movf	?___flmul+3,w
   862  01F4  00D9               	movwf	main@tensao+3
   863  01F5  0822               	movf	?___flmul+2,w
   864  01F6  00D8               	movwf	main@tensao+2
   865  01F7  0821               	movf	?___flmul+1,w
   866  01F8  00D7               	movwf	main@tensao+1
   867  01F9  0820               	movf	?___flmul,w
   868  01FA  00D6               	movwf	main@tensao
   869  01FB                     l1920:
   870                           
   871                           ;/media/user/software/simulide/tests/MCU/Test/16F88x/16F887_Vref/sources/testVref.c: 111
      +                          :         ItoStr((unsigned int)(num_adc),4,texto,0,0);
   872  01FB  0863               	movf	main@num_adc+1,w
   873  01FC  00C6               	movwf	ItoStr@valor+1
   874  01FD  0862               	movf	main@num_adc,w
   875  01FE  00C5               	movwf	ItoStr@valor
   876  01FF  3004               	movlw	4
   877  0200  00D3               	movwf	??_main
   878  0201  0853               	movf	??_main,w
   879  0202  00C7               	movwf	ItoStr@tam
   880  0203  305A               	movlw	(low (main@texto| 0))& (0+255)
   881  0204  00D4               	movwf	??_main+1
   882  0205  0854               	movf	??_main+1,w
   883  0206  00C8               	movwf	ItoStr@str
   884  0207  01C9               	clrf	ItoStr@volt
   885  0208  01CA               	clrf	ItoStr@dot
   886  0209  120A  118A  207B  120A  118A  	fcall	_ItoStr
   887  020E                     l1922:
   888                           
   889                           ;/media/user/software/simulide/tests/MCU/Test/16F88x/16F887_Vref/sources/testVref.c: 112
      +                          :         Lcd_Write(1,11, texto);
   890  020E  300B               	movlw	11
   891  020F  1283               	bcf	3,5	;RP0=0, select bank0
   892  0210  1303               	bcf	3,6	;RP1=0, select bank0
   893  0211  00D3               	movwf	??_main
   894  0212  0853               	movf	??_main,w
   895  0213  00F9               	movwf	Lcd_Write@col
   896  0214  305A               	movlw	(low (main@texto| 0))& (0+255)
   897  0215  00FA               	movwf	Lcd_Write@Dt_Str
   898  0216  3000               	movlw	0
   899  0217  00FB               	movwf	Lcd_Write@Dt_Str+1
   900  0218  3001               	movlw	1
   901  0219  120A  118A  2006  120A  118A  	fcall	_Lcd_Write
   902  021E                     l1924:
   903                           
   904                           ;/media/user/software/simulide/tests/MCU/Test/16F88x/16F887_Vref/sources/testVref.c: 113
      +                          :         ItoStr((unsigned int)(tensao * 10000),6,texto,1,1);
   905  021E  1283               	bcf	3,5	;RP0=0, select bank0
   906  021F  1303               	bcf	3,6	;RP1=0, select bank0
   907  0220  0859               	movf	main@tensao+3,w
   908  0221  00A7               	movwf	___flmul@a+3
   909  0222  0858               	movf	main@tensao+2,w
   910  0223  00A6               	movwf	___flmul@a+2
   911  0224  0857               	movf	main@tensao+1,w
   912  0225  00A5               	movwf	___flmul@a+1
   913  0226  0856               	movf	main@tensao,w
   914  0227  00A4               	movwf	___flmul@a
   915  0228  3046               	movlw	70
   916  0229  00A3               	movwf	___flmul@b+3
   917  022A  301C               	movlw	28
   918  022B  00A2               	movwf	___flmul@b+2
   919  022C  3040               	movlw	64
   920  022D  00A1               	movwf	___flmul@b+1
   921  022E  3000               	movlw	0
   922  022F  00A0               	movwf	___flmul@b
   923  0230  120A  118A  2476  120A  118A  	fcall	___flmul
   924  0235  1283               	bcf	3,5	;RP0=0, select bank0
   925  0236  1303               	bcf	3,6	;RP1=0, select bank0
   926  0237  0823               	movf	?___flmul+3,w
   927  0238  00BD               	movwf	___fltol@f1+3
   928  0239  0822               	movf	?___flmul+2,w
   929  023A  00BC               	movwf	___fltol@f1+2
   930  023B  0821               	movf	?___flmul+1,w
   931  023C  00BB               	movwf	___fltol@f1+1
   932  023D  0820               	movf	?___flmul,w
   933  023E  00BA               	movwf	___fltol@f1
   934  023F  120A  158A  2623  120A  118A  	fcall	___fltol
   935  0244  1283               	bcf	3,5	;RP0=0, select bank0
   936  0245  1303               	bcf	3,6	;RP1=0, select bank0
   937  0246  083B               	movf	?___fltol+1,w
   938  0247  00E1               	movwf	_main$807+1
   939  0248  083A               	movf	?___fltol,w
   940  0249  00E0               	movwf	_main$807
   941  024A                     l1926:
   942                           
   943                           ;/media/user/software/simulide/tests/MCU/Test/16F88x/16F887_Vref/sources/testVref.c: 113
      +                          :         ItoStr((unsigned int)(tensao * 10000),6,texto,1,1);
   944  024A  0861               	movf	_main$807+1,w
   945  024B  00C6               	movwf	ItoStr@valor+1
   946  024C  0860               	movf	_main$807,w
   947  024D  00C5               	movwf	ItoStr@valor
   948  024E  3006               	movlw	6
   949  024F  00D3               	movwf	??_main
   950  0250  0853               	movf	??_main,w
   951  0251  00C7               	movwf	ItoStr@tam
   952  0252  305A               	movlw	(low (main@texto| 0))& (0+255)
   953  0253  00D4               	movwf	??_main+1
   954  0254  0854               	movf	??_main+1,w
   955  0255  00C8               	movwf	ItoStr@str
   956  0256  01C9               	clrf	ItoStr@volt
   957  0257  0AC9               	incf	ItoStr@volt,f
   958  0258  01CA               	clrf	ItoStr@dot
   959  0259  0ACA               	incf	ItoStr@dot,f
   960  025A  120A  118A  207B  120A  118A  	fcall	_ItoStr
   961  025F                     l1928:
   962                           
   963                           ;/media/user/software/simulide/tests/MCU/Test/16F88x/16F887_Vref/sources/testVref.c: 114
      +                          :         Lcd_Write(2, 9, texto);
   964  025F  3009               	movlw	9
   965  0260  1283               	bcf	3,5	;RP0=0, select bank0
   966  0261  1303               	bcf	3,6	;RP1=0, select bank0
   967  0262  00D3               	movwf	??_main
   968  0263  0853               	movf	??_main,w
   969  0264  00F9               	movwf	Lcd_Write@col
   970  0265  305A               	movlw	(low (main@texto| 0))& (0+255)
   971  0266  00FA               	movwf	Lcd_Write@Dt_Str
   972  0267  3000               	movlw	0
   973  0268  00FB               	movwf	Lcd_Write@Dt_Str+1
   974  0269  3002               	movlw	2
   975  026A  120A  118A  2006  120A  118A  	fcall	_Lcd_Write
   976                           
   977                           ;/media/user/software/simulide/tests/MCU/Test/16F88x/16F887_Vref/sources/testVref.c: 115
      +                          :         _delay((unsigned long)((100)*(20000000UL/4000.0)));
   978  026F  3003               	movlw	3
   979  0270  1283               	bcf	3,5	;RP0=0, select bank0
   980  0271  1303               	bcf	3,6	;RP1=0, select bank0
   981  0272  00D5               	movwf	??_main+2
   982  0273  308A               	movlw	138
   983  0274  00D4               	movwf	??_main+1
   984  0275  3055               	movlw	85
   985  0276  00D3               	movwf	??_main
   986  0277                     u2647:
   987  0277  0BD3               	decfsz	??_main,f
   988  0278  2A77               	goto	u2647
   989  0279  0BD4               	decfsz	??_main+1,f
   990  027A  2A77               	goto	u2647
   991  027B  0BD5               	decfsz	??_main+2,f
   992  027C  2A77               	goto	u2647
   993  027D                     l1930:
   994                           
   995                           ;/media/user/software/simulide/tests/MCU/Test/16F88x/16F887_Vref/sources/testVref.c: 117
      +                          :         VCFG0 = RC0;
   996  027D  1283               	bcf	3,5	;RP0=0, select bank0
   997  027E  1303               	bcf	3,6	;RP1=0, select bank0
   998  027F  1807               	btfsc	7,0	;volatile
   999  0280  2A82               	goto	u2591
  1000  0281  2A86               	goto	u2590
  1001  0282                     u2591:
  1002  0282  1683               	bsf	3,5	;RP0=1, select bank1
  1003  0283  1303               	bcf	3,6	;RP1=0, select bank1
  1004  0284  161F               	bsf	31,4	;volatile
  1005  0285  2A89               	goto	u2604
  1006  0286                     u2590:
  1007  0286  1683               	bsf	3,5	;RP0=1, select bank1
  1008  0287  1303               	bcf	3,6	;RP1=0, select bank1
  1009  0288  121F               	bcf	31,4	;volatile
  1010  0289                     u2604:
  1011  0289                     l1932:
  1012                           
  1013                           ;/media/user/software/simulide/tests/MCU/Test/16F88x/16F887_Vref/sources/testVref.c: 118
      +                          :         VCFG1 = RC1;
  1014  0289  1283               	bcf	3,5	;RP0=0, select bank0
  1015  028A  1303               	bcf	3,6	;RP1=0, select bank0
  1016  028B  1887               	btfsc	7,1	;volatile
  1017  028C  2A8E               	goto	u2611
  1018  028D  2A92               	goto	u2610
  1019  028E                     u2611:
  1020  028E  1683               	bsf	3,5	;RP0=1, select bank1
  1021  028F  1303               	bcf	3,6	;RP1=0, select bank1
  1022  0290  169F               	bsf	31,5	;volatile
  1023  0291  2A95               	goto	u2624
  1024  0292                     u2610:
  1025  0292  1683               	bsf	3,5	;RP0=1, select bank1
  1026  0293  1303               	bcf	3,6	;RP1=0, select bank1
  1027  0294  129F               	bcf	31,5	;volatile
  1028  0295                     u2624:
  1029  0295  29B4               	goto	l1912
  1030  0296  120A  118A  2800   	ljmp	start
  1031  0299                     __end_of_main:
  1032                           
  1033                           	psect	text1
  1034  0476                     __ptext1:	
  1035 ;; *************** function ___flmul *****************
  1036 ;; Defined at:
  1037 ;;		line 8 in file "/opt/microchip/xc8/v2.32/pic/sources/c90/common/sprcmul.c"
  1038 ;; Parameters:    Size  Location     Type
  1039 ;;  b               4    0[BANK0 ] void 
  1040 ;;  a               4    4[BANK0 ] void 
  1041 ;; Auto vars:     Size  Location     Type
  1042 ;;  prod            4   20[BANK0 ] struct .
  1043 ;;  grs             4   14[BANK0 ] unsigned long 
  1044 ;;  temp            2   24[BANK0 ] struct .
  1045 ;;  bexp            1   19[BANK0 ] unsigned char 
  1046 ;;  aexp            1   18[BANK0 ] unsigned char 
  1047 ;;  sign            1   13[BANK0 ] unsigned char 
  1048 ;; Return value:  Size  Location     Type
  1049 ;;                  4    0[BANK0 ] unsigned char 
  1050 ;; Registers used:
  1051 ;;		wreg, status,2, status,0, btemp+1, pclath, cstack
  1052 ;; Tracked objects:
  1053 ;;		On entry : 0/0
  1054 ;;		On exit  : 0/0
  1055 ;;		Unchanged: 0/0
  1056 ;; Data sizes:     COMMON   BANK0   BANK1   BANK3   BANK2
  1057 ;;      Params:         0       8       0       0       0
  1058 ;;      Locals:         0      13       0       0       0
  1059 ;;      Temps:          0       5       0       0       0
  1060 ;;      Totals:         0      26       0       0       0
  1061 ;;Total ram usage:       26 bytes
  1062 ;; Hardware stack levels used: 1
  1063 ;; Hardware stack levels required when called: 1
  1064 ;; This function calls:
  1065 ;;		__Umul8_16
  1066 ;; This function is called by:
  1067 ;;		_main
  1068 ;; This function uses a non-reentrant model
  1069 ;;
  1070                           
  1071                           
  1072                           ;psect for function ___flmul
  1073  0476                     ___flmul:
  1074  0476                     l1722:	
  1075                           ;incstack = 0
  1076                           ; Regs used in ___flmul: [wreg+status,2+status,0+btemp+1+pclath+cstack]
  1077                           
  1078  0476  1283               	bcf	3,5	;RP0=0, select bank0
  1079  0477  1303               	bcf	3,6	;RP1=0, select bank0
  1080  0478  0823               	movf	___flmul@b+3,w
  1081  0479  3980               	andlw	128
  1082  047A  00A8               	movwf	??___flmul
  1083  047B  0828               	movf	??___flmul,w
  1084  047C  00AD               	movwf	___flmul@sign
  1085  047D                     l1724:
  1086  047D  0823               	movf	___flmul@b+3,w
  1087  047E  00A8               	movwf	??___flmul
  1088  047F  0728               	addwf	??___flmul,w
  1089  0480  00A9               	movwf	??___flmul+1
  1090  0481  0829               	movf	??___flmul+1,w
  1091  0482  00B3               	movwf	___flmul@bexp
  1092  0483                     l1726:
  1093  0483  1FA2               	btfss	___flmul@b+2,7
  1094  0484  2C86               	goto	u2191
  1095  0485  2C87               	goto	u2190
  1096  0486                     u2191:
  1097  0486  2C88               	goto	l1730
  1098  0487                     u2190:
  1099  0487                     l1728:
  1100  0487  1433               	bsf	___flmul@bexp,0
  1101  0488                     l1730:
  1102  0488  0833               	movf	___flmul@bexp,w
  1103  0489  1903               	btfsc	3,2
  1104  048A  2C8C               	goto	u2201
  1105  048B  2C8D               	goto	u2200
  1106  048C                     u2201:
  1107  048C  2C9C               	goto	l1738
  1108  048D                     u2200:
  1109  048D                     l1732:
  1110  048D  0A33               	incf	___flmul@bexp,w
  1111  048E  1D03               	btfss	3,2
  1112  048F  2C91               	goto	u2211
  1113  0490  2C92               	goto	u2210
  1114  0491                     u2211:
  1115  0491  2C9A               	goto	l1736
  1116  0492                     u2210:
  1117  0492                     l1734:
  1118  0492  3000               	movlw	0
  1119  0493  00A3               	movwf	___flmul@b+3
  1120  0494  3000               	movlw	0
  1121  0495  00A2               	movwf	___flmul@b+2
  1122  0496  3000               	movlw	0
  1123  0497  00A1               	movwf	___flmul@b+1
  1124  0498  3000               	movlw	0
  1125  0499  00A0               	movwf	___flmul@b
  1126  049A                     l1736:
  1127  049A  17A2               	bsf	___flmul@b+2,7
  1128  049B  2CA4               	goto	l1740
  1129  049C                     l1738:
  1130  049C  3000               	movlw	0
  1131  049D  00A3               	movwf	___flmul@b+3
  1132  049E  3000               	movlw	0
  1133  049F  00A2               	movwf	___flmul@b+2
  1134  04A0  3000               	movlw	0
  1135  04A1  00A1               	movwf	___flmul@b+1
  1136  04A2  3000               	movlw	0
  1137  04A3  00A0               	movwf	___flmul@b
  1138  04A4                     l1740:
  1139  04A4  0827               	movf	___flmul@a+3,w
  1140  04A5  3980               	andlw	128
  1141  04A6  00A8               	movwf	??___flmul
  1142  04A7  0828               	movf	??___flmul,w
  1143  04A8  06AD               	xorwf	___flmul@sign,f
  1144  04A9                     l1742:
  1145  04A9  0827               	movf	___flmul@a+3,w
  1146  04AA  00A8               	movwf	??___flmul
  1147  04AB  0728               	addwf	??___flmul,w
  1148  04AC  00A9               	movwf	??___flmul+1
  1149  04AD  0829               	movf	??___flmul+1,w
  1150  04AE  00B2               	movwf	___flmul@aexp
  1151  04AF                     l1744:
  1152  04AF  1FA6               	btfss	___flmul@a+2,7
  1153  04B0  2CB2               	goto	u2221
  1154  04B1  2CB3               	goto	u2220
  1155  04B2                     u2221:
  1156  04B2  2CB4               	goto	l1748
  1157  04B3                     u2220:
  1158  04B3                     l1746:
  1159  04B3  1432               	bsf	___flmul@aexp,0
  1160  04B4                     l1748:
  1161  04B4  0832               	movf	___flmul@aexp,w
  1162  04B5  1903               	btfsc	3,2
  1163  04B6  2CB8               	goto	u2231
  1164  04B7  2CB9               	goto	u2230
  1165  04B8                     u2231:
  1166  04B8  2CC8               	goto	l1756
  1167  04B9                     u2230:
  1168  04B9                     l1750:
  1169  04B9  0A32               	incf	___flmul@aexp,w
  1170  04BA  1D03               	btfss	3,2
  1171  04BB  2CBD               	goto	u2241
  1172  04BC  2CBE               	goto	u2240
  1173  04BD                     u2241:
  1174  04BD  2CC6               	goto	l1754
  1175  04BE                     u2240:
  1176  04BE                     l1752:
  1177  04BE  3000               	movlw	0
  1178  04BF  00A7               	movwf	___flmul@a+3
  1179  04C0  3000               	movlw	0
  1180  04C1  00A6               	movwf	___flmul@a+2
  1181  04C2  3000               	movlw	0
  1182  04C3  00A5               	movwf	___flmul@a+1
  1183  04C4  3000               	movlw	0
  1184  04C5  00A4               	movwf	___flmul@a
  1185  04C6                     l1754:
  1186  04C6  17A6               	bsf	___flmul@a+2,7
  1187  04C7  2CD0               	goto	l1758
  1188  04C8                     l1756:
  1189  04C8  3000               	movlw	0
  1190  04C9  00A7               	movwf	___flmul@a+3
  1191  04CA  3000               	movlw	0
  1192  04CB  00A6               	movwf	___flmul@a+2
  1193  04CC  3000               	movlw	0
  1194  04CD  00A5               	movwf	___flmul@a+1
  1195  04CE  3000               	movlw	0
  1196  04CF  00A4               	movwf	___flmul@a
  1197  04D0                     l1758:
  1198  04D0  0832               	movf	___flmul@aexp,w
  1199  04D1  1903               	btfsc	3,2
  1200  04D2  2CD4               	goto	u2251
  1201  04D3  2CD5               	goto	u2250
  1202  04D4                     u2251:
  1203  04D4  2CDA               	goto	l1762
  1204  04D5                     u2250:
  1205  04D5                     l1760:
  1206  04D5  0833               	movf	___flmul@bexp,w
  1207  04D6  1D03               	btfss	3,2
  1208  04D7  2CD9               	goto	u2261
  1209  04D8  2CDA               	goto	u2260
  1210  04D9                     u2261:
  1211  04D9  2CE3               	goto	l1766
  1212  04DA                     u2260:
  1213  04DA                     l1762:
  1214  04DA  3000               	movlw	0
  1215  04DB  00A3               	movwf	?___flmul+3
  1216  04DC  3000               	movlw	0
  1217  04DD  00A2               	movwf	?___flmul+2
  1218  04DE  3000               	movlw	0
  1219  04DF  00A1               	movwf	?___flmul+1
  1220  04E0  3000               	movlw	0
  1221  04E1  00A0               	movwf	?___flmul
  1222  04E2  2FD6               	goto	l605
  1223  04E3                     l1766:
  1224  04E3  0820               	movf	___flmul@b,w
  1225  04E4  00A8               	movwf	??___flmul
  1226  04E5  0828               	movf	??___flmul,w
  1227  04E6  00F0               	movwf	__Umul8_16@multiplicand
  1228  04E7  0826               	movf	___flmul@a+2,w
  1229  04E8  120A  158A  2516  120A  118A  	fcall	__Umul8_16
  1230  04ED  0871               	movf	?__Umul8_16+1,w
  1231  04EE  1283               	bcf	3,5	;RP0=0, select bank0
  1232  04EF  1303               	bcf	3,6	;RP1=0, select bank0
  1233  04F0  00B9               	movwf	___flmul@temp+1
  1234  04F1  0870               	movf	?__Umul8_16,w
  1235  04F2  00B8               	movwf	___flmul@temp
  1236  04F3                     l1768:
  1237  04F3  0838               	movf	___flmul@temp,w
  1238  04F4  00A8               	movwf	??___flmul
  1239  04F5  01A9               	clrf	??___flmul+1
  1240  04F6  01AA               	clrf	??___flmul+2
  1241  04F7  01AB               	clrf	??___flmul+3
  1242  04F8  082B               	movf	??___flmul+3,w
  1243  04F9  00B1               	movwf	___flmul@grs+3
  1244  04FA  082A               	movf	??___flmul+2,w
  1245  04FB  00B0               	movwf	___flmul@grs+2
  1246  04FC  0829               	movf	??___flmul+1,w
  1247  04FD  00AF               	movwf	___flmul@grs+1
  1248  04FE  0828               	movf	??___flmul,w
  1249  04FF  00AE               	movwf	___flmul@grs
  1250  0500                     l1770:
  1251  0500  0839               	movf	___flmul@temp+1,w
  1252  0501  00A8               	movwf	??___flmul
  1253  0502  01A9               	clrf	??___flmul+1
  1254  0503  01AA               	clrf	??___flmul+2
  1255  0504  01AB               	clrf	??___flmul+3
  1256  0505  082B               	movf	??___flmul+3,w
  1257  0506  00B7               	movwf	___flmul@prod+3
  1258  0507  082A               	movf	??___flmul+2,w
  1259  0508  00B6               	movwf	___flmul@prod+2
  1260  0509  0829               	movf	??___flmul+1,w
  1261  050A  00B5               	movwf	___flmul@prod+1
  1262  050B  0828               	movf	??___flmul,w
  1263  050C  00B4               	movwf	___flmul@prod
  1264  050D  0821               	movf	___flmul@b+1,w
  1265  050E  00A8               	movwf	??___flmul
  1266  050F  0828               	movf	??___flmul,w
  1267  0510  00F0               	movwf	__Umul8_16@multiplicand
  1268  0511  0825               	movf	___flmul@a+1,w
  1269  0512  120A  158A  2516  120A  118A  	fcall	__Umul8_16
  1270  0517  0871               	movf	?__Umul8_16+1,w
  1271  0518  1283               	bcf	3,5	;RP0=0, select bank0
  1272  0519  1303               	bcf	3,6	;RP1=0, select bank0
  1273  051A  00B9               	movwf	___flmul@temp+1
  1274  051B  0870               	movf	?__Umul8_16,w
  1275  051C  00B8               	movwf	___flmul@temp
  1276  051D                     l1772:
  1277  051D  0838               	movf	___flmul@temp,w
  1278  051E  00A8               	movwf	??___flmul
  1279  051F  01A9               	clrf	??___flmul+1
  1280  0520  01AA               	clrf	??___flmul+2
  1281  0521  01AB               	clrf	??___flmul+3
  1282  0522  0828               	movf	??___flmul,w
  1283  0523  07AE               	addwf	___flmul@grs,f
  1284  0524  0829               	movf	??___flmul+1,w
  1285  0525  1103               	clrz
  1286  0526  1803               	skipnc
  1287  0527  3E01               	addlw	1
  1288  0528  1903               	skipnz
  1289  0529  2D2B               	goto	u2271
  1290  052A  07AF               	addwf	___flmul@grs+1,f
  1291  052B                     u2271:
  1292  052B  082A               	movf	??___flmul+2,w
  1293  052C  1103               	clrz
  1294  052D  1803               	skipnc
  1295  052E  3E01               	addlw	1
  1296  052F  1903               	skipnz
  1297  0530  2D32               	goto	u2272
  1298  0531  07B0               	addwf	___flmul@grs+2,f
  1299  0532                     u2272:
  1300  0532  082B               	movf	??___flmul+3,w
  1301  0533  1103               	clrz
  1302  0534  1803               	skipnc
  1303  0535  3E01               	addlw	1
  1304  0536  1903               	skipnz
  1305  0537  2D39               	goto	u2273
  1306  0538  07B1               	addwf	___flmul@grs+3,f
  1307  0539                     u2273:
  1308  0539                     l1774:
  1309  0539  0839               	movf	___flmul@temp+1,w
  1310  053A  00A8               	movwf	??___flmul
  1311  053B  01A9               	clrf	??___flmul+1
  1312  053C  01AA               	clrf	??___flmul+2
  1313  053D  01AB               	clrf	??___flmul+3
  1314  053E  0828               	movf	??___flmul,w
  1315  053F  07B4               	addwf	___flmul@prod,f
  1316  0540  0829               	movf	??___flmul+1,w
  1317  0541  1103               	clrz
  1318  0542  1803               	skipnc
  1319  0543  3E01               	addlw	1
  1320  0544  1903               	skipnz
  1321  0545  2D47               	goto	u2281
  1322  0546  07B5               	addwf	___flmul@prod+1,f
  1323  0547                     u2281:
  1324  0547  082A               	movf	??___flmul+2,w
  1325  0548  1103               	clrz
  1326  0549  1803               	skipnc
  1327  054A  3E01               	addlw	1
  1328  054B  1903               	skipnz
  1329  054C  2D4E               	goto	u2282
  1330  054D  07B6               	addwf	___flmul@prod+2,f
  1331  054E                     u2282:
  1332  054E  082B               	movf	??___flmul+3,w
  1333  054F  1103               	clrz
  1334  0550  1803               	skipnc
  1335  0551  3E01               	addlw	1
  1336  0552  1903               	skipnz
  1337  0553  2D55               	goto	u2283
  1338  0554  07B7               	addwf	___flmul@prod+3,f
  1339  0555                     u2283:
  1340  0555  0822               	movf	___flmul@b+2,w
  1341  0556  00A8               	movwf	??___flmul
  1342  0557  0828               	movf	??___flmul,w
  1343  0558  00F0               	movwf	__Umul8_16@multiplicand
  1344  0559  0824               	movf	___flmul@a,w
  1345  055A  120A  158A  2516  120A  118A  	fcall	__Umul8_16
  1346  055F  0871               	movf	?__Umul8_16+1,w
  1347  0560  1283               	bcf	3,5	;RP0=0, select bank0
  1348  0561  1303               	bcf	3,6	;RP1=0, select bank0
  1349  0562  00B9               	movwf	___flmul@temp+1
  1350  0563  0870               	movf	?__Umul8_16,w
  1351  0564  00B8               	movwf	___flmul@temp
  1352  0565                     l1776:
  1353  0565  0838               	movf	___flmul@temp,w
  1354  0566  00A8               	movwf	??___flmul
  1355  0567  01A9               	clrf	??___flmul+1
  1356  0568  01AA               	clrf	??___flmul+2
  1357  0569  01AB               	clrf	??___flmul+3
  1358  056A  0828               	movf	??___flmul,w
  1359  056B  07AE               	addwf	___flmul@grs,f
  1360  056C  0829               	movf	??___flmul+1,w
  1361  056D  1103               	clrz
  1362  056E  1803               	skipnc
  1363  056F  3E01               	addlw	1
  1364  0570  1903               	skipnz
  1365  0571  2D73               	goto	u2291
  1366  0572  07AF               	addwf	___flmul@grs+1,f
  1367  0573                     u2291:
  1368  0573  082A               	movf	??___flmul+2,w
  1369  0574  1103               	clrz
  1370  0575  1803               	skipnc
  1371  0576  3E01               	addlw	1
  1372  0577  1903               	skipnz
  1373  0578  2D7A               	goto	u2292
  1374  0579  07B0               	addwf	___flmul@grs+2,f
  1375  057A                     u2292:
  1376  057A  082B               	movf	??___flmul+3,w
  1377  057B  1103               	clrz
  1378  057C  1803               	skipnc
  1379  057D  3E01               	addlw	1
  1380  057E  1903               	skipnz
  1381  057F  2D81               	goto	u2293
  1382  0580  07B1               	addwf	___flmul@grs+3,f
  1383  0581                     u2293:
  1384  0581                     l1778:
  1385  0581  0839               	movf	___flmul@temp+1,w
  1386  0582  00A8               	movwf	??___flmul
  1387  0583  01A9               	clrf	??___flmul+1
  1388  0584  01AA               	clrf	??___flmul+2
  1389  0585  01AB               	clrf	??___flmul+3
  1390  0586  0828               	movf	??___flmul,w
  1391  0587  07B4               	addwf	___flmul@prod,f
  1392  0588  0829               	movf	??___flmul+1,w
  1393  0589  1103               	clrz
  1394  058A  1803               	skipnc
  1395  058B  3E01               	addlw	1
  1396  058C  1903               	skipnz
  1397  058D  2D8F               	goto	u2301
  1398  058E  07B5               	addwf	___flmul@prod+1,f
  1399  058F                     u2301:
  1400  058F  082A               	movf	??___flmul+2,w
  1401  0590  1103               	clrz
  1402  0591  1803               	skipnc
  1403  0592  3E01               	addlw	1
  1404  0593  1903               	skipnz
  1405  0594  2D96               	goto	u2302
  1406  0595  07B6               	addwf	___flmul@prod+2,f
  1407  0596                     u2302:
  1408  0596  082B               	movf	??___flmul+3,w
  1409  0597  1103               	clrz
  1410  0598  1803               	skipnc
  1411  0599  3E01               	addlw	1
  1412  059A  1903               	skipnz
  1413  059B  2D9D               	goto	u2303
  1414  059C  07B7               	addwf	___flmul@prod+3,f
  1415  059D                     u2303:
  1416  059D                     l1780:
  1417  059D  3008               	movlw	8
  1418  059E  00A8               	movwf	??___flmul
  1419  059F                     u2315:
  1420  059F  1003               	clrc
  1421  05A0  0DAE               	rlf	___flmul@grs,f
  1422  05A1  0DAF               	rlf	___flmul@grs+1,f
  1423  05A2  0DB0               	rlf	___flmul@grs+2,f
  1424  05A3  0DB1               	rlf	___flmul@grs+3,f
  1425  05A4  0BA8               	decfsz	??___flmul,f
  1426  05A5  2D9F               	goto	u2315
  1427  05A6                     l1782:
  1428  05A6  0821               	movf	___flmul@b+1,w
  1429  05A7  00A8               	movwf	??___flmul
  1430  05A8  0828               	movf	??___flmul,w
  1431  05A9  00F0               	movwf	__Umul8_16@multiplicand
  1432  05AA  0824               	movf	___flmul@a,w
  1433  05AB  120A  158A  2516  120A  118A  	fcall	__Umul8_16
  1434  05B0  0871               	movf	?__Umul8_16+1,w
  1435  05B1  1283               	bcf	3,5	;RP0=0, select bank0
  1436  05B2  1303               	bcf	3,6	;RP1=0, select bank0
  1437  05B3  00B9               	movwf	___flmul@temp+1
  1438  05B4  0870               	movf	?__Umul8_16,w
  1439  05B5  00B8               	movwf	___flmul@temp
  1440  05B6                     l1784:
  1441  05B6  0838               	movf	___flmul@temp,w
  1442  05B7  00A8               	movwf	??___flmul
  1443  05B8  0839               	movf	___flmul@temp+1,w
  1444  05B9  00A9               	movwf	??___flmul+1
  1445  05BA  01AA               	clrf	??___flmul+2
  1446  05BB  01AB               	clrf	??___flmul+3
  1447  05BC  0828               	movf	??___flmul,w
  1448  05BD  07AE               	addwf	___flmul@grs,f
  1449  05BE  0829               	movf	??___flmul+1,w
  1450  05BF  1103               	clrz
  1451  05C0  1803               	skipnc
  1452  05C1  3E01               	addlw	1
  1453  05C2  1903               	skipnz
  1454  05C3  2DC5               	goto	u2321
  1455  05C4  07AF               	addwf	___flmul@grs+1,f
  1456  05C5                     u2321:
  1457  05C5  082A               	movf	??___flmul+2,w
  1458  05C6  1103               	clrz
  1459  05C7  1803               	skipnc
  1460  05C8  3E01               	addlw	1
  1461  05C9  1903               	skipnz
  1462  05CA  2DCC               	goto	u2322
  1463  05CB  07B0               	addwf	___flmul@grs+2,f
  1464  05CC                     u2322:
  1465  05CC  082B               	movf	??___flmul+3,w
  1466  05CD  1103               	clrz
  1467  05CE  1803               	skipnc
  1468  05CF  3E01               	addlw	1
  1469  05D0  1903               	skipnz
  1470  05D1  2DD3               	goto	u2323
  1471  05D2  07B1               	addwf	___flmul@grs+3,f
  1472  05D3                     u2323:
  1473  05D3                     l1786:
  1474  05D3  0820               	movf	___flmul@b,w
  1475  05D4  00A8               	movwf	??___flmul
  1476  05D5  0828               	movf	??___flmul,w
  1477  05D6  00F0               	movwf	__Umul8_16@multiplicand
  1478  05D7  0825               	movf	___flmul@a+1,w
  1479  05D8  120A  158A  2516  120A  118A  	fcall	__Umul8_16
  1480  05DD  0871               	movf	?__Umul8_16+1,w
  1481  05DE  1283               	bcf	3,5	;RP0=0, select bank0
  1482  05DF  1303               	bcf	3,6	;RP1=0, select bank0
  1483  05E0  00B9               	movwf	___flmul@temp+1
  1484  05E1  0870               	movf	?__Umul8_16,w
  1485  05E2  00B8               	movwf	___flmul@temp
  1486  05E3                     l1788:
  1487  05E3  0838               	movf	___flmul@temp,w
  1488  05E4  00A8               	movwf	??___flmul
  1489  05E5  0839               	movf	___flmul@temp+1,w
  1490  05E6  00A9               	movwf	??___flmul+1
  1491  05E7  01AA               	clrf	??___flmul+2
  1492  05E8  01AB               	clrf	??___flmul+3
  1493  05E9  0828               	movf	??___flmul,w
  1494  05EA  07AE               	addwf	___flmul@grs,f
  1495  05EB  0829               	movf	??___flmul+1,w
  1496  05EC  1103               	clrz
  1497  05ED  1803               	skipnc
  1498  05EE  3E01               	addlw	1
  1499  05EF  1903               	skipnz
  1500  05F0  2DF2               	goto	u2331
  1501  05F1  07AF               	addwf	___flmul@grs+1,f
  1502  05F2                     u2331:
  1503  05F2  082A               	movf	??___flmul+2,w
  1504  05F3  1103               	clrz
  1505  05F4  1803               	skipnc
  1506  05F5  3E01               	addlw	1
  1507  05F6  1903               	skipnz
  1508  05F7  2DF9               	goto	u2332
  1509  05F8  07B0               	addwf	___flmul@grs+2,f
  1510  05F9                     u2332:
  1511  05F9  082B               	movf	??___flmul+3,w
  1512  05FA  1103               	clrz
  1513  05FB  1803               	skipnc
  1514  05FC  3E01               	addlw	1
  1515  05FD  1903               	skipnz
  1516  05FE  2E00               	goto	u2333
  1517  05FF  07B1               	addwf	___flmul@grs+3,f
  1518  0600                     u2333:
  1519  0600                     l1790:
  1520  0600  3008               	movlw	8
  1521  0601  00A8               	movwf	??___flmul
  1522  0602                     u2345:
  1523  0602  1003               	clrc
  1524  0603  0DAE               	rlf	___flmul@grs,f
  1525  0604  0DAF               	rlf	___flmul@grs+1,f
  1526  0605  0DB0               	rlf	___flmul@grs+2,f
  1527  0606  0DB1               	rlf	___flmul@grs+3,f
  1528  0607  0BA8               	decfsz	??___flmul,f
  1529  0608  2E02               	goto	u2345
  1530  0609  0820               	movf	___flmul@b,w
  1531  060A  00A8               	movwf	??___flmul
  1532  060B  0828               	movf	??___flmul,w
  1533  060C  00F0               	movwf	__Umul8_16@multiplicand
  1534  060D  0824               	movf	___flmul@a,w
  1535  060E  120A  158A  2516  120A  118A  	fcall	__Umul8_16
  1536  0613  0871               	movf	?__Umul8_16+1,w
  1537  0614  1283               	bcf	3,5	;RP0=0, select bank0
  1538  0615  1303               	bcf	3,6	;RP1=0, select bank0
  1539  0616  00B9               	movwf	___flmul@temp+1
  1540  0617  0870               	movf	?__Umul8_16,w
  1541  0618  00B8               	movwf	___flmul@temp
  1542  0619                     l1792:
  1543  0619  0838               	movf	___flmul@temp,w
  1544  061A  00A8               	movwf	??___flmul
  1545  061B  0839               	movf	___flmul@temp+1,w
  1546  061C  00A9               	movwf	??___flmul+1
  1547  061D  01AA               	clrf	??___flmul+2
  1548  061E  01AB               	clrf	??___flmul+3
  1549  061F  0828               	movf	??___flmul,w
  1550  0620  07AE               	addwf	___flmul@grs,f
  1551  0621  0829               	movf	??___flmul+1,w
  1552  0622  1103               	clrz
  1553  0623  1803               	skipnc
  1554  0624  3E01               	addlw	1
  1555  0625  1903               	skipnz
  1556  0626  2E28               	goto	u2351
  1557  0627  07AF               	addwf	___flmul@grs+1,f
  1558  0628                     u2351:
  1559  0628  082A               	movf	??___flmul+2,w
  1560  0629  1103               	clrz
  1561  062A  1803               	skipnc
  1562  062B  3E01               	addlw	1
  1563  062C  1903               	skipnz
  1564  062D  2E2F               	goto	u2352
  1565  062E  07B0               	addwf	___flmul@grs+2,f
  1566  062F                     u2352:
  1567  062F  082B               	movf	??___flmul+3,w
  1568  0630  1103               	clrz
  1569  0631  1803               	skipnc
  1570  0632  3E01               	addlw	1
  1571  0633  1903               	skipnz
  1572  0634  2E36               	goto	u2353
  1573  0635  07B1               	addwf	___flmul@grs+3,f
  1574  0636                     u2353:
  1575  0636                     l1794:
  1576  0636  0821               	movf	___flmul@b+1,w
  1577  0637  00A8               	movwf	??___flmul
  1578  0638  0828               	movf	??___flmul,w
  1579  0639  00F0               	movwf	__Umul8_16@multiplicand
  1580  063A  0826               	movf	___flmul@a+2,w
  1581  063B  120A  158A  2516  120A  118A  	fcall	__Umul8_16
  1582  0640  0871               	movf	?__Umul8_16+1,w
  1583  0641  1283               	bcf	3,5	;RP0=0, select bank0
  1584  0642  1303               	bcf	3,6	;RP1=0, select bank0
  1585  0643  00B9               	movwf	___flmul@temp+1
  1586  0644  0870               	movf	?__Umul8_16,w
  1587  0645  00B8               	movwf	___flmul@temp
  1588  0646  0838               	movf	___flmul@temp,w
  1589  0647  00A8               	movwf	??___flmul
  1590  0648  0839               	movf	___flmul@temp+1,w
  1591  0649  00A9               	movwf	??___flmul+1
  1592  064A  01AA               	clrf	??___flmul+2
  1593  064B  01AB               	clrf	??___flmul+3
  1594  064C  0828               	movf	??___flmul,w
  1595  064D  07B4               	addwf	___flmul@prod,f
  1596  064E  0829               	movf	??___flmul+1,w
  1597  064F  1103               	clrz
  1598  0650  1803               	skipnc
  1599  0651  3E01               	addlw	1
  1600  0652  1903               	skipnz
  1601  0653  2E55               	goto	u2361
  1602  0654  07B5               	addwf	___flmul@prod+1,f
  1603  0655                     u2361:
  1604  0655  082A               	movf	??___flmul+2,w
  1605  0656  1103               	clrz
  1606  0657  1803               	skipnc
  1607  0658  3E01               	addlw	1
  1608  0659  1903               	skipnz
  1609  065A  2E5C               	goto	u2362
  1610  065B  07B6               	addwf	___flmul@prod+2,f
  1611  065C                     u2362:
  1612  065C  082B               	movf	??___flmul+3,w
  1613  065D  1103               	clrz
  1614  065E  1803               	skipnc
  1615  065F  3E01               	addlw	1
  1616  0660  1903               	skipnz
  1617  0661  2E63               	goto	u2363
  1618  0662  07B7               	addwf	___flmul@prod+3,f
  1619  0663                     u2363:
  1620  0663                     l1796:
  1621  0663  0822               	movf	___flmul@b+2,w
  1622  0664  00A8               	movwf	??___flmul
  1623  0665  0828               	movf	??___flmul,w
  1624  0666  00F0               	movwf	__Umul8_16@multiplicand
  1625  0667  0825               	movf	___flmul@a+1,w
  1626  0668  120A  158A  2516  120A  118A  	fcall	__Umul8_16
  1627  066D  0871               	movf	?__Umul8_16+1,w
  1628  066E  1283               	bcf	3,5	;RP0=0, select bank0
  1629  066F  1303               	bcf	3,6	;RP1=0, select bank0
  1630  0670  00B9               	movwf	___flmul@temp+1
  1631  0671  0870               	movf	?__Umul8_16,w
  1632  0672  00B8               	movwf	___flmul@temp
  1633  0673                     l1798:
  1634  0673  0838               	movf	___flmul@temp,w
  1635  0674  00A8               	movwf	??___flmul
  1636  0675  0839               	movf	___flmul@temp+1,w
  1637  0676  00A9               	movwf	??___flmul+1
  1638  0677  01AA               	clrf	??___flmul+2
  1639  0678  01AB               	clrf	??___flmul+3
  1640  0679  0828               	movf	??___flmul,w
  1641  067A  07B4               	addwf	___flmul@prod,f
  1642  067B  0829               	movf	??___flmul+1,w
  1643  067C  1103               	clrz
  1644  067D  1803               	skipnc
  1645  067E  3E01               	addlw	1
  1646  067F  1903               	skipnz
  1647  0680  2E82               	goto	u2371
  1648  0681  07B5               	addwf	___flmul@prod+1,f
  1649  0682                     u2371:
  1650  0682  082A               	movf	??___flmul+2,w
  1651  0683  1103               	clrz
  1652  0684  1803               	skipnc
  1653  0685  3E01               	addlw	1
  1654  0686  1903               	skipnz
  1655  0687  2E89               	goto	u2372
  1656  0688  07B6               	addwf	___flmul@prod+2,f
  1657  0689                     u2372:
  1658  0689  082B               	movf	??___flmul+3,w
  1659  068A  1103               	clrz
  1660  068B  1803               	skipnc
  1661  068C  3E01               	addlw	1
  1662  068D  1903               	skipnz
  1663  068E  2E90               	goto	u2373
  1664  068F  07B7               	addwf	___flmul@prod+3,f
  1665  0690                     u2373:
  1666  0690  0822               	movf	___flmul@b+2,w
  1667  0691  00A8               	movwf	??___flmul
  1668  0692  0828               	movf	??___flmul,w
  1669  0693  00F0               	movwf	__Umul8_16@multiplicand
  1670  0694  0826               	movf	___flmul@a+2,w
  1671  0695  120A  158A  2516  120A  118A  	fcall	__Umul8_16
  1672  069A  0871               	movf	?__Umul8_16+1,w
  1673  069B  1283               	bcf	3,5	;RP0=0, select bank0
  1674  069C  1303               	bcf	3,6	;RP1=0, select bank0
  1675  069D  00B9               	movwf	___flmul@temp+1
  1676  069E  0870               	movf	?__Umul8_16,w
  1677  069F  00B8               	movwf	___flmul@temp
  1678  06A0                     l1800:
  1679  06A0  0838               	movf	___flmul@temp,w
  1680  06A1  00A8               	movwf	??___flmul
  1681  06A2  0839               	movf	___flmul@temp+1,w
  1682  06A3  00A9               	movwf	??___flmul+1
  1683  06A4  01AA               	clrf	??___flmul+2
  1684  06A5  01AB               	clrf	??___flmul+3
  1685  06A6  3008               	movlw	8
  1686  06A7                     u2385:
  1687  06A7  1003               	clrc
  1688  06A8  0DA8               	rlf	??___flmul,f
  1689  06A9  0DA9               	rlf	??___flmul+1,f
  1690  06AA  0DAA               	rlf	??___flmul+2,f
  1691  06AB  0DAB               	rlf	??___flmul+3,f
  1692  06AC                     u2380:
  1693  06AC  3EFF               	addlw	-1
  1694  06AD  1D03               	skipz
  1695  06AE  2EA7               	goto	u2385
  1696  06AF  0828               	movf	??___flmul,w
  1697  06B0  07B4               	addwf	___flmul@prod,f
  1698  06B1  0829               	movf	??___flmul+1,w
  1699  06B2  1103               	clrz
  1700  06B3  1803               	skipnc
  1701  06B4  3E01               	addlw	1
  1702  06B5  1903               	skipnz
  1703  06B6  2EB8               	goto	u2391
  1704  06B7  07B5               	addwf	___flmul@prod+1,f
  1705  06B8                     u2391:
  1706  06B8  082A               	movf	??___flmul+2,w
  1707  06B9  1103               	clrz
  1708  06BA  1803               	skipnc
  1709  06BB  3E01               	addlw	1
  1710  06BC  1903               	skipnz
  1711  06BD  2EBF               	goto	u2392
  1712  06BE  07B6               	addwf	___flmul@prod+2,f
  1713  06BF                     u2392:
  1714  06BF  082B               	movf	??___flmul+3,w
  1715  06C0  1103               	clrz
  1716  06C1  1803               	skipnc
  1717  06C2  3E01               	addlw	1
  1718  06C3  1903               	skipnz
  1719  06C4  2EC6               	goto	u2393
  1720  06C5  07B7               	addwf	___flmul@prod+3,f
  1721  06C6                     u2393:
  1722  06C6                     l1802:
  1723  06C6  082E               	movf	___flmul@grs,w
  1724  06C7  00A8               	movwf	??___flmul
  1725  06C8  082F               	movf	___flmul@grs+1,w
  1726  06C9  00A9               	movwf	??___flmul+1
  1727  06CA  0830               	movf	___flmul@grs+2,w
  1728  06CB  00AA               	movwf	??___flmul+2
  1729  06CC  0831               	movf	___flmul@grs+3,w
  1730  06CD  00AB               	movwf	??___flmul+3
  1731  06CE  3018               	movlw	24
  1732  06CF                     u2405:
  1733  06CF  1003               	clrc
  1734  06D0  0CAB               	rrf	??___flmul+3,f
  1735  06D1  0CAA               	rrf	??___flmul+2,f
  1736  06D2  0CA9               	rrf	??___flmul+1,f
  1737  06D3  0CA8               	rrf	??___flmul,f
  1738  06D4                     u2400:
  1739  06D4  3EFF               	addlw	-1
  1740  06D5  1D03               	skipz
  1741  06D6  2ECF               	goto	u2405
  1742  06D7  0828               	movf	??___flmul,w
  1743  06D8  07B4               	addwf	___flmul@prod,f
  1744  06D9  0829               	movf	??___flmul+1,w
  1745  06DA  1103               	clrz
  1746  06DB  1803               	skipnc
  1747  06DC  3E01               	addlw	1
  1748  06DD  1903               	skipnz
  1749  06DE  2EE0               	goto	u2411
  1750  06DF  07B5               	addwf	___flmul@prod+1,f
  1751  06E0                     u2411:
  1752  06E0  082A               	movf	??___flmul+2,w
  1753  06E1  1103               	clrz
  1754  06E2  1803               	skipnc
  1755  06E3  3E01               	addlw	1
  1756  06E4  1903               	skipnz
  1757  06E5  2EE7               	goto	u2412
  1758  06E6  07B6               	addwf	___flmul@prod+2,f
  1759  06E7                     u2412:
  1760  06E7  082B               	movf	??___flmul+3,w
  1761  06E8  1103               	clrz
  1762  06E9  1803               	skipnc
  1763  06EA  3E01               	addlw	1
  1764  06EB  1903               	skipnz
  1765  06EC  2EEE               	goto	u2413
  1766  06ED  07B7               	addwf	___flmul@prod+3,f
  1767  06EE                     u2413:
  1768  06EE                     l1804:
  1769  06EE  3008               	movlw	8
  1770  06EF  00A8               	movwf	??___flmul
  1771  06F0                     u2425:
  1772  06F0  1003               	clrc
  1773  06F1  0DAE               	rlf	___flmul@grs,f
  1774  06F2  0DAF               	rlf	___flmul@grs+1,f
  1775  06F3  0DB0               	rlf	___flmul@grs+2,f
  1776  06F4  0DB1               	rlf	___flmul@grs+3,f
  1777  06F5  0BA8               	decfsz	??___flmul,f
  1778  06F6  2EF0               	goto	u2425
  1779  06F7                     l1806:
  1780  06F7  0833               	movf	___flmul@bexp,w
  1781  06F8  0732               	addwf	___flmul@aexp,w
  1782  06F9  00A8               	movwf	??___flmul
  1783  06FA  01A9               	clrf	??___flmul+1
  1784  06FB  0DA9               	rlf	??___flmul+1,f
  1785  06FC  0828               	movf	??___flmul,w
  1786  06FD  3E82               	addlw	130
  1787  06FE  00B8               	movwf	___flmul@temp
  1788  06FF  0829               	movf	??___flmul+1,w
  1789  0700  1803               	skipnc
  1790  0701  3E01               	addlw	1
  1791  0702  3EFF               	addlw	255
  1792  0703  00B9               	movwf	___flmul@temp+1
  1793  0704  2F22               	goto	l1818
  1794  0705                     l1808:
  1795  0705  3001               	movlw	1
  1796  0706  00A8               	movwf	??___flmul
  1797  0707                     u2435:
  1798  0707  1003               	clrc
  1799  0708  0DB4               	rlf	___flmul@prod,f
  1800  0709  0DB5               	rlf	___flmul@prod+1,f
  1801  070A  0DB6               	rlf	___flmul@prod+2,f
  1802  070B  0DB7               	rlf	___flmul@prod+3,f
  1803  070C  0BA8               	decfsz	??___flmul,f
  1804  070D  2F07               	goto	u2435
  1805  070E                     l1810:
  1806  070E  1FB1               	btfss	___flmul@grs+3,7
  1807  070F  2F11               	goto	u2441
  1808  0710  2F12               	goto	u2440
  1809  0711                     u2441:
  1810  0711  2F13               	goto	l1814
  1811  0712                     u2440:
  1812  0712                     l1812:
  1813  0712  1434               	bsf	___flmul@prod,0
  1814  0713                     l1814:
  1815  0713  3001               	movlw	1
  1816  0714  00A8               	movwf	??___flmul
  1817  0715                     u2455:
  1818  0715  1003               	clrc
  1819  0716  0DAE               	rlf	___flmul@grs,f
  1820  0717  0DAF               	rlf	___flmul@grs+1,f
  1821  0718  0DB0               	rlf	___flmul@grs+2,f
  1822  0719  0DB1               	rlf	___flmul@grs+3,f
  1823  071A  0BA8               	decfsz	??___flmul,f
  1824  071B  2F15               	goto	u2455
  1825  071C                     l1816:
  1826  071C  30FF               	movlw	255
  1827  071D  07B8               	addwf	___flmul@temp,f
  1828  071E  1803               	skipnc
  1829  071F  0AB9               	incf	___flmul@temp+1,f
  1830  0720  30FF               	movlw	255
  1831  0721  07B9               	addwf	___flmul@temp+1,f
  1832  0722                     l1818:
  1833  0722  1FB6               	btfss	___flmul@prod+2,7
  1834  0723  2F25               	goto	u2461
  1835  0724  2F26               	goto	u2460
  1836  0725                     u2461:
  1837  0725  2F05               	goto	l1808
  1838  0726                     u2460:
  1839  0726                     l1820:
  1840  0726  01B2               	clrf	___flmul@aexp
  1841  0727                     l1822:
  1842  0727  1FB1               	btfss	___flmul@grs+3,7
  1843  0728  2F2A               	goto	u2471
  1844  0729  2F2B               	goto	u2470
  1845  072A                     u2471:
  1846  072A  2F47               	goto	l1830
  1847  072B                     u2470:
  1848  072B                     l1824:
  1849  072B  30FF               	movlw	255
  1850  072C  052E               	andwf	___flmul@grs,w
  1851  072D  00A8               	movwf	??___flmul
  1852  072E  30FF               	movlw	255
  1853  072F  052F               	andwf	___flmul@grs+1,w
  1854  0730  00A9               	movwf	??___flmul+1
  1855  0731  30FF               	movlw	255
  1856  0732  0530               	andwf	___flmul@grs+2,w
  1857  0733  00AA               	movwf	??___flmul+2
  1858  0734  307F               	movlw	127
  1859  0735  0531               	andwf	___flmul@grs+3,w
  1860  0736  00AB               	movwf	??___flmul+3
  1861  0737  082B               	movf	??___flmul+3,w
  1862  0738  042A               	iorwf	??___flmul+2,w
  1863  0739  0429               	iorwf	??___flmul+1,w
  1864  073A  0428               	iorwf	??___flmul,w
  1865  073B  1903               	skipnz
  1866  073C  2F3E               	goto	u2481
  1867  073D  2F3F               	goto	u2480
  1868  073E                     u2481:
  1869  073E  2F42               	goto	l611
  1870  073F                     u2480:
  1871  073F                     l1826:
  1872  073F  01B2               	clrf	___flmul@aexp
  1873  0740  0AB2               	incf	___flmul@aexp,f
  1874  0741  2F47               	goto	l1830
  1875  0742                     l611:
  1876  0742  1C34               	btfss	___flmul@prod,0
  1877  0743  2F45               	goto	u2491
  1878  0744  2F46               	goto	u2490
  1879  0745                     u2491:
  1880  0745  2F47               	goto	l1830
  1881  0746                     u2490:
  1882  0746  2F3F               	goto	l1826
  1883  0747                     l1830:
  1884  0747  0832               	movf	___flmul@aexp,w
  1885  0748  1903               	btfsc	3,2
  1886  0749  2F4B               	goto	u2501
  1887  074A  2F4C               	goto	u2500
  1888  074B                     u2501:
  1889  074B  2F7D               	goto	l1840
  1890  074C                     u2500:
  1891  074C                     l1832:
  1892  074C  3001               	movlw	1
  1893  074D  07B4               	addwf	___flmul@prod,f
  1894  074E  3000               	movlw	0
  1895  074F  1803               	skipnc
  1896  0750  3001               	movlw	1
  1897  0751  07B5               	addwf	___flmul@prod+1,f
  1898  0752  3000               	movlw	0
  1899  0753  1803               	skipnc
  1900  0754  3001               	movlw	1
  1901  0755  07B6               	addwf	___flmul@prod+2,f
  1902  0756  3000               	movlw	0
  1903  0757  1803               	skipnc
  1904  0758  3001               	movlw	1
  1905  0759  07B7               	addwf	___flmul@prod+3,f
  1906  075A                     l1834:
  1907  075A  1C37               	btfss	___flmul@prod+3,0
  1908  075B  2F5D               	goto	u2511
  1909  075C  2F5E               	goto	u2510
  1910  075D                     u2511:
  1911  075D  2F7D               	goto	l1840
  1912  075E                     u2510:
  1913  075E                     l1836:
  1914  075E  0834               	movf	___flmul@prod,w
  1915  075F  00A8               	movwf	??___flmul
  1916  0760  0835               	movf	___flmul@prod+1,w
  1917  0761  00A9               	movwf	??___flmul+1
  1918  0762  0836               	movf	___flmul@prod+2,w
  1919  0763  00AA               	movwf	??___flmul+2
  1920  0764  0837               	movf	___flmul@prod+3,w
  1921  0765  00AB               	movwf	??___flmul+3
  1922  0766  3001               	movlw	1
  1923  0767  00AC               	movwf	??___flmul+4
  1924  0768                     u2525:
  1925  0768  0D2B               	rlf	??___flmul+3,w
  1926  0769  0CAB               	rrf	??___flmul+3,f
  1927  076A  0CAA               	rrf	??___flmul+2,f
  1928  076B  0CA9               	rrf	??___flmul+1,f
  1929  076C  0CA8               	rrf	??___flmul,f
  1930  076D                     u2520:
  1931  076D  0BAC               	decfsz	??___flmul+4,f
  1932  076E  2F68               	goto	u2525
  1933  076F  082B               	movf	??___flmul+3,w
  1934  0770  00B7               	movwf	___flmul@prod+3
  1935  0771  082A               	movf	??___flmul+2,w
  1936  0772  00B6               	movwf	___flmul@prod+2
  1937  0773  0829               	movf	??___flmul+1,w
  1938  0774  00B5               	movwf	___flmul@prod+1
  1939  0775  0828               	movf	??___flmul,w
  1940  0776  00B4               	movwf	___flmul@prod
  1941  0777                     l1838:
  1942  0777  3001               	movlw	1
  1943  0778  07B8               	addwf	___flmul@temp,f
  1944  0779  1803               	skipnc
  1945  077A  0AB9               	incf	___flmul@temp+1,f
  1946  077B  3000               	movlw	0
  1947  077C  07B9               	addwf	___flmul@temp+1,f
  1948  077D                     l1840:
  1949  077D  0839               	movf	___flmul@temp+1,w
  1950  077E  3A80               	xorlw	128
  1951  077F  00FF               	movwf	btemp+1
  1952  0780  3080               	movlw	128
  1953  0781  027F               	subwf	btemp+1,w
  1954  0782  1D03               	skipz
  1955  0783  2F86               	goto	u2535
  1956  0784  30FF               	movlw	255
  1957  0785  0238               	subwf	___flmul@temp,w
  1958  0786                     u2535:
  1959  0786  1C03               	skipc
  1960  0787  2F89               	goto	u2531
  1961  0788  2F8A               	goto	u2530
  1962  0789                     u2531:
  1963  0789  2F95               	goto	l1844
  1964  078A                     u2530:
  1965  078A                     l1842:
  1966  078A  307F               	movlw	127
  1967  078B  1283               	bcf	3,5	;RP0=0, select bank0
  1968  078C  1303               	bcf	3,6	;RP1=0, select bank0
  1969  078D  00B7               	movwf	___flmul@prod+3
  1970  078E  3080               	movlw	128
  1971  078F  00B6               	movwf	___flmul@prod+2
  1972  0790  3000               	movlw	0
  1973  0791  00B5               	movwf	___flmul@prod+1
  1974  0792  3000               	movlw	0
  1975  0793  00B4               	movwf	___flmul@prod
  1976  0794  2FCA               	goto	l617
  1977  0795                     l1844:
  1978  0795  1283               	bcf	3,5	;RP0=0, select bank0
  1979  0796  1303               	bcf	3,6	;RP1=0, select bank0
  1980  0797  0839               	movf	___flmul@temp+1,w
  1981  0798  3A80               	xorlw	128
  1982  0799  00FF               	movwf	btemp+1
  1983  079A  3080               	movlw	128
  1984  079B  027F               	subwf	btemp+1,w
  1985  079C  1D03               	skipz
  1986  079D  2FA0               	goto	u2545
  1987  079E  3001               	movlw	1
  1988  079F  0238               	subwf	___flmul@temp,w
  1989  07A0                     u2545:
  1990  07A0  1803               	skipnc
  1991  07A1  2FA3               	goto	u2541
  1992  07A2  2FA4               	goto	u2540
  1993  07A3                     u2541:
  1994  07A3  2FB0               	goto	l1850
  1995  07A4                     u2540:
  1996  07A4                     l1846:
  1997  07A4  3000               	movlw	0
  1998  07A5  1283               	bcf	3,5	;RP0=0, select bank0
  1999  07A6  1303               	bcf	3,6	;RP1=0, select bank0
  2000  07A7  00B7               	movwf	___flmul@prod+3
  2001  07A8  3000               	movlw	0
  2002  07A9  00B6               	movwf	___flmul@prod+2
  2003  07AA  3000               	movlw	0
  2004  07AB  00B5               	movwf	___flmul@prod+1
  2005  07AC  3000               	movlw	0
  2006  07AD  00B4               	movwf	___flmul@prod
  2007  07AE                     l1848:
  2008  07AE  01AD               	clrf	___flmul@sign
  2009  07AF  2FCA               	goto	l617
  2010  07B0                     l1850:
  2011  07B0  1283               	bcf	3,5	;RP0=0, select bank0
  2012  07B1  1303               	bcf	3,6	;RP1=0, select bank0
  2013  07B2  0838               	movf	___flmul@temp,w
  2014  07B3  00A8               	movwf	??___flmul
  2015  07B4  0828               	movf	??___flmul,w
  2016  07B5  00B3               	movwf	___flmul@bexp
  2017  07B6  30FF               	movlw	255
  2018  07B7  05B4               	andwf	___flmul@prod,f
  2019  07B8  30FF               	movlw	255
  2020  07B9  05B5               	andwf	___flmul@prod+1,f
  2021  07BA  307F               	movlw	127
  2022  07BB  05B6               	andwf	___flmul@prod+2,f
  2023  07BC  3000               	movlw	0
  2024  07BD  05B7               	andwf	___flmul@prod+3,f
  2025  07BE                     l1852:
  2026  07BE  1C33               	btfss	___flmul@bexp,0
  2027  07BF  2FC1               	goto	u2551
  2028  07C0  2FC2               	goto	u2550
  2029  07C1                     u2551:
  2030  07C1  2FC3               	goto	l1856
  2031  07C2                     u2550:
  2032  07C2                     l1854:
  2033  07C2  17B6               	bsf	___flmul@prod+2,7
  2034  07C3                     l1856:
  2035  07C3  0833               	movf	___flmul@bexp,w
  2036  07C4  00A8               	movwf	??___flmul
  2037  07C5  1003               	clrc
  2038  07C6  0C28               	rrf	??___flmul,w
  2039  07C7  00A9               	movwf	??___flmul+1
  2040  07C8  0829               	movf	??___flmul+1,w
  2041  07C9  00B7               	movwf	___flmul@prod+3
  2042  07CA                     l617:
  2043  07CA  082D               	movf	___flmul@sign,w
  2044  07CB  00A8               	movwf	??___flmul
  2045  07CC  0828               	movf	??___flmul,w
  2046  07CD  04B7               	iorwf	___flmul@prod+3,f
  2047  07CE                     l1858:
  2048  07CE  0837               	movf	___flmul@prod+3,w
  2049  07CF  00A3               	movwf	?___flmul+3
  2050  07D0  0836               	movf	___flmul@prod+2,w
  2051  07D1  00A2               	movwf	?___flmul+2
  2052  07D2  0835               	movf	___flmul@prod+1,w
  2053  07D3  00A1               	movwf	?___flmul+1
  2054  07D4  0834               	movf	___flmul@prod,w
  2055  07D5  00A0               	movwf	?___flmul
  2056  07D6                     l605:
  2057  07D6  0008               	return
  2058  07D7                     __end_of___flmul:
  2059                           
  2060                           	psect	text2
  2061  0D16                     __ptext2:	
  2062 ;; *************** function __Umul8_16 *****************
  2063 ;; Defined at:
  2064 ;;		line 4 in file "/opt/microchip/xc8/v2.32/pic/sources/c90/common/Umul8_16.c"
  2065 ;; Parameters:    Size  Location     Type
  2066 ;;  multiplier      1    wreg     unsigned char 
  2067 ;;  multiplicand    1    0[COMMON] unsigned char 
  2068 ;; Auto vars:     Size  Location     Type
  2069 ;;  multiplier      1    8[COMMON] unsigned char 
  2070 ;;  word_mpld       2    6[COMMON] unsigned int 
  2071 ;;  product         2    4[COMMON] unsigned int 
  2072 ;; Return value:  Size  Location     Type
  2073 ;;                  2    0[COMMON] unsigned int 
  2074 ;; Registers used:
  2075 ;;		wreg, status,2, status,0
  2076 ;; Tracked objects:
  2077 ;;		On entry : 0/0
  2078 ;;		On exit  : 0/0
  2079 ;;		Unchanged: 0/0
  2080 ;; Data sizes:     COMMON   BANK0   BANK1   BANK3   BANK2
  2081 ;;      Params:         2       0       0       0       0
  2082 ;;      Locals:         5       0       0       0       0
  2083 ;;      Temps:          2       0       0       0       0
  2084 ;;      Totals:         9       0       0       0       0
  2085 ;;Total ram usage:        9 bytes
  2086 ;; Hardware stack levels used: 1
  2087 ;; This function calls:
  2088 ;;		Nothing
  2089 ;; This function is called by:
  2090 ;;		___flmul
  2091 ;; This function uses a non-reentrant model
  2092 ;;
  2093                           
  2094                           
  2095                           ;psect for function __Umul8_16
  2096  0D16                     __Umul8_16:
  2097                           
  2098                           ;incstack = 0
  2099                           ; Regs used in __Umul8_16: [wreg+status,2+status,0]
  2100                           ;__Umul8_16@multiplier stored from wreg
  2101  0D16  00F8               	movwf	__Umul8_16@multiplier
  2102  0D17                     l1590:
  2103  0D17  01F4               	clrf	__Umul8_16@product
  2104  0D18  01F5               	clrf	__Umul8_16@product+1
  2105  0D19                     l1592:
  2106  0D19  0870               	movf	__Umul8_16@multiplicand,w
  2107  0D1A  00F2               	movwf	??__Umul8_16
  2108  0D1B  01F3               	clrf	??__Umul8_16+1
  2109  0D1C  0872               	movf	??__Umul8_16,w
  2110  0D1D  00F6               	movwf	__Umul8_16@word_mpld
  2111  0D1E  0873               	movf	??__Umul8_16+1,w
  2112  0D1F  00F7               	movwf	__Umul8_16@word_mpld+1
  2113  0D20                     l1594:
  2114  0D20  1C78               	btfss	__Umul8_16@multiplier,0
  2115  0D21  2D23               	goto	u1951
  2116  0D22  2D24               	goto	u1950
  2117  0D23                     u1951:
  2118  0D23  2D2A               	goto	l624
  2119  0D24                     u1950:
  2120  0D24                     l1596:
  2121  0D24  0876               	movf	__Umul8_16@word_mpld,w
  2122  0D25  07F4               	addwf	__Umul8_16@product,f
  2123  0D26  1803               	skipnc
  2124  0D27  0AF5               	incf	__Umul8_16@product+1,f
  2125  0D28  0877               	movf	__Umul8_16@word_mpld+1,w
  2126  0D29  07F5               	addwf	__Umul8_16@product+1,f
  2127  0D2A                     l624:
  2128  0D2A  3001               	movlw	1
  2129  0D2B                     u1965:
  2130  0D2B  1003               	clrc
  2131  0D2C  0DF6               	rlf	__Umul8_16@word_mpld,f
  2132  0D2D  0DF7               	rlf	__Umul8_16@word_mpld+1,f
  2133  0D2E  3EFF               	addlw	-1
  2134  0D2F  1D03               	skipz
  2135  0D30  2D2B               	goto	u1965
  2136  0D31  1003               	clrc
  2137  0D32  0CF8               	rrf	__Umul8_16@multiplier,f
  2138  0D33                     l1598:
  2139  0D33  0878               	movf	__Umul8_16@multiplier,w
  2140  0D34  1D03               	btfss	3,2
  2141  0D35  2D37               	goto	u1971
  2142  0D36  2D38               	goto	u1970
  2143  0D37                     u1971:
  2144  0D37  2D20               	goto	l1594
  2145  0D38                     u1970:
  2146  0D38                     l1600:
  2147  0D38  0875               	movf	__Umul8_16@product+1,w
  2148  0D39  00F1               	movwf	?__Umul8_16+1
  2149  0D3A  0874               	movf	__Umul8_16@product,w
  2150  0D3B  00F0               	movwf	?__Umul8_16
  2151  0D3C                     l626:
  2152  0D3C  0008               	return
  2153  0D3D                     __end_of__Umul8_16:
  2154                           
  2155                           	psect	text3
  2156  0006                     __ptext3:	
  2157 ;; *************** function _Lcd_Write *****************
  2158 ;; Defined at:
  2159 ;;		line 121 in file "/media/user/software/simulide/tests/MCU/Test/16F88x/16F887_Vref/sources/lcd_sintaxe_mikroc.c"
  2160 ;; Parameters:    Size  Location     Type
  2161 ;;  row             1    wreg     unsigned char 
  2162 ;;  col             1    9[COMMON] unsigned char 
  2163 ;;  Dt_Str          2   10[COMMON] PTR unsigned char 
  2164 ;;		 -> STR_2(9), STR_1(9), main@texto(6), 
  2165 ;; Auto vars:     Size  Location     Type
  2166 ;;  row             1   13[COMMON] unsigned char 
  2167 ;; Return value:  Size  Location     Type
  2168 ;;                  1    wreg      void 
  2169 ;; Registers used:
  2170 ;;		wreg, fsr0l, fsr0h, status,2, status,0, btemp+1, pclath, cstack
  2171 ;; Tracked objects:
  2172 ;;		On entry : 0/0
  2173 ;;		On exit  : 0/0
  2174 ;;		Unchanged: 0/0
  2175 ;; Data sizes:     COMMON   BANK0   BANK1   BANK3   BANK2
  2176 ;;      Params:         3       0       0       0       0
  2177 ;;      Locals:         1       0       0       0       0
  2178 ;;      Temps:          1       0       0       0       0
  2179 ;;      Totals:         5       0       0       0       0
  2180 ;;Total ram usage:        5 bytes
  2181 ;; Hardware stack levels used: 1
  2182 ;; Hardware stack levels required when called: 3
  2183 ;; This function calls:
  2184 ;;		_Lcd_Goto
  2185 ;;		_Lcd_Print
  2186 ;; This function is called by:
  2187 ;;		_main
  2188 ;; This function uses a non-reentrant model
  2189 ;;
  2190                           
  2191                           
  2192                           ;psect for function _Lcd_Write
  2193  0006                     _Lcd_Write:
  2194                           
  2195                           ;incstack = 0
  2196                           ; Regs used in _Lcd_Write: [wreg-fsr0h+status,2+status,0+btemp+1+pclath+cstack]
  2197                           ;Lcd_Write@row stored from wreg
  2198  0006  00FD               	movwf	Lcd_Write@row
  2199  0007                     l1652:
  2200                           
  2201                           ;/media/user/software/simulide/tests/MCU/Test/16F88x/16F887_Vref/sources/lcd_sintaxe_mik
      +                          roc.c: 122:     Lcd_Goto(col, row);
  2202  0007  087D               	movf	Lcd_Write@row,w
  2203  0008  00FC               	movwf	??_Lcd_Write
  2204  0009  087C               	movf	??_Lcd_Write,w
  2205  000A  00F5               	movwf	Lcd_Goto@row
  2206  000B  0879               	movf	Lcd_Write@col,w
  2207  000C  120A  158A  256A  120A  118A  	fcall	_Lcd_Goto
  2208  0011                     l1654:
  2209                           
  2210                           ;/media/user/software/simulide/tests/MCU/Test/16F88x/16F887_Vref/sources/lcd_sintaxe_mik
      +                          roc.c: 123:     Lcd_Print(Dt_Str);
  2211  0011  087A               	movf	Lcd_Write@Dt_Str,w
  2212  0012  00F2               	movwf	Lcd_Print@Dt_Str
  2213  0013  087B               	movf	Lcd_Write@Dt_Str+1,w
  2214  0014  00F3               	movwf	Lcd_Print@Dt_Str+1
  2215  0015  120A  158A  25DA  120A  118A  	fcall	_Lcd_Print
  2216  001A                     l100:
  2217  001A  0008               	return
  2218  001B                     __end_of_Lcd_Write:
  2219                           
  2220                           	psect	text4
  2221  0DDA                     __ptext4:	
  2222 ;; *************** function _Lcd_Print *****************
  2223 ;; Defined at:
  2224 ;;		line 94 in file "/media/user/software/simulide/tests/MCU/Test/16F88x/16F887_Vref/sources/lcd_sintaxe_mikroc.c"
  2225 ;; Parameters:    Size  Location     Type
  2226 ;;  Dt_Str          2    2[COMMON] PTR unsigned char 
  2227 ;;		 -> STR_2(9), STR_1(9), main@texto(6), 
  2228 ;; Auto vars:     Size  Location     Type
  2229 ;;  i               1    5[COMMON] unsigned char 
  2230 ;; Return value:  Size  Location     Type
  2231 ;;                  1    wreg      void 
  2232 ;; Registers used:
  2233 ;;		wreg, fsr0l, fsr0h, status,2, status,0, btemp+1, pclath, cstack
  2234 ;; Tracked objects:
  2235 ;;		On entry : 0/0
  2236 ;;		On exit  : 0/0
  2237 ;;		Unchanged: 0/0
  2238 ;; Data sizes:     COMMON   BANK0   BANK1   BANK3   BANK2
  2239 ;;      Params:         2       0       0       0       0
  2240 ;;      Locals:         1       0       0       0       0
  2241 ;;      Temps:          1       0       0       0       0
  2242 ;;      Totals:         4       0       0       0       0
  2243 ;;Total ram usage:        4 bytes
  2244 ;; Hardware stack levels used: 1
  2245 ;; Hardware stack levels required when called: 1
  2246 ;; This function calls:
  2247 ;;		_Lcd_Write_Nibble
  2248 ;; This function is called by:
  2249 ;;		_Lcd_Write
  2250 ;;		_Lcd_Out
  2251 ;; This function uses a non-reentrant model
  2252 ;;
  2253                           
  2254                           
  2255                           ;psect for function _Lcd_Print
  2256  0DDA                     _Lcd_Print:
  2257  0DDA                     l1380:	
  2258                           ;incstack = 0
  2259                           ; Regs used in _Lcd_Print: [wreg-fsr0h+status,2+status,0+btemp+1+pclath+cstack]
  2260                           
  2261                           
  2262                           ;/media/user/software/simulide/tests/MCU/Test/16F88x/16F887_Vref/sources/lcd_sintaxe_mik
      +                          roc.c: 95:     uint8_t i = 0;
  2263  0DDA  01F5               	clrf	Lcd_Print@i
  2264  0DDB                     l1382:
  2265                           
  2266                           ;/media/user/software/simulide/tests/MCU/Test/16F88x/16F887_Vref/sources/lcd_sintaxe_mik
      +                          roc.c: 96:     RS = 1;
  2267  0DDB  1283               	bcf	3,5	;RP0=0, select bank0
  2268  0DDC  1303               	bcf	3,6	;RP1=0, select bank0
  2269  0DDD  146A               	bsf	_RS/(0+8),_RS& (0+7)
  2270                           
  2271                           ;/media/user/software/simulide/tests/MCU/Test/16F88x/16F887_Vref/sources/lcd_sintaxe_mik
      +                          roc.c: 97:     while (Dt_Str[i] != '\0') {
  2272  0DDE  2E0F               	goto	l1388
  2273  0DDF                     l1384:
  2274                           
  2275                           ;/media/user/software/simulide/tests/MCU/Test/16F88x/16F887_Vref/sources/lcd_sintaxe_mik
      +                          roc.c: 98:         Lcd_Write_Nibble(Dt_Str[i] >> 4);
  2276  0DDF  0875               	movf	Lcd_Print@i,w
  2277  0DE0  0772               	addwf	Lcd_Print@Dt_Str,w
  2278  0DE1  0084               	movwf	4
  2279  0DE2  0873               	movf	Lcd_Print@Dt_Str+1,w
  2280  0DE3  1803               	skipnc
  2281  0DE4  0A73               	incf	Lcd_Print@Dt_Str+1,w
  2282  0DE5  00FF               	movwf	btemp+1
  2283  0DE6  120A  158A  2000  120A  158A  	fcall	stringtab
  2284  0DEB  00F4               	movwf	??_Lcd_Print
  2285  0DEC  3004               	movlw	4
  2286  0DED                     u1485:
  2287  0DED  1003               	clrc
  2288  0DEE  0CF4               	rrf	??_Lcd_Print,f
  2289  0DEF  3EFF               	addlw	-1
  2290  0DF0  1D03               	skipz
  2291  0DF1  2DED               	goto	u1485
  2292  0DF2  0874               	movf	??_Lcd_Print,w
  2293  0DF3  120A  118A  201B  120A  158A  	fcall	_Lcd_Write_Nibble
  2294                           
  2295                           ;/media/user/software/simulide/tests/MCU/Test/16F88x/16F887_Vref/sources/lcd_sintaxe_mik
      +                          roc.c: 99:         Lcd_Write_Nibble(Dt_Str[i++]);
  2296  0DF8  0875               	movf	Lcd_Print@i,w
  2297  0DF9  0772               	addwf	Lcd_Print@Dt_Str,w
  2298  0DFA  0084               	movwf	4
  2299  0DFB  0873               	movf	Lcd_Print@Dt_Str+1,w
  2300  0DFC  1803               	skipnc
  2301  0DFD  0A73               	incf	Lcd_Print@Dt_Str+1,w
  2302  0DFE  1283               	bcf	3,5	;RP0=0, select bank0
  2303  0DFF  1303               	bcf	3,6	;RP1=0, select bank0
  2304  0E00  00FF               	movwf	btemp+1
  2305  0E01  120A  158A  2000  120A  158A  	fcall	stringtab
  2306  0E06  120A  118A  201B  120A  158A  	fcall	_Lcd_Write_Nibble
  2307  0E0B                     l1386:
  2308  0E0B  3001               	movlw	1
  2309  0E0C  00F4               	movwf	??_Lcd_Print
  2310  0E0D  0874               	movf	??_Lcd_Print,w
  2311  0E0E  07F5               	addwf	Lcd_Print@i,f
  2312  0E0F                     l1388:
  2313                           
  2314                           ;/media/user/software/simulide/tests/MCU/Test/16F88x/16F887_Vref/sources/lcd_sintaxe_mik
      +                          roc.c: 97:     while (Dt_Str[i] != '\0') {
  2315  0E0F  0875               	movf	Lcd_Print@i,w
  2316  0E10  0772               	addwf	Lcd_Print@Dt_Str,w
  2317  0E11  0084               	movwf	4
  2318  0E12  0873               	movf	Lcd_Print@Dt_Str+1,w
  2319  0E13  1803               	skipnc
  2320  0E14  0A73               	incf	Lcd_Print@Dt_Str+1,w
  2321  0E15  1283               	bcf	3,5	;RP0=0, select bank0
  2322  0E16  1303               	bcf	3,6	;RP1=0, select bank0
  2323  0E17  00FF               	movwf	btemp+1
  2324  0E18  120A  158A  2000  120A  158A  	fcall	stringtab
  2325  0E1D  3A00               	xorlw	0
  2326  0E1E  1D03               	skipz
  2327  0E1F  2E21               	goto	u1491
  2328  0E20  2E22               	goto	u1490
  2329  0E21                     u1491:
  2330  0E21  2DDF               	goto	l1384
  2331  0E22                     u1490:
  2332  0E22                     l85:
  2333  0E22  0008               	return
  2334  0E23                     __end_of_Lcd_Print:
  2335                           
  2336                           	psect	text5
  2337  0D6A                     __ptext5:	
  2338 ;; *************** function _Lcd_Goto *****************
  2339 ;; Defined at:
  2340 ;;		line 72 in file "/media/user/software/simulide/tests/MCU/Test/16F88x/16F887_Vref/sources/lcd_sintaxe_mikroc.c"
  2341 ;; Parameters:    Size  Location     Type
  2342 ;;  col             1    wreg     unsigned char 
  2343 ;;  row             1    5[COMMON] unsigned char 
  2344 ;; Auto vars:     Size  Location     Type
  2345 ;;  col             1    8[COMMON] unsigned char 
  2346 ;; Return value:  Size  Location     Type
  2347 ;;                  1    wreg      void 
  2348 ;; Registers used:
  2349 ;;		wreg, fsr0l, fsr0h, status,2, status,0, pclath, cstack
  2350 ;; Tracked objects:
  2351 ;;		On entry : 0/0
  2352 ;;		On exit  : 0/0
  2353 ;;		Unchanged: 0/0
  2354 ;; Data sizes:     COMMON   BANK0   BANK1   BANK3   BANK2
  2355 ;;      Params:         1       0       0       0       0
  2356 ;;      Locals:         1       0       0       0       0
  2357 ;;      Temps:          2       0       0       0       0
  2358 ;;      Totals:         4       0       0       0       0
  2359 ;;Total ram usage:        4 bytes
  2360 ;; Hardware stack levels used: 1
  2361 ;; Hardware stack levels required when called: 2
  2362 ;; This function calls:
  2363 ;;		_Lcd_Cmd
  2364 ;; This function is called by:
  2365 ;;		_Lcd_Write
  2366 ;;		_Lcd_Chr
  2367 ;;		_Lcd_Out
  2368 ;; This function uses a non-reentrant model
  2369 ;;
  2370                           
  2371                           
  2372                           ;psect for function _Lcd_Goto
  2373  0D6A                     _Lcd_Goto:
  2374                           
  2375                           ;incstack = 0
  2376                           ; Regs used in _Lcd_Goto: [wreg-fsr0h+status,2+status,0+pclath+cstack]
  2377                           ;Lcd_Goto@col stored from wreg
  2378  0D6A  00F8               	movwf	Lcd_Goto@col
  2379  0D6B                     l1364:
  2380                           
  2381                           ;/media/user/software/simulide/tests/MCU/Test/16F88x/16F887_Vref/sources/lcd_sintaxe_mik
      +                          roc.c: 73:     switch (row) {
  2382  0D6B  2D8C               	goto	l1374
  2383  0D6C                     l1366:
  2384                           
  2385                           ;/media/user/software/simulide/tests/MCU/Test/16F88x/16F887_Vref/sources/lcd_sintaxe_mik
      +                          roc.c: 75:         Lcd_Cmd(0xC0 + col - 1);
  2386  0D6C  0878               	movf	Lcd_Goto@col,w
  2387  0D6D  3EBF               	addlw	191
  2388  0D6E  120A  158A  253D  120A  158A  	fcall	_Lcd_Cmd
  2389                           
  2390                           ;/media/user/software/simulide/tests/MCU/Test/16F88x/16F887_Vref/sources/lcd_sintaxe_mik
      +                          roc.c: 76:         break;
  2391  0D73  2D9F               	goto	l76
  2392  0D74                     l1368:
  2393                           
  2394                           ;/media/user/software/simulide/tests/MCU/Test/16F88x/16F887_Vref/sources/lcd_sintaxe_mik
      +                          roc.c: 78:         Lcd_Cmd(0x94 + col - 1);
  2395  0D74  0878               	movf	Lcd_Goto@col,w
  2396  0D75  3E93               	addlw	147
  2397  0D76  120A  158A  253D  120A  158A  	fcall	_Lcd_Cmd
  2398                           
  2399                           ;/media/user/software/simulide/tests/MCU/Test/16F88x/16F887_Vref/sources/lcd_sintaxe_mik
      +                          roc.c: 79:         break;
  2400  0D7B  2D9F               	goto	l76
  2401  0D7C                     l1370:
  2402                           
  2403                           ;/media/user/software/simulide/tests/MCU/Test/16F88x/16F887_Vref/sources/lcd_sintaxe_mik
      +                          roc.c: 81:         Lcd_Cmd(0xD4 + col - 1);
  2404  0D7C  0878               	movf	Lcd_Goto@col,w
  2405  0D7D  3ED3               	addlw	211
  2406  0D7E  120A  158A  253D  120A  158A  	fcall	_Lcd_Cmd
  2407                           
  2408                           ;/media/user/software/simulide/tests/MCU/Test/16F88x/16F887_Vref/sources/lcd_sintaxe_mik
      +                          roc.c: 82:         break;
  2409  0D83  2D9F               	goto	l76
  2410  0D84                     l1372:
  2411                           
  2412                           ;/media/user/software/simulide/tests/MCU/Test/16F88x/16F887_Vref/sources/lcd_sintaxe_mik
      +                          roc.c: 84:         Lcd_Cmd(0x80 + col - 1);
  2413  0D84  0878               	movf	Lcd_Goto@col,w
  2414  0D85  3E7F               	addlw	127
  2415  0D86  120A  158A  253D  120A  158A  	fcall	_Lcd_Cmd
  2416                           
  2417                           ;/media/user/software/simulide/tests/MCU/Test/16F88x/16F887_Vref/sources/lcd_sintaxe_mik
      +                          roc.c: 85:     }
  2418  0D8B  2D9F               	goto	l76
  2419  0D8C                     l1374:
  2420  0D8C  0875               	movf	Lcd_Goto@row,w
  2421  0D8D  00F6               	movwf	??_Lcd_Goto
  2422  0D8E  01F7               	clrf	??_Lcd_Goto+1
  2423                           
  2424                           ; Switch on 2 bytes has been partitioned into a top level switch of size 1, and 1 sub-sw
      +                          itches
  2425                           ; Switch size 1, requested type "simple"
  2426                           ; Number of cases is 1, Range of values is 0 to 0
  2427                           ; switch strategies available:
  2428                           ; Name         Instructions Cycles
  2429                           ; simple_byte            4     3 (average)
  2430                           ; direct_byte           11     8 (fixed)
  2431                           ; jumptable            260     6 (fixed)
  2432                           ;	Chosen strategy is simple_byte
  2433  0D8F  0877               	movf	??_Lcd_Goto+1,w
  2434  0D90  3A00               	xorlw	0	; case 0
  2435  0D91  1903               	skipnz
  2436  0D92  2D94               	goto	l1954
  2437  0D93  2D84               	goto	l1372
  2438  0D94                     l1954:
  2439                           
  2440                           ; Switch size 1, requested type "simple"
  2441                           ; Number of cases is 3, Range of values is 2 to 4
  2442                           ; switch strategies available:
  2443                           ; Name         Instructions Cycles
  2444                           ; simple_byte           10     6 (average)
  2445                           ; direct_byte           20    11 (fixed)
  2446                           ; jumptable            263     9 (fixed)
  2447                           ;	Chosen strategy is simple_byte
  2448  0D94  0876               	movf	??_Lcd_Goto,w
  2449  0D95  3A02               	xorlw	2	; case 2
  2450  0D96  1903               	skipnz
  2451  0D97  2D6C               	goto	l1366
  2452  0D98  3A01               	xorlw	1	; case 3
  2453  0D99  1903               	skipnz
  2454  0D9A  2D74               	goto	l1368
  2455  0D9B  3A07               	xorlw	7	; case 4
  2456  0D9C  1903               	skipnz
  2457  0D9D  2D7C               	goto	l1370
  2458  0D9E  2D84               	goto	l1372
  2459  0D9F                     l76:
  2460  0D9F  0008               	return
  2461  0DA0                     __end_of_Lcd_Goto:
  2462                           
  2463                           	psect	text6
  2464  0E9F                     __ptext6:	
  2465 ;; *************** function _Lcd_Init *****************
  2466 ;; Defined at:
  2467 ;;		line 131 in file "/media/user/software/simulide/tests/MCU/Test/16F88x/16F887_Vref/sources/lcd_sintaxe_mikroc.c"
  2468 ;; Parameters:    Size  Location     Type
  2469 ;;		None
  2470 ;; Auto vars:     Size  Location     Type
  2471 ;;		None
  2472 ;; Return value:  Size  Location     Type
  2473 ;;                  1    wreg      void 
  2474 ;; Registers used:
  2475 ;;		wreg, status,2, status,0, pclath, cstack
  2476 ;; Tracked objects:
  2477 ;;		On entry : 0/0
  2478 ;;		On exit  : 0/0
  2479 ;;		Unchanged: 0/0
  2480 ;; Data sizes:     COMMON   BANK0   BANK1   BANK3   BANK2
  2481 ;;      Params:         0       0       0       0       0
  2482 ;;      Locals:         0       0       0       0       0
  2483 ;;      Temps:          3       0       0       0       0
  2484 ;;      Totals:         3       0       0       0       0
  2485 ;;Total ram usage:        3 bytes
  2486 ;; Hardware stack levels used: 1
  2487 ;; Hardware stack levels required when called: 2
  2488 ;; This function calls:
  2489 ;;		_Lcd_Cmd
  2490 ;; This function is called by:
  2491 ;;		_main
  2492 ;; This function uses a non-reentrant model
  2493 ;;
  2494                           
  2495                           
  2496                           ;psect for function _Lcd_Init
  2497  0E9F                     _Lcd_Init:
  2498  0E9F                     l1656:	
  2499                           ;incstack = 0
  2500                           ; Regs used in _Lcd_Init: [wreg+status,2+status,0+pclath+cstack]
  2501                           
  2502                           
  2503                           ;/media/user/software/simulide/tests/MCU/Test/16F88x/16F887_Vref/sources/lcd_sintaxe_mik
      +                          roc.c: 132:     RS = 0;
  2504  0E9F  1283               	bcf	3,5	;RP0=0, select bank0
  2505  0EA0  1303               	bcf	3,6	;RP1=0, select bank0
  2506  0EA1  106A               	bcf	_RS/(0+8),_RS& (0+7)
  2507                           
  2508                           ;/media/user/software/simulide/tests/MCU/Test/16F88x/16F887_Vref/sources/lcd_sintaxe_mik
      +                          roc.c: 134:     RD2 = 0;
  2509  0EA2  1108               	bcf	8,2	;volatile
  2510                           
  2511                           ;/media/user/software/simulide/tests/MCU/Test/16F88x/16F887_Vref/sources/lcd_sintaxe_mik
      +                          roc.c: 135:     RD3 = 0;
  2512  0EA3  1188               	bcf	8,3	;volatile
  2513                           
  2514                           ;/media/user/software/simulide/tests/MCU/Test/16F88x/16F887_Vref/sources/lcd_sintaxe_mik
      +                          roc.c: 136:     RD4 = 0;
  2515  0EA4  1208               	bcf	8,4	;volatile
  2516                           
  2517                           ;/media/user/software/simulide/tests/MCU/Test/16F88x/16F887_Vref/sources/lcd_sintaxe_mik
      +                          roc.c: 137:     RD5 = 0;
  2518  0EA5  1288               	bcf	8,5	;volatile
  2519                           
  2520                           ;/media/user/software/simulide/tests/MCU/Test/16F88x/16F887_Vref/sources/lcd_sintaxe_mik
      +                          roc.c: 138:     RD6 = 0;
  2521  0EA6  1308               	bcf	8,6	;volatile
  2522                           
  2523                           ;/media/user/software/simulide/tests/MCU/Test/16F88x/16F887_Vref/sources/lcd_sintaxe_mik
      +                          roc.c: 139:     RD7 = 0;
  2524  0EA7  1388               	bcf	8,7	;volatile
  2525                           
  2526                           ;/media/user/software/simulide/tests/MCU/Test/16F88x/16F887_Vref/sources/lcd_sintaxe_mik
      +                          roc.c: 140:     TRISD2 = 0;
  2527  0EA8  1683               	bsf	3,5	;RP0=1, select bank1
  2528  0EA9  1303               	bcf	3,6	;RP1=0, select bank1
  2529  0EAA  1108               	bcf	8,2	;volatile
  2530                           
  2531                           ;/media/user/software/simulide/tests/MCU/Test/16F88x/16F887_Vref/sources/lcd_sintaxe_mik
      +                          roc.c: 141:     TRISD3 = 0;
  2532  0EAB  1188               	bcf	8,3	;volatile
  2533                           
  2534                           ;/media/user/software/simulide/tests/MCU/Test/16F88x/16F887_Vref/sources/lcd_sintaxe_mik
      +                          roc.c: 142:     TRISD4 = 0;
  2535  0EAC  1208               	bcf	8,4	;volatile
  2536                           
  2537                           ;/media/user/software/simulide/tests/MCU/Test/16F88x/16F887_Vref/sources/lcd_sintaxe_mik
      +                          roc.c: 143:     TRISD5 = 0;
  2538  0EAD  1288               	bcf	8,5	;volatile
  2539                           
  2540                           ;/media/user/software/simulide/tests/MCU/Test/16F88x/16F887_Vref/sources/lcd_sintaxe_mik
      +                          roc.c: 144:     TRISD6 = 0;
  2541  0EAE  1308               	bcf	8,6	;volatile
  2542                           
  2543                           ;/media/user/software/simulide/tests/MCU/Test/16F88x/16F887_Vref/sources/lcd_sintaxe_mik
      +                          roc.c: 145:     TRISD7 = 0;
  2544  0EAF  1388               	bcf	8,7	;volatile
  2545  0EB0                     l1658:
  2546                           
  2547                           ;/media/user/software/simulide/tests/MCU/Test/16F88x/16F887_Vref/sources/lcd_sintaxe_mik
      +                          roc.c: 147:     _delay((unsigned long)((40)*(20000000UL/4000.0)));
  2548  0EB0  3002               	movlw	2
  2549  0EB1  00F7               	movwf	??_Lcd_Init+2
  2550  0EB2  3004               	movlw	4
  2551  0EB3  00F6               	movwf	??_Lcd_Init+1
  2552  0EB4  30BA               	movlw	186
  2553  0EB5  00F5               	movwf	??_Lcd_Init
  2554  0EB6                     u2657:
  2555  0EB6  0BF5               	decfsz	??_Lcd_Init,f
  2556  0EB7  2EB6               	goto	u2657
  2557  0EB8  0BF6               	decfsz	??_Lcd_Init+1,f
  2558  0EB9  2EB6               	goto	u2657
  2559  0EBA  0BF7               	decfsz	??_Lcd_Init+2,f
  2560  0EBB  2EB6               	goto	u2657
  2561  0EBC  0000               	nop
  2562  0EBD                     l1660:
  2563                           
  2564                           ;/media/user/software/simulide/tests/MCU/Test/16F88x/16F887_Vref/sources/lcd_sintaxe_mik
      +                          roc.c: 148:     Lcd_Cmd(3);
  2565  0EBD  3003               	movlw	3
  2566  0EBE  120A  158A  253D  120A  158A  	fcall	_Lcd_Cmd
  2567  0EC3                     l1662:
  2568                           
  2569                           ;/media/user/software/simulide/tests/MCU/Test/16F88x/16F887_Vref/sources/lcd_sintaxe_mik
      +                          roc.c: 149:     _delay((unsigned long)((5)*(20000000UL/4000.0)));
  2570  0EC3  3021               	movlw	33
  2571  0EC4  00F6               	movwf	??_Lcd_Init+1
  2572  0EC5  3076               	movlw	118
  2573  0EC6  00F5               	movwf	??_Lcd_Init
  2574  0EC7                     u2667:
  2575  0EC7  0BF5               	decfsz	??_Lcd_Init,f
  2576  0EC8  2EC7               	goto	u2667
  2577  0EC9  0BF6               	decfsz	??_Lcd_Init+1,f
  2578  0ECA  2EC7               	goto	u2667
  2579  0ECB  0000               	nop
  2580                           
  2581                           ;/media/user/software/simulide/tests/MCU/Test/16F88x/16F887_Vref/sources/lcd_sintaxe_mik
      +                          roc.c: 150:     Lcd_Cmd(3);
  2582  0ECC  3003               	movlw	3
  2583  0ECD  120A  158A  253D  120A  158A  	fcall	_Lcd_Cmd
  2584  0ED2                     l1664:
  2585                           
  2586                           ;/media/user/software/simulide/tests/MCU/Test/16F88x/16F887_Vref/sources/lcd_sintaxe_mik
      +                          roc.c: 151:     _delay((unsigned long)((5)*(20000000UL/4000.0)));
  2587  0ED2  3021               	movlw	33
  2588  0ED3  00F6               	movwf	??_Lcd_Init+1
  2589  0ED4  3076               	movlw	118
  2590  0ED5  00F5               	movwf	??_Lcd_Init
  2591  0ED6                     u2677:
  2592  0ED6  0BF5               	decfsz	??_Lcd_Init,f
  2593  0ED7  2ED6               	goto	u2677
  2594  0ED8  0BF6               	decfsz	??_Lcd_Init+1,f
  2595  0ED9  2ED6               	goto	u2677
  2596  0EDA  0000               	nop
  2597  0EDB                     l1666:
  2598                           
  2599                           ;/media/user/software/simulide/tests/MCU/Test/16F88x/16F887_Vref/sources/lcd_sintaxe_mik
      +                          roc.c: 152:     Lcd_Cmd(3);
  2600  0EDB  3003               	movlw	3
  2601  0EDC  120A  158A  253D  120A  158A  	fcall	_Lcd_Cmd
  2602                           
  2603                           ;/media/user/software/simulide/tests/MCU/Test/16F88x/16F887_Vref/sources/lcd_sintaxe_mik
      +                          roc.c: 153:     _delay((unsigned long)((5)*(20000000UL/4000.0)));
  2604  0EE1  3021               	movlw	33
  2605  0EE2  00F6               	movwf	??_Lcd_Init+1
  2606  0EE3  3076               	movlw	118
  2607  0EE4  00F5               	movwf	??_Lcd_Init
  2608  0EE5                     u2687:
  2609  0EE5  0BF5               	decfsz	??_Lcd_Init,f
  2610  0EE6  2EE5               	goto	u2687
  2611  0EE7  0BF6               	decfsz	??_Lcd_Init+1,f
  2612  0EE8  2EE5               	goto	u2687
  2613  0EE9  0000               	nop
  2614  0EEA                     l1668:
  2615                           
  2616                           ;/media/user/software/simulide/tests/MCU/Test/16F88x/16F887_Vref/sources/lcd_sintaxe_mik
      +                          roc.c: 154:     Lcd_Cmd(0x02);
  2617  0EEA  3002               	movlw	2
  2618  0EEB  120A  158A  253D  120A  158A  	fcall	_Lcd_Cmd
  2619  0EF0                     l1670:
  2620                           
  2621                           ;/media/user/software/simulide/tests/MCU/Test/16F88x/16F887_Vref/sources/lcd_sintaxe_mik
      +                          roc.c: 155:     _delay((unsigned long)((5)*(20000000UL/4000.0)));
  2622  0EF0  3021               	movlw	33
  2623  0EF1  00F6               	movwf	??_Lcd_Init+1
  2624  0EF2  3076               	movlw	118
  2625  0EF3  00F5               	movwf	??_Lcd_Init
  2626  0EF4                     u2697:
  2627  0EF4  0BF5               	decfsz	??_Lcd_Init,f
  2628  0EF5  2EF4               	goto	u2697
  2629  0EF6  0BF6               	decfsz	??_Lcd_Init+1,f
  2630  0EF7  2EF4               	goto	u2697
  2631  0EF8  0000               	nop
  2632                           
  2633                           ;/media/user/software/simulide/tests/MCU/Test/16F88x/16F887_Vref/sources/lcd_sintaxe_mik
      +                          roc.c: 156:     Lcd_Cmd(0x20 | (2 << 2));
  2634  0EF9  3028               	movlw	40
  2635  0EFA  120A  158A  253D  120A  158A  	fcall	_Lcd_Cmd
  2636  0EFF                     l1672:
  2637                           
  2638                           ;/media/user/software/simulide/tests/MCU/Test/16F88x/16F887_Vref/sources/lcd_sintaxe_mik
      +                          roc.c: 157:     _delay((unsigned long)((50)*(20000000UL/4000.0)));
  2639  0EFF  3002               	movlw	2
  2640  0F00  00F7               	movwf	??_Lcd_Init+2
  2641  0F01  3045               	movlw	69
  2642  0F02  00F6               	movwf	??_Lcd_Init+1
  2643  0F03  30A9               	movlw	169
  2644  0F04  00F5               	movwf	??_Lcd_Init
  2645  0F05                     u2707:
  2646  0F05  0BF5               	decfsz	??_Lcd_Init,f
  2647  0F06  2F05               	goto	u2707
  2648  0F07  0BF6               	decfsz	??_Lcd_Init+1,f
  2649  0F08  2F05               	goto	u2707
  2650  0F09  0BF7               	decfsz	??_Lcd_Init+2,f
  2651  0F0A  2F05               	goto	u2707
  2652  0F0B  2F0C               	nop2
  2653  0F0C                     l1674:
  2654                           
  2655                           ;/media/user/software/simulide/tests/MCU/Test/16F88x/16F887_Vref/sources/lcd_sintaxe_mik
      +                          roc.c: 158:     Lcd_Cmd(0x0C);
  2656  0F0C  300C               	movlw	12
  2657  0F0D  120A  158A  253D  120A  158A  	fcall	_Lcd_Cmd
  2658                           
  2659                           ;/media/user/software/simulide/tests/MCU/Test/16F88x/16F887_Vref/sources/lcd_sintaxe_mik
      +                          roc.c: 159:     _delay((unsigned long)((50)*(20000000UL/4000.0)));
  2660  0F12  3002               	movlw	2
  2661  0F13  00F7               	movwf	??_Lcd_Init+2
  2662  0F14  3045               	movlw	69
  2663  0F15  00F6               	movwf	??_Lcd_Init+1
  2664  0F16  30A9               	movlw	169
  2665  0F17  00F5               	movwf	??_Lcd_Init
  2666  0F18                     u2717:
  2667  0F18  0BF5               	decfsz	??_Lcd_Init,f
  2668  0F19  2F18               	goto	u2717
  2669  0F1A  0BF6               	decfsz	??_Lcd_Init+1,f
  2670  0F1B  2F18               	goto	u2717
  2671  0F1C  0BF7               	decfsz	??_Lcd_Init+2,f
  2672  0F1D  2F18               	goto	u2717
  2673  0F1E  2F1F               	nop2
  2674  0F1F                     l1676:
  2675                           
  2676                           ;/media/user/software/simulide/tests/MCU/Test/16F88x/16F887_Vref/sources/lcd_sintaxe_mik
      +                          roc.c: 160:     Lcd_Cmd(0x01);
  2677  0F1F  3001               	movlw	1
  2678  0F20  120A  158A  253D  120A  158A  	fcall	_Lcd_Cmd
  2679  0F25                     l1678:
  2680                           
  2681                           ;/media/user/software/simulide/tests/MCU/Test/16F88x/16F887_Vref/sources/lcd_sintaxe_mik
      +                          roc.c: 161:     _delay((unsigned long)((50)*(20000000UL/4000.0)));
  2682  0F25  3002               	movlw	2
  2683  0F26  00F7               	movwf	??_Lcd_Init+2
  2684  0F27  3045               	movlw	69
  2685  0F28  00F6               	movwf	??_Lcd_Init+1
  2686  0F29  30A9               	movlw	169
  2687  0F2A  00F5               	movwf	??_Lcd_Init
  2688  0F2B                     u2727:
  2689  0F2B  0BF5               	decfsz	??_Lcd_Init,f
  2690  0F2C  2F2B               	goto	u2727
  2691  0F2D  0BF6               	decfsz	??_Lcd_Init+1,f
  2692  0F2E  2F2B               	goto	u2727
  2693  0F2F  0BF7               	decfsz	??_Lcd_Init+2,f
  2694  0F30  2F2B               	goto	u2727
  2695  0F31  2F32               	nop2
  2696                           
  2697                           ;/media/user/software/simulide/tests/MCU/Test/16F88x/16F887_Vref/sources/lcd_sintaxe_mik
      +                          roc.c: 162:     Lcd_Cmd(0x04 | 0x02);
  2698  0F32  3006               	movlw	6
  2699  0F33  120A  158A  253D  120A  158A  	fcall	_Lcd_Cmd
  2700  0F38                     l1680:
  2701                           
  2702                           ;/media/user/software/simulide/tests/MCU/Test/16F88x/16F887_Vref/sources/lcd_sintaxe_mik
      +                          roc.c: 163:     _delay((unsigned long)((50)*(20000000UL/4000.0)));
  2703  0F38  3002               	movlw	2
  2704  0F39  00F7               	movwf	??_Lcd_Init+2
  2705  0F3A  3045               	movlw	69
  2706  0F3B  00F6               	movwf	??_Lcd_Init+1
  2707  0F3C  30A9               	movlw	169
  2708  0F3D  00F5               	movwf	??_Lcd_Init
  2709  0F3E                     u2737:
  2710  0F3E  0BF5               	decfsz	??_Lcd_Init,f
  2711  0F3F  2F3E               	goto	u2737
  2712  0F40  0BF6               	decfsz	??_Lcd_Init+1,f
  2713  0F41  2F3E               	goto	u2737
  2714  0F42  0BF7               	decfsz	??_Lcd_Init+2,f
  2715  0F43  2F3E               	goto	u2737
  2716  0F44  2F45               	nop2
  2717  0F45                     l106:
  2718  0F45  0008               	return
  2719  0F46                     __end_of_Lcd_Init:
  2720                           
  2721                           	psect	text7
  2722  0D3D                     __ptext7:	
  2723 ;; *************** function _Lcd_Cmd *****************
  2724 ;; Defined at:
  2725 ;;		line 64 in file "/media/user/software/simulide/tests/MCU/Test/16F88x/16F887_Vref/sources/lcd_sintaxe_mikroc.c"
  2726 ;; Parameters:    Size  Location     Type
  2727 ;;  Command         1    wreg     unsigned char 
  2728 ;; Auto vars:     Size  Location     Type
  2729 ;;  Command         1    4[COMMON] unsigned char 
  2730 ;; Return value:  Size  Location     Type
  2731 ;;                  1    wreg      void 
  2732 ;; Registers used:
  2733 ;;		wreg, status,2, status,0, pclath, cstack
  2734 ;; Tracked objects:
  2735 ;;		On entry : 0/0
  2736 ;;		On exit  : 0/0
  2737 ;;		Unchanged: 0/0
  2738 ;; Data sizes:     COMMON   BANK0   BANK1   BANK3   BANK2
  2739 ;;      Params:         0       0       0       0       0
  2740 ;;      Locals:         1       0       0       0       0
  2741 ;;      Temps:          2       0       0       0       0
  2742 ;;      Totals:         3       0       0       0       0
  2743 ;;Total ram usage:        3 bytes
  2744 ;; Hardware stack levels used: 1
  2745 ;; Hardware stack levels required when called: 1
  2746 ;; This function calls:
  2747 ;;		_Lcd_Write_Nibble
  2748 ;; This function is called by:
  2749 ;;		_Lcd_Goto
  2750 ;;		_Lcd_Init
  2751 ;; This function uses a non-reentrant model
  2752 ;;
  2753                           
  2754                           
  2755                           ;psect for function _Lcd_Cmd
  2756  0D3D                     _Lcd_Cmd:
  2757                           
  2758                           ;incstack = 0
  2759                           ; Regs used in _Lcd_Cmd: [wreg+status,2+status,0+pclath+cstack]
  2760                           ;Lcd_Cmd@Command stored from wreg
  2761  0D3D  00F4               	movwf	Lcd_Cmd@Command
  2762  0D3E                     l1354:
  2763                           
  2764                           ;/media/user/software/simulide/tests/MCU/Test/16F88x/16F887_Vref/sources/lcd_sintaxe_mik
      +                          roc.c: 65:     RS = 0;
  2765  0D3E  1283               	bcf	3,5	;RP0=0, select bank0
  2766  0D3F  1303               	bcf	3,6	;RP1=0, select bank0
  2767  0D40  106A               	bcf	_RS/(0+8),_RS& (0+7)
  2768  0D41                     l1356:
  2769                           
  2770                           ;/media/user/software/simulide/tests/MCU/Test/16F88x/16F887_Vref/sources/lcd_sintaxe_mik
      +                          roc.c: 66:     Lcd_Write_Nibble(Command >> 4);
  2771  0D41  0874               	movf	Lcd_Cmd@Command,w
  2772  0D42  00F2               	movwf	??_Lcd_Cmd
  2773  0D43  3004               	movlw	4
  2774  0D44                     u1455:
  2775  0D44  1003               	clrc
  2776  0D45  0CF2               	rrf	??_Lcd_Cmd,f
  2777  0D46  3EFF               	addlw	-1
  2778  0D47  1D03               	skipz
  2779  0D48  2D44               	goto	u1455
  2780  0D49  0872               	movf	??_Lcd_Cmd,w
  2781  0D4A  120A  118A  201B  120A  158A  	fcall	_Lcd_Write_Nibble
  2782                           
  2783                           ;/media/user/software/simulide/tests/MCU/Test/16F88x/16F887_Vref/sources/lcd_sintaxe_mik
      +                          roc.c: 67:     Lcd_Write_Nibble(Command);
  2784  0D4F  0874               	movf	Lcd_Cmd@Command,w
  2785  0D50  120A  118A  201B  120A  158A  	fcall	_Lcd_Write_Nibble
  2786  0D55                     l1358:
  2787                           
  2788                           ;/media/user/software/simulide/tests/MCU/Test/16F88x/16F887_Vref/sources/lcd_sintaxe_mik
      +                          roc.c: 68:     if ((Command == 0x01) || (Command == 0x02))
  2789  0D55  0374               	decf	Lcd_Cmd@Command,w
  2790  0D56  1903               	btfsc	3,2
  2791  0D57  2D59               	goto	u1461
  2792  0D58  2D5A               	goto	u1460
  2793  0D59                     u1461:
  2794  0D59  2D60               	goto	l1362
  2795  0D5A                     u1460:
  2796  0D5A                     l1360:
  2797  0D5A  3002               	movlw	2
  2798  0D5B  0674               	xorwf	Lcd_Cmd@Command,w
  2799  0D5C  1D03               	btfss	3,2
  2800  0D5D  2D5F               	goto	u1471
  2801  0D5E  2D60               	goto	u1470
  2802  0D5F                     u1471:
  2803  0D5F  2D69               	goto	l67
  2804  0D60                     u1470:
  2805  0D60                     l1362:
  2806                           
  2807                           ;/media/user/software/simulide/tests/MCU/Test/16F88x/16F887_Vref/sources/lcd_sintaxe_mik
      +                          roc.c: 69:         _delay((unsigned long)((2)*(20000000UL/4000.0)));
  2808  0D60  300D               	movlw	13
  2809  0D61  00F3               	movwf	??_Lcd_Cmd+1
  2810  0D62  30FB               	movlw	251
  2811  0D63  00F2               	movwf	??_Lcd_Cmd
  2812  0D64                     u2747:
  2813  0D64  0BF2               	decfsz	??_Lcd_Cmd,f
  2814  0D65  2D64               	goto	u2747
  2815  0D66  0BF3               	decfsz	??_Lcd_Cmd+1,f
  2816  0D67  2D64               	goto	u2747
  2817  0D68  2D69               	nop2
  2818  0D69                     l67:
  2819  0D69  0008               	return
  2820  0D6A                     __end_of_Lcd_Cmd:
  2821                           
  2822                           	psect	text8
  2823  001B                     __ptext8:	
  2824 ;; *************** function _Lcd_Write_Nibble *****************
  2825 ;; Defined at:
  2826 ;;		line 48 in file "/media/user/software/simulide/tests/MCU/Test/16F88x/16F887_Vref/sources/lcd_sintaxe_mikroc.c"
  2827 ;; Parameters:    Size  Location     Type
  2828 ;;  n               1    wreg     unsigned char 
  2829 ;; Auto vars:     Size  Location     Type
  2830 ;;  n               1    1[COMMON] unsigned char 
  2831 ;; Return value:  Size  Location     Type
  2832 ;;                  1    wreg      void 
  2833 ;; Registers used:
  2834 ;;		wreg, status,2, status,0
  2835 ;; Tracked objects:
  2836 ;;		On entry : 0/0
  2837 ;;		On exit  : 0/0
  2838 ;;		Unchanged: 0/0
  2839 ;; Data sizes:     COMMON   BANK0   BANK1   BANK3   BANK2
  2840 ;;      Params:         0       0       0       0       0
  2841 ;;      Locals:         1       0       0       0       0
  2842 ;;      Temps:          1       0       0       0       0
  2843 ;;      Totals:         2       0       0       0       0
  2844 ;;Total ram usage:        2 bytes
  2845 ;; Hardware stack levels used: 1
  2846 ;; This function calls:
  2847 ;;		Nothing
  2848 ;; This function is called by:
  2849 ;;		_Lcd_Cmd
  2850 ;;		_Lcd_Print
  2851 ;;		_Lcd_PutC
  2852 ;;		_Lcd_Println
  2853 ;; This function uses a non-reentrant model
  2854 ;;
  2855                           
  2856                           
  2857                           ;psect for function _Lcd_Write_Nibble
  2858  001B                     _Lcd_Write_Nibble:
  2859                           
  2860                           ;incstack = 0
  2861                           ; Regs used in _Lcd_Write_Nibble: [wreg+status,2+status,0]
  2862                           ;Lcd_Write_Nibble@n stored from wreg
  2863  001B  00F1               	movwf	Lcd_Write_Nibble@n
  2864  001C                     l1338:
  2865                           
  2866                           ;/media/user/software/simulide/tests/MCU/Test/16F88x/16F887_Vref/sources/lcd_sintaxe_mik
      +                          roc.c: 49:     RD2 = RS;
  2867  001C  1283               	bcf	3,5	;RP0=0, select bank0
  2868  001D  1303               	bcf	3,6	;RP1=0, select bank0
  2869  001E  186A               	btfsc	_RS/(0+8),_RS& (0+7)
  2870  001F  2821               	goto	u1321
  2871  0020  2825               	goto	u1320
  2872  0021                     u1321:
  2873  0021  1283               	bcf	3,5	;RP0=0, select bank0
  2874  0022  1303               	bcf	3,6	;RP1=0, select bank0
  2875  0023  1508               	bsf	8,2	;volatile
  2876  0024  2828               	goto	u1334
  2877  0025                     u1320:
  2878  0025  1283               	bcf	3,5	;RP0=0, select bank0
  2879  0026  1303               	bcf	3,6	;RP1=0, select bank0
  2880  0027  1108               	bcf	8,2	;volatile
  2881  0028                     u1334:
  2882                           
  2883                           ;/media/user/software/simulide/tests/MCU/Test/16F88x/16F887_Vref/sources/lcd_sintaxe_mik
      +                          roc.c: 50:     RD4 = n & 0x01;
  2884  0028  1871               	btfsc	Lcd_Write_Nibble@n,0
  2885  0029  282B               	goto	u1341
  2886  002A  282F               	goto	u1340
  2887  002B                     u1341:
  2888  002B  1283               	bcf	3,5	;RP0=0, select bank0
  2889  002C  1303               	bcf	3,6	;RP1=0, select bank0
  2890  002D  1608               	bsf	8,4	;volatile
  2891  002E  2832               	goto	u1354
  2892  002F                     u1340:
  2893  002F  1283               	bcf	3,5	;RP0=0, select bank0
  2894  0030  1303               	bcf	3,6	;RP1=0, select bank0
  2895  0031  1208               	bcf	8,4	;volatile
  2896  0032                     u1354:
  2897  0032                     l1340:
  2898                           
  2899                           ;/media/user/software/simulide/tests/MCU/Test/16F88x/16F887_Vref/sources/lcd_sintaxe_mik
      +                          roc.c: 51:     RD5 = (n >> 1) & 0x01;
  2900  0032  0871               	movf	Lcd_Write_Nibble@n,w
  2901  0033  00F0               	movwf	??_Lcd_Write_Nibble
  2902  0034  3001               	movlw	1
  2903  0035                     u1365:
  2904  0035  1003               	clrc
  2905  0036  0CF0               	rrf	??_Lcd_Write_Nibble,f
  2906  0037  3EFF               	addlw	-1
  2907  0038  1D03               	skipz
  2908  0039  2835               	goto	u1365
  2909  003A  1870               	btfsc	??_Lcd_Write_Nibble,0
  2910  003B  283D               	goto	u1371
  2911  003C  2841               	goto	u1370
  2912  003D                     u1371:
  2913  003D  1283               	bcf	3,5	;RP0=0, select bank0
  2914  003E  1303               	bcf	3,6	;RP1=0, select bank0
  2915  003F  1688               	bsf	8,5	;volatile
  2916  0040  2844               	goto	u1384
  2917  0041                     u1370:
  2918  0041  1283               	bcf	3,5	;RP0=0, select bank0
  2919  0042  1303               	bcf	3,6	;RP1=0, select bank0
  2920  0043  1288               	bcf	8,5	;volatile
  2921  0044                     u1384:
  2922                           
  2923                           ;/media/user/software/simulide/tests/MCU/Test/16F88x/16F887_Vref/sources/lcd_sintaxe_mik
      +                          roc.c: 52:     RD6 = (n >> 2) & 0x01;
  2924  0044  0871               	movf	Lcd_Write_Nibble@n,w
  2925  0045  00F0               	movwf	??_Lcd_Write_Nibble
  2926  0046  3002               	movlw	2
  2927  0047                     u1395:
  2928  0047  1003               	clrc
  2929  0048  0CF0               	rrf	??_Lcd_Write_Nibble,f
  2930  0049  3EFF               	addlw	-1
  2931  004A  1D03               	skipz
  2932  004B  2847               	goto	u1395
  2933  004C  1870               	btfsc	??_Lcd_Write_Nibble,0
  2934  004D  284F               	goto	u1401
  2935  004E  2853               	goto	u1400
  2936  004F                     u1401:
  2937  004F  1283               	bcf	3,5	;RP0=0, select bank0
  2938  0050  1303               	bcf	3,6	;RP1=0, select bank0
  2939  0051  1708               	bsf	8,6	;volatile
  2940  0052  2856               	goto	u1414
  2941  0053                     u1400:
  2942  0053  1283               	bcf	3,5	;RP0=0, select bank0
  2943  0054  1303               	bcf	3,6	;RP1=0, select bank0
  2944  0055  1308               	bcf	8,6	;volatile
  2945  0056                     u1414:
  2946                           
  2947                           ;/media/user/software/simulide/tests/MCU/Test/16F88x/16F887_Vref/sources/lcd_sintaxe_mik
      +                          roc.c: 53:     RD7 = (n >> 3) & 0x01;
  2948  0056  0871               	movf	Lcd_Write_Nibble@n,w
  2949  0057  00F0               	movwf	??_Lcd_Write_Nibble
  2950  0058  3003               	movlw	3
  2951  0059                     u1425:
  2952  0059  1003               	clrc
  2953  005A  0CF0               	rrf	??_Lcd_Write_Nibble,f
  2954  005B  3EFF               	addlw	-1
  2955  005C  1D03               	skipz
  2956  005D  2859               	goto	u1425
  2957  005E  1870               	btfsc	??_Lcd_Write_Nibble,0
  2958  005F  2861               	goto	u1431
  2959  0060  2865               	goto	u1430
  2960  0061                     u1431:
  2961  0061  1283               	bcf	3,5	;RP0=0, select bank0
  2962  0062  1303               	bcf	3,6	;RP1=0, select bank0
  2963  0063  1788               	bsf	8,7	;volatile
  2964  0064  2868               	goto	u1444
  2965  0065                     u1430:
  2966  0065  1283               	bcf	3,5	;RP0=0, select bank0
  2967  0066  1303               	bcf	3,6	;RP1=0, select bank0
  2968  0067  1388               	bcf	8,7	;volatile
  2969  0068                     u1444:
  2970  0068                     l1342:
  2971                           
  2972                           ;/media/user/software/simulide/tests/MCU/Test/16F88x/16F887_Vref/sources/lcd_sintaxe_mik
      +                          roc.c: 56:     RD3 = 0;
  2973  0068  1188               	bcf	8,3	;volatile
  2974  0069                     l1344:
  2975                           
  2976                           ;/media/user/software/simulide/tests/MCU/Test/16F88x/16F887_Vref/sources/lcd_sintaxe_mik
      +                          roc.c: 57:     _delay((unsigned long)((1)*(20000000UL/4000000.0)));
  2977  0069  286A               	nop2	;2 cycle nop
  2978  006A  286B               	nop2	;2 cycle nop
  2979  006B  0000               	nop
  2980  006C                     l1346:
  2981                           
  2982                           ;/media/user/software/simulide/tests/MCU/Test/16F88x/16F887_Vref/sources/lcd_sintaxe_mik
      +                          roc.c: 58:     RD3 = 1;
  2983  006C  1283               	bcf	3,5	;RP0=0, select bank0
  2984  006D  1303               	bcf	3,6	;RP1=0, select bank0
  2985  006E  1588               	bsf	8,3	;volatile
  2986  006F                     l1348:
  2987                           
  2988                           ;/media/user/software/simulide/tests/MCU/Test/16F88x/16F887_Vref/sources/lcd_sintaxe_mik
      +                          roc.c: 59:     _delay((unsigned long)((1)*(20000000UL/4000000.0)));
  2989  006F  2870               	nop2	;2 cycle nop
  2990  0070  2871               	nop2	;2 cycle nop
  2991  0071  0000               	nop
  2992  0072                     l1350:
  2993                           
  2994                           ;/media/user/software/simulide/tests/MCU/Test/16F88x/16F887_Vref/sources/lcd_sintaxe_mik
      +                          roc.c: 60:     RD3 = 0;
  2995  0072  1283               	bcf	3,5	;RP0=0, select bank0
  2996  0073  1303               	bcf	3,6	;RP1=0, select bank0
  2997  0074  1188               	bcf	8,3	;volatile
  2998  0075                     l1352:
  2999                           
  3000                           ;/media/user/software/simulide/tests/MCU/Test/16F88x/16F887_Vref/sources/lcd_sintaxe_mik
      +                          roc.c: 61:     _delay((unsigned long)((100)*(20000000UL/4000000.0)));
  3001  0075  30A6               	movlw	166
  3002  0076  00F0               	movwf	??_Lcd_Write_Nibble
  3003  0077                     u2757:
  3004  0077  0BF0               	decfsz	??_Lcd_Write_Nibble,f
  3005  0078  2877               	goto	u2757
  3006  0079  0000               	nop
  3007  007A                     l61:
  3008  007A  0008               	return
  3009  007B                     __end_of_Lcd_Write_Nibble:
  3010                           
  3011                           	psect	text9
  3012  007B                     __ptext9:	
  3013 ;; *************** function _ItoStr *****************
  3014 ;; Defined at:
  3015 ;;		line 124 in file "/media/user/software/simulide/tests/MCU/Test/16F88x/16F887_Vref/sources/testVref.c"
  3016 ;; Parameters:    Size  Location     Type
  3017 ;;  valor           2   37[BANK0 ] unsigned int 
  3018 ;;  tam             1   39[BANK0 ] unsigned char 
  3019 ;;  str             1   40[BANK0 ] PTR unsigned char 
  3020 ;;		 -> main@texto(6), 
  3021 ;;  volt            1   41[BANK0 ] unsigned char 
  3022 ;;  dot             1   42[BANK0 ] unsigned char 
  3023 ;; Auto vars:     Size  Location     Type
  3024 ;;  k               2   45[BANK0 ] int 
  3025 ;;  termo           2   48[BANK0 ] unsigned int 
  3026 ;;  pos             1   50[BANK0 ] unsigned char 
  3027 ;;  digito          1   47[BANK0 ] unsigned char 
  3028 ;; Return value:  Size  Location     Type
  3029 ;;                  1    wreg      void 
  3030 ;; Registers used:
  3031 ;;		wreg, fsr0l, fsr0h, status,2, status,0, btemp+1, pclath, cstack
  3032 ;; Tracked objects:
  3033 ;;		On entry : 0/0
  3034 ;;		On exit  : 0/0
  3035 ;;		Unchanged: 0/0
  3036 ;; Data sizes:     COMMON   BANK0   BANK1   BANK3   BANK2
  3037 ;;      Params:         0       6       0       0       0
  3038 ;;      Locals:         0       6       0       0       0
  3039 ;;      Temps:          0       2       0       0       0
  3040 ;;      Totals:         0      14       0       0       0
  3041 ;;Total ram usage:       14 bytes
  3042 ;; Hardware stack levels used: 1
  3043 ;; Hardware stack levels required when called: 1
  3044 ;; This function calls:
  3045 ;;		___fldiv
  3046 ;;		___fltol
  3047 ;;		___lwmod
  3048 ;;		___xxtofl
  3049 ;; This function is called by:
  3050 ;;		_main
  3051 ;; This function uses a non-reentrant model
  3052 ;;
  3053                           
  3054                           
  3055                           ;psect for function _ItoStr
  3056  007B                     _ItoStr:
  3057  007B                     l1682:	
  3058                           ;incstack = 0
  3059                           ; Regs used in _ItoStr: [wreg-fsr0h+status,2+status,0+btemp+1+pclath+cstack]
  3060                           
  3061                           
  3062                           ;/media/user/software/simulide/tests/MCU/Test/16F88x/16F887_Vref/sources/testVref.c: 125
      +                          :     unsigned int termo;;/media/user/software/simulide/tests/MCU/Test/16F88x/16F887_Vre
      +                          f/sources/testVref.c: 126:     unsigned char digito, pos;;/media/user/software/simulide/
      +                          tests/MCU/Test/16F88x/16F887_Vref/sources/testVref.c: 127:     for(int k=0;k<tam;k++) st
      +                          r[k] = ' ';
  3063  007B  1283               	bcf	3,5	;RP0=0, select bank0
  3064  007C  1303               	bcf	3,6	;RP1=0, select bank0
  3065  007D  01CD               	clrf	ItoStr@k
  3066  007E  01CE               	clrf	ItoStr@k+1
  3067  007F  2892               	goto	l1688
  3068  0080                     l1684:
  3069  0080  3020               	movlw	32
  3070  0081  1283               	bcf	3,5	;RP0=0, select bank0
  3071  0082  1303               	bcf	3,6	;RP1=0, select bank0
  3072  0083  00CB               	movwf	??_ItoStr
  3073  0084  084D               	movf	ItoStr@k,w
  3074  0085  0748               	addwf	ItoStr@str,w
  3075  0086  00CC               	movwf	??_ItoStr+1
  3076  0087  084C               	movf	??_ItoStr+1,w
  3077  0088  0084               	movwf	4
  3078  0089  084B               	movf	??_ItoStr,w
  3079  008A  1383               	bcf	3,7	;select IRP bank0
  3080  008B  0080               	movwf	0
  3081  008C                     l1686:
  3082  008C  3001               	movlw	1
  3083  008D  07CD               	addwf	ItoStr@k,f
  3084  008E  1803               	skipnc
  3085  008F  0ACE               	incf	ItoStr@k+1,f
  3086  0090  3000               	movlw	0
  3087  0091  07CE               	addwf	ItoStr@k+1,f
  3088  0092                     l1688:
  3089  0092  084E               	movf	ItoStr@k+1,w
  3090  0093  3A80               	xorlw	128
  3091  0094  00CB               	movwf	??_ItoStr
  3092  0095  3080               	movlw	128
  3093  0096  024B               	subwf	??_ItoStr,w
  3094  0097  1D03               	skipz
  3095  0098  289B               	goto	u2135
  3096  0099  0847               	movf	ItoStr@tam,w
  3097  009A  024D               	subwf	ItoStr@k,w
  3098  009B                     u2135:
  3099  009B  1C03               	skipc
  3100  009C  289E               	goto	u2131
  3101  009D  289F               	goto	u2130
  3102  009E                     u2131:
  3103  009E  2880               	goto	l1684
  3104  009F                     u2130:
  3105  009F                     l1690:
  3106                           
  3107                           ;/media/user/software/simulide/tests/MCU/Test/16F88x/16F887_Vref/sources/testVref.c: 128
      +                          :     pos = (tam - 1);
  3108  009F  1283               	bcf	3,5	;RP0=0, select bank0
  3109  00A0  1303               	bcf	3,6	;RP1=0, select bank0
  3110  00A1  0847               	movf	ItoStr@tam,w
  3111  00A2  3EFF               	addlw	255
  3112  00A3  00CB               	movwf	??_ItoStr
  3113  00A4  084B               	movf	??_ItoStr,w
  3114  00A5  00D2               	movwf	ItoStr@pos
  3115  00A6                     l1692:
  3116                           
  3117                           ;/media/user/software/simulide/tests/MCU/Test/16F88x/16F887_Vref/sources/testVref.c: 129
      +                          :     termo = valor;
  3118  00A6  0846               	movf	ItoStr@valor+1,w
  3119  00A7  00D1               	movwf	ItoStr@termo+1
  3120  00A8  0845               	movf	ItoStr@valor,w
  3121  00A9  00D0               	movwf	ItoStr@termo
  3122                           
  3123                           ;/media/user/software/simulide/tests/MCU/Test/16F88x/16F887_Vref/sources/testVref.c: 130
      +                          :     while(termo >= 10){
  3124  00AA  2919               	goto	l1710
  3125  00AB                     l1694:
  3126                           
  3127                           ;/media/user/software/simulide/tests/MCU/Test/16F88x/16F887_Vref/sources/testVref.c: 131
      +                          :         digito = (unsigned char) (termo % 10);
  3128  00AB  300A               	movlw	10
  3129  00AC  00F0               	movwf	___lwmod@divisor
  3130  00AD  3000               	movlw	0
  3131  00AE  00F1               	movwf	___lwmod@divisor+1
  3132  00AF  0851               	movf	ItoStr@termo+1,w
  3133  00B0  00F3               	movwf	___lwmod@dividend+1
  3134  00B1  0850               	movf	ItoStr@termo,w
  3135  00B2  00F2               	movwf	___lwmod@dividend
  3136  00B3  120A  158A  25A0  120A  118A  	fcall	___lwmod
  3137  00B8  0870               	movf	?___lwmod,w
  3138  00B9  1283               	bcf	3,5	;RP0=0, select bank0
  3139  00BA  1303               	bcf	3,6	;RP1=0, select bank0
  3140  00BB  00CB               	movwf	??_ItoStr
  3141  00BC  084B               	movf	??_ItoStr,w
  3142  00BD  00CF               	movwf	ItoStr@digito
  3143  00BE                     l1696:
  3144                           
  3145                           ;/media/user/software/simulide/tests/MCU/Test/16F88x/16F887_Vref/sources/testVref.c: 132
      +                          :         str[pos] = 48 + digito;
  3146  00BE  084F               	movf	ItoStr@digito,w
  3147  00BF  3E30               	addlw	48
  3148  00C0  00CB               	movwf	??_ItoStr
  3149  00C1  0852               	movf	ItoStr@pos,w
  3150  00C2  0748               	addwf	ItoStr@str,w
  3151  00C3  00CC               	movwf	??_ItoStr+1
  3152  00C4  084C               	movf	??_ItoStr+1,w
  3153  00C5  0084               	movwf	4
  3154  00C6  084B               	movf	??_ItoStr,w
  3155  00C7  1383               	bcf	3,7	;select IRP bank0
  3156  00C8  0080               	movwf	0
  3157  00C9                     l1698:
  3158                           
  3159                           ;/media/user/software/simulide/tests/MCU/Test/16F88x/16F887_Vref/sources/testVref.c: 133
      +                          :         pos--;
  3160  00C9  3001               	movlw	1
  3161  00CA  02D2               	subwf	ItoStr@pos,f
  3162  00CB                     l1700:
  3163                           
  3164                           ;/media/user/software/simulide/tests/MCU/Test/16F88x/16F887_Vref/sources/testVref.c: 134
      +                          :         if(pos==dot && volt){
  3165  00CB  0852               	movf	ItoStr@pos,w
  3166  00CC  064A               	xorwf	ItoStr@dot,w
  3167  00CD  1D03               	skipz
  3168  00CE  28D0               	goto	u2141
  3169  00CF  28D1               	goto	u2140
  3170  00D0                     u2141:
  3171  00D0  28E1               	goto	l1708
  3172  00D1                     u2140:
  3173  00D1                     l1702:
  3174  00D1  0849               	movf	ItoStr@volt,w
  3175  00D2  1903               	btfsc	3,2
  3176  00D3  28D5               	goto	u2151
  3177  00D4  28D6               	goto	u2150
  3178  00D5                     u2151:
  3179  00D5  28E1               	goto	l1708
  3180  00D6                     u2150:
  3181  00D6                     l1704:
  3182                           
  3183                           ;/media/user/software/simulide/tests/MCU/Test/16F88x/16F887_Vref/sources/testVref.c: 135
      +                          :             str[pos]=',';
  3184  00D6  302C               	movlw	44
  3185  00D7  00CB               	movwf	??_ItoStr
  3186  00D8  0852               	movf	ItoStr@pos,w
  3187  00D9  0748               	addwf	ItoStr@str,w
  3188  00DA  00CC               	movwf	??_ItoStr+1
  3189  00DB  084C               	movf	??_ItoStr+1,w
  3190  00DC  0084               	movwf	4
  3191  00DD  084B               	movf	??_ItoStr,w
  3192  00DE  0080               	movwf	0
  3193  00DF                     l1706:
  3194                           
  3195                           ;/media/user/software/simulide/tests/MCU/Test/16F88x/16F887_Vref/sources/testVref.c: 136
      +                          :             pos--;
  3196  00DF  3001               	movlw	1
  3197  00E0  02D2               	subwf	ItoStr@pos,f
  3198  00E1                     l1708:
  3199                           
  3200                           ;/media/user/software/simulide/tests/MCU/Test/16F88x/16F887_Vref/sources/testVref.c: 138
      +                          :         termo = (unsigned int)(termo / 10.0);
  3201  00E1  0850               	movf	ItoStr@termo,w
  3202  00E2  00F0               	movwf	___xxtofl@val
  3203  00E3  0851               	movf	ItoStr@termo+1,w
  3204  00E4  00F1               	movwf	___xxtofl@val+1
  3205  00E5  01F2               	clrf	___xxtofl@val+2
  3206  00E6  01F3               	clrf	___xxtofl@val+3
  3207  00E7  3000               	movlw	0
  3208  00E8  120A  158A  2746  120A  118A  	fcall	___xxtofl
  3209  00ED  0873               	movf	?___xxtofl+3,w
  3210  00EE  1283               	bcf	3,5	;RP0=0, select bank0
  3211  00EF  1303               	bcf	3,6	;RP1=0, select bank0
  3212  00F0  00A7               	movwf	___fldiv@b+3
  3213  00F1  0872               	movf	?___xxtofl+2,w
  3214  00F2  00A6               	movwf	___fldiv@b+2
  3215  00F3  0871               	movf	?___xxtofl+1,w
  3216  00F4  00A5               	movwf	___fldiv@b+1
  3217  00F5  0870               	movf	?___xxtofl,w
  3218  00F6  00A4               	movwf	___fldiv@b
  3219  00F7  3041               	movlw	65
  3220  00F8  00A3               	movwf	___fldiv@a+3
  3221  00F9  3020               	movlw	32
  3222  00FA  00A2               	movwf	___fldiv@a+2
  3223  00FB  3000               	movlw	0
  3224  00FC  00A1               	movwf	___fldiv@a+1
  3225  00FD  3000               	movlw	0
  3226  00FE  00A0               	movwf	___fldiv@a
  3227  00FF  120A  118A  2299  120A  118A  	fcall	___fldiv
  3228  0104  1283               	bcf	3,5	;RP0=0, select bank0
  3229  0105  1303               	bcf	3,6	;RP1=0, select bank0
  3230  0106  0823               	movf	?___fldiv+3,w
  3231  0107  00BD               	movwf	___fltol@f1+3
  3232  0108  0822               	movf	?___fldiv+2,w
  3233  0109  00BC               	movwf	___fltol@f1+2
  3234  010A  0821               	movf	?___fldiv+1,w
  3235  010B  00BB               	movwf	___fltol@f1+1
  3236  010C  0820               	movf	?___fldiv,w
  3237  010D  00BA               	movwf	___fltol@f1
  3238  010E  120A  158A  2623  120A  118A  	fcall	___fltol
  3239  0113  1283               	bcf	3,5	;RP0=0, select bank0
  3240  0114  1303               	bcf	3,6	;RP1=0, select bank0
  3241  0115  083B               	movf	?___fltol+1,w
  3242  0116  00D1               	movwf	ItoStr@termo+1
  3243  0117  083A               	movf	?___fltol,w
  3244  0118  00D0               	movwf	ItoStr@termo
  3245  0119                     l1710:
  3246                           
  3247                           ;/media/user/software/simulide/tests/MCU/Test/16F88x/16F887_Vref/sources/testVref.c: 130
      +                          :     while(termo >= 10){
  3248  0119  3000               	movlw	0
  3249  011A  0251               	subwf	ItoStr@termo+1,w
  3250  011B  300A               	movlw	10
  3251  011C  1903               	skipnz
  3252  011D  0250               	subwf	ItoStr@termo,w
  3253  011E  1803               	skipnc
  3254  011F  2921               	goto	u2161
  3255  0120  2922               	goto	u2160
  3256  0121                     u2161:
  3257  0121  28AB               	goto	l1694
  3258  0122                     u2160:
  3259  0122                     l1712:
  3260                           
  3261                           ;/media/user/software/simulide/tests/MCU/Test/16F88x/16F887_Vref/sources/testVref.c: 140
      +                          :     digito = (unsigned char) (termo % 10);
  3262  0122  300A               	movlw	10
  3263  0123  00F0               	movwf	___lwmod@divisor
  3264  0124  3000               	movlw	0
  3265  0125  00F1               	movwf	___lwmod@divisor+1
  3266  0126  0851               	movf	ItoStr@termo+1,w
  3267  0127  00F3               	movwf	___lwmod@dividend+1
  3268  0128  0850               	movf	ItoStr@termo,w
  3269  0129  00F2               	movwf	___lwmod@dividend
  3270  012A  120A  158A  25A0  120A  118A  	fcall	___lwmod
  3271  012F  0870               	movf	?___lwmod,w
  3272  0130  1283               	bcf	3,5	;RP0=0, select bank0
  3273  0131  1303               	bcf	3,6	;RP1=0, select bank0
  3274  0132  00CB               	movwf	??_ItoStr
  3275  0133  084B               	movf	??_ItoStr,w
  3276  0134  00CF               	movwf	ItoStr@digito
  3277  0135                     l1714:
  3278                           
  3279                           ;/media/user/software/simulide/tests/MCU/Test/16F88x/16F887_Vref/sources/testVref.c: 141
      +                          :     str[pos] = 48 + digito;
  3280  0135  084F               	movf	ItoStr@digito,w
  3281  0136  3E30               	addlw	48
  3282  0137  00CB               	movwf	??_ItoStr
  3283  0138  0852               	movf	ItoStr@pos,w
  3284  0139  0748               	addwf	ItoStr@str,w
  3285  013A  00CC               	movwf	??_ItoStr+1
  3286  013B  084C               	movf	??_ItoStr+1,w
  3287  013C  0084               	movwf	4
  3288  013D  084B               	movf	??_ItoStr,w
  3289  013E  1383               	bcf	3,7	;select IRP bank0
  3290  013F  0080               	movwf	0
  3291  0140                     l1716:
  3292                           
  3293                           ;/media/user/software/simulide/tests/MCU/Test/16F88x/16F887_Vref/sources/testVref.c: 142
      +                          :     if(pos>dot && volt){
  3294  0140  0852               	movf	ItoStr@pos,w
  3295  0141  024A               	subwf	ItoStr@dot,w
  3296  0142  1803               	skipnc
  3297  0143  2945               	goto	u2171
  3298  0144  2946               	goto	u2170
  3299  0145                     u2171:
  3300  0145  295E               	goto	l129
  3301  0146                     u2170:
  3302  0146                     l1718:
  3303  0146  0849               	movf	ItoStr@volt,w
  3304  0147  1903               	btfsc	3,2
  3305  0148  294A               	goto	u2181
  3306  0149  294B               	goto	u2180
  3307  014A                     u2181:
  3308  014A  295E               	goto	l129
  3309  014B                     u2180:
  3310  014B                     l1720:
  3311                           
  3312                           ;/media/user/software/simulide/tests/MCU/Test/16F88x/16F887_Vref/sources/testVref.c: 143
      +                          :         str[dot] = ',';
  3313  014B  302C               	movlw	44
  3314  014C  00CB               	movwf	??_ItoStr
  3315  014D  084A               	movf	ItoStr@dot,w
  3316  014E  0748               	addwf	ItoStr@str,w
  3317  014F  00CC               	movwf	??_ItoStr+1
  3318  0150  084C               	movf	??_ItoStr+1,w
  3319  0151  0084               	movwf	4
  3320  0152  084B               	movf	??_ItoStr,w
  3321  0153  0080               	movwf	0
  3322                           
  3323                           ;/media/user/software/simulide/tests/MCU/Test/16F88x/16F887_Vref/sources/testVref.c: 144
      +                          :         str[dot-1] = '0';
  3324  0154  3030               	movlw	48
  3325  0155  00CB               	movwf	??_ItoStr
  3326  0156  084A               	movf	ItoStr@dot,w
  3327  0157  0748               	addwf	ItoStr@str,w
  3328  0158  00CC               	movwf	??_ItoStr+1
  3329  0159  084C               	movf	??_ItoStr+1,w
  3330  015A  3EFF               	addlw	-1
  3331  015B  0084               	movwf	4
  3332  015C  084B               	movf	??_ItoStr,w
  3333  015D  0080               	movwf	0
  3334  015E                     l129:	
  3335                           ;/media/user/software/simulide/tests/MCU/Test/16F88x/16F887_Vref/sources/testVref.c: 145
      +                          :     }
  3336                           
  3337                           
  3338                           ;/media/user/software/simulide/tests/MCU/Test/16F88x/16F887_Vref/sources/testVref.c: 146
      +                          :     str[tam] = '\0';
  3339  015E  0847               	movf	ItoStr@tam,w
  3340  015F  0748               	addwf	ItoStr@str,w
  3341  0160  00CB               	movwf	??_ItoStr
  3342  0161  084B               	movf	??_ItoStr,w
  3343  0162  0084               	movwf	4
  3344  0163  0180               	clrf	0
  3345  0164                     l130:
  3346  0164  0008               	return
  3347  0165                     __end_of_ItoStr:
  3348                           
  3349                           	psect	text10
  3350  0F46                     __ptext10:	
  3351 ;; *************** function ___xxtofl *****************
  3352 ;; Defined at:
  3353 ;;		line 10 in file "/opt/microchip/xc8/v2.32/pic/sources/c90/common/xxtofl.c"
  3354 ;; Parameters:    Size  Location     Type
  3355 ;;  sign            1    wreg     unsigned char 
  3356 ;;  val             4    0[COMMON] long 
  3357 ;; Auto vars:     Size  Location     Type
  3358 ;;  sign            1    8[COMMON] unsigned char 
  3359 ;;  arg             4   10[COMMON] unsigned long 
  3360 ;;  exp             1    9[COMMON] unsigned char 
  3361 ;; Return value:  Size  Location     Type
  3362 ;;                  4    0[COMMON] unsigned char 
  3363 ;; Registers used:
  3364 ;;		wreg, status,2, status,0
  3365 ;; Tracked objects:
  3366 ;;		On entry : 0/0
  3367 ;;		On exit  : 0/0
  3368 ;;		Unchanged: 0/0
  3369 ;; Data sizes:     COMMON   BANK0   BANK1   BANK3   BANK2
  3370 ;;      Params:         4       0       0       0       0
  3371 ;;      Locals:         6       0       0       0       0
  3372 ;;      Temps:          4       0       0       0       0
  3373 ;;      Totals:        14       0       0       0       0
  3374 ;;Total ram usage:       14 bytes
  3375 ;; Hardware stack levels used: 1
  3376 ;; This function calls:
  3377 ;;		Nothing
  3378 ;; This function is called by:
  3379 ;;		_main
  3380 ;;		_ItoStr
  3381 ;; This function uses a non-reentrant model
  3382 ;;
  3383                           
  3384                           
  3385                           ;psect for function ___xxtofl
  3386  0F46                     ___xxtofl:
  3387                           
  3388                           ;incstack = 0
  3389                           ; Regs used in ___xxtofl: [wreg+status,2+status,0]
  3390                           ;___xxtofl@sign stored from wreg
  3391  0F46  00F8               	movwf	___xxtofl@sign
  3392  0F47                     l1604:
  3393  0F47  0878               	movf	___xxtofl@sign,w
  3394  0F48  1903               	btfsc	3,2
  3395  0F49  2F4B               	goto	u1981
  3396  0F4A  2F4C               	goto	u1980
  3397  0F4B                     u1981:
  3398  0F4B  2F60               	goto	l1610
  3399  0F4C                     u1980:
  3400  0F4C                     l1606:
  3401  0F4C  1FF3               	btfss	___xxtofl@val+3,7
  3402  0F4D  2F4F               	goto	u1991
  3403  0F4E  2F50               	goto	u1990
  3404  0F4F                     u1991:
  3405  0F4F  2F60               	goto	l1610
  3406  0F50                     u1990:
  3407  0F50                     l1608:
  3408  0F50  0970               	comf	___xxtofl@val,w
  3409  0F51  00FA               	movwf	___xxtofl@arg
  3410  0F52  0971               	comf	___xxtofl@val+1,w
  3411  0F53  00FB               	movwf	___xxtofl@arg+1
  3412  0F54  0972               	comf	___xxtofl@val+2,w
  3413  0F55  00FC               	movwf	___xxtofl@arg+2
  3414  0F56  0973               	comf	___xxtofl@val+3,w
  3415  0F57  00FD               	movwf	___xxtofl@arg+3
  3416  0F58  0AFA               	incf	___xxtofl@arg,f
  3417  0F59  1903               	skipnz
  3418  0F5A  0AFB               	incf	___xxtofl@arg+1,f
  3419  0F5B  1903               	skipnz
  3420  0F5C  0AFC               	incf	___xxtofl@arg+2,f
  3421  0F5D  1903               	skipnz
  3422  0F5E  0AFD               	incf	___xxtofl@arg+3,f
  3423  0F5F  2F68               	goto	l649
  3424  0F60                     l1610:
  3425  0F60  0873               	movf	___xxtofl@val+3,w
  3426  0F61  00FD               	movwf	___xxtofl@arg+3
  3427  0F62  0872               	movf	___xxtofl@val+2,w
  3428  0F63  00FC               	movwf	___xxtofl@arg+2
  3429  0F64  0871               	movf	___xxtofl@val+1,w
  3430  0F65  00FB               	movwf	___xxtofl@arg+1
  3431  0F66  0870               	movf	___xxtofl@val,w
  3432  0F67  00FA               	movwf	___xxtofl@arg
  3433  0F68                     l649:
  3434  0F68  0873               	movf	___xxtofl@val+3,w
  3435  0F69  0472               	iorwf	___xxtofl@val+2,w
  3436  0F6A  0471               	iorwf	___xxtofl@val+1,w
  3437  0F6B  0470               	iorwf	___xxtofl@val,w
  3438  0F6C  1D03               	skipz
  3439  0F6D  2F6F               	goto	u2001
  3440  0F6E  2F70               	goto	u2000
  3441  0F6F                     u2001:
  3442  0F6F  2F79               	goto	l1616
  3443  0F70                     u2000:
  3444  0F70                     l1612:
  3445  0F70  3000               	movlw	0
  3446  0F71  00F3               	movwf	?___xxtofl+3
  3447  0F72  3000               	movlw	0
  3448  0F73  00F2               	movwf	?___xxtofl+2
  3449  0F74  3000               	movlw	0
  3450  0F75  00F1               	movwf	?___xxtofl+1
  3451  0F76  3000               	movlw	0
  3452  0F77  00F0               	movwf	?___xxtofl
  3453  0F78  2FFF               	goto	l651
  3454  0F79                     l1616:
  3455  0F79  3096               	movlw	150
  3456  0F7A  00F4               	movwf	??___xxtofl
  3457  0F7B  0874               	movf	??___xxtofl,w
  3458  0F7C  00F9               	movwf	___xxtofl@exp
  3459  0F7D  2F8B               	goto	l1620
  3460  0F7E                     l1618:
  3461  0F7E  3001               	movlw	1
  3462  0F7F  00F4               	movwf	??___xxtofl
  3463  0F80  0874               	movf	??___xxtofl,w
  3464  0F81  07F9               	addwf	___xxtofl@exp,f
  3465  0F82  3001               	movlw	1
  3466  0F83                     u2015:
  3467  0F83  1003               	clrc
  3468  0F84  0CFD               	rrf	___xxtofl@arg+3,f
  3469  0F85  0CFC               	rrf	___xxtofl@arg+2,f
  3470  0F86  0CFB               	rrf	___xxtofl@arg+1,f
  3471  0F87  0CFA               	rrf	___xxtofl@arg,f
  3472  0F88  3EFF               	addlw	-1
  3473  0F89  1D03               	skipz
  3474  0F8A  2F83               	goto	u2015
  3475  0F8B                     l1620:
  3476  0F8B  30FE               	movlw	254
  3477  0F8C  057D               	andwf	___xxtofl@arg+3,w
  3478  0F8D  1D03               	btfss	3,2
  3479  0F8E  2F90               	goto	u2021
  3480  0F8F  2F91               	goto	u2020
  3481  0F90                     u2021:
  3482  0F90  2F7E               	goto	l1618
  3483  0F91                     u2020:
  3484  0F91  2FAD               	goto	l655
  3485  0F92                     l1622:
  3486  0F92  3001               	movlw	1
  3487  0F93  00F4               	movwf	??___xxtofl
  3488  0F94  0874               	movf	??___xxtofl,w
  3489  0F95  07F9               	addwf	___xxtofl@exp,f
  3490  0F96                     l1624:
  3491  0F96  3001               	movlw	1
  3492  0F97  07FA               	addwf	___xxtofl@arg,f
  3493  0F98  3000               	movlw	0
  3494  0F99  1803               	skipnc
  3495  0F9A  3001               	movlw	1
  3496  0F9B  07FB               	addwf	___xxtofl@arg+1,f
  3497  0F9C  3000               	movlw	0
  3498  0F9D  1803               	skipnc
  3499  0F9E  3001               	movlw	1
  3500  0F9F  07FC               	addwf	___xxtofl@arg+2,f
  3501  0FA0  3000               	movlw	0
  3502  0FA1  1803               	skipnc
  3503  0FA2  3001               	movlw	1
  3504  0FA3  07FD               	addwf	___xxtofl@arg+3,f
  3505  0FA4                     l1626:
  3506  0FA4  3001               	movlw	1
  3507  0FA5                     u2035:
  3508  0FA5  1003               	clrc
  3509  0FA6  0CFD               	rrf	___xxtofl@arg+3,f
  3510  0FA7  0CFC               	rrf	___xxtofl@arg+2,f
  3511  0FA8  0CFB               	rrf	___xxtofl@arg+1,f
  3512  0FA9  0CFA               	rrf	___xxtofl@arg,f
  3513  0FAA  3EFF               	addlw	-1
  3514  0FAB  1D03               	skipz
  3515  0FAC  2FA5               	goto	u2035
  3516  0FAD                     l655:
  3517  0FAD  30FF               	movlw	255
  3518  0FAE  057D               	andwf	___xxtofl@arg+3,w
  3519  0FAF  1D03               	btfss	3,2
  3520  0FB0  2FB2               	goto	u2041
  3521  0FB1  2FB3               	goto	u2040
  3522  0FB2                     u2041:
  3523  0FB2  2F92               	goto	l1622
  3524  0FB3                     u2040:
  3525  0FB3  2FBF               	goto	l1630
  3526  0FB4                     l1628:
  3527  0FB4  3001               	movlw	1
  3528  0FB5  02F9               	subwf	___xxtofl@exp,f
  3529  0FB6  3001               	movlw	1
  3530  0FB7  00F4               	movwf	??___xxtofl
  3531  0FB8                     u2055:
  3532  0FB8  1003               	clrc
  3533  0FB9  0DFA               	rlf	___xxtofl@arg,f
  3534  0FBA  0DFB               	rlf	___xxtofl@arg+1,f
  3535  0FBB  0DFC               	rlf	___xxtofl@arg+2,f
  3536  0FBC  0DFD               	rlf	___xxtofl@arg+3,f
  3537  0FBD  0BF4               	decfsz	??___xxtofl,f
  3538  0FBE  2FB8               	goto	u2055
  3539  0FBF                     l1630:
  3540  0FBF  1BFC               	btfsc	___xxtofl@arg+2,7
  3541  0FC0  2FC2               	goto	u2061
  3542  0FC1  2FC3               	goto	u2060
  3543  0FC2                     u2061:
  3544  0FC2  2FC9               	goto	l662
  3545  0FC3                     u2060:
  3546  0FC3                     l1632:
  3547  0FC3  3002               	movlw	2
  3548  0FC4  0279               	subwf	___xxtofl@exp,w
  3549  0FC5  1803               	skipnc
  3550  0FC6  2FC8               	goto	u2071
  3551  0FC7  2FC9               	goto	u2070
  3552  0FC8                     u2071:
  3553  0FC8  2FB4               	goto	l1628
  3554  0FC9                     u2070:
  3555  0FC9                     l662:
  3556  0FC9  1879               	btfsc	___xxtofl@exp,0
  3557  0FCA  2FCC               	goto	u2081
  3558  0FCB  2FCD               	goto	u2080
  3559  0FCC                     u2081:
  3560  0FCC  2FD5               	goto	l663
  3561  0FCD                     u2080:
  3562  0FCD                     l1634:
  3563  0FCD  30FF               	movlw	255
  3564  0FCE  05FA               	andwf	___xxtofl@arg,f
  3565  0FCF  30FF               	movlw	255
  3566  0FD0  05FB               	andwf	___xxtofl@arg+1,f
  3567  0FD1  307F               	movlw	127
  3568  0FD2  05FC               	andwf	___xxtofl@arg+2,f
  3569  0FD3  30FF               	movlw	255
  3570  0FD4  05FD               	andwf	___xxtofl@arg+3,f
  3571  0FD5                     l663:
  3572  0FD5  1003               	clrc
  3573  0FD6  0CF9               	rrf	___xxtofl@exp,f
  3574  0FD7                     l1636:
  3575  0FD7  0879               	movf	___xxtofl@exp,w
  3576  0FD8  00F4               	movwf	??___xxtofl
  3577  0FD9  01F5               	clrf	??___xxtofl+1
  3578  0FDA  01F6               	clrf	??___xxtofl+2
  3579  0FDB  01F7               	clrf	??___xxtofl+3
  3580  0FDC  3018               	movlw	24
  3581  0FDD                     u2095:
  3582  0FDD  1003               	clrc
  3583  0FDE  0DF4               	rlf	??___xxtofl,f
  3584  0FDF  0DF5               	rlf	??___xxtofl+1,f
  3585  0FE0  0DF6               	rlf	??___xxtofl+2,f
  3586  0FE1  0DF7               	rlf	??___xxtofl+3,f
  3587  0FE2                     u2090:
  3588  0FE2  3EFF               	addlw	-1
  3589  0FE3  1D03               	skipz
  3590  0FE4  2FDD               	goto	u2095
  3591  0FE5  0874               	movf	??___xxtofl,w
  3592  0FE6  04FA               	iorwf	___xxtofl@arg,f
  3593  0FE7  0875               	movf	??___xxtofl+1,w
  3594  0FE8  04FB               	iorwf	___xxtofl@arg+1,f
  3595  0FE9  0876               	movf	??___xxtofl+2,w
  3596  0FEA  04FC               	iorwf	___xxtofl@arg+2,f
  3597  0FEB  0877               	movf	??___xxtofl+3,w
  3598  0FEC  04FD               	iorwf	___xxtofl@arg+3,f
  3599  0FED                     l1638:
  3600  0FED  0878               	movf	___xxtofl@sign,w
  3601  0FEE  1903               	btfsc	3,2
  3602  0FEF  2FF1               	goto	u2101
  3603  0FF0  2FF2               	goto	u2100
  3604  0FF1                     u2101:
  3605  0FF1  2FF7               	goto	l1644
  3606  0FF2                     u2100:
  3607  0FF2                     l1640:
  3608  0FF2  1FF3               	btfss	___xxtofl@val+3,7
  3609  0FF3  2FF5               	goto	u2111
  3610  0FF4  2FF6               	goto	u2110
  3611  0FF5                     u2111:
  3612  0FF5  2FF7               	goto	l1644
  3613  0FF6                     u2110:
  3614  0FF6                     l1642:
  3615  0FF6  17FD               	bsf	___xxtofl@arg+3,7
  3616  0FF7                     l1644:
  3617  0FF7  087D               	movf	___xxtofl@arg+3,w
  3618  0FF8  00F3               	movwf	?___xxtofl+3
  3619  0FF9  087C               	movf	___xxtofl@arg+2,w
  3620  0FFA  00F2               	movwf	?___xxtofl+2
  3621  0FFB  087B               	movf	___xxtofl@arg+1,w
  3622  0FFC  00F1               	movwf	?___xxtofl+1
  3623  0FFD  087A               	movf	___xxtofl@arg,w
  3624  0FFE  00F0               	movwf	?___xxtofl
  3625  0FFF                     l651:
  3626  0FFF  0008               	return
  3627  1000                     __end_of___xxtofl:
  3628                           
  3629                           	psect	text11
  3630  0DA0                     __ptext11:	
  3631 ;; *************** function ___lwmod *****************
  3632 ;; Defined at:
  3633 ;;		line 5 in file "/opt/microchip/xc8/v2.32/pic/sources/c90/common/lwmod.c"
  3634 ;; Parameters:    Size  Location     Type
  3635 ;;  divisor         2    0[COMMON] unsigned int 
  3636 ;;  dividend        2    2[COMMON] unsigned int 
  3637 ;; Auto vars:     Size  Location     Type
  3638 ;;  counter         1    5[COMMON] unsigned char 
  3639 ;; Return value:  Size  Location     Type
  3640 ;;                  2    0[COMMON] unsigned int 
  3641 ;; Registers used:
  3642 ;;		wreg, status,2, status,0
  3643 ;; Tracked objects:
  3644 ;;		On entry : 0/0
  3645 ;;		On exit  : 0/0
  3646 ;;		Unchanged: 0/0
  3647 ;; Data sizes:     COMMON   BANK0   BANK1   BANK3   BANK2
  3648 ;;      Params:         4       0       0       0       0
  3649 ;;      Locals:         1       0       0       0       0
  3650 ;;      Temps:          1       0       0       0       0
  3651 ;;      Totals:         6       0       0       0       0
  3652 ;;Total ram usage:        6 bytes
  3653 ;; Hardware stack levels used: 1
  3654 ;; This function calls:
  3655 ;;		Nothing
  3656 ;; This function is called by:
  3657 ;;		_ItoStr
  3658 ;; This function uses a non-reentrant model
  3659 ;;
  3660                           
  3661                           
  3662                           ;psect for function ___lwmod
  3663  0DA0                     ___lwmod:
  3664  0DA0                     l1426:	
  3665                           ;incstack = 0
  3666                           ; Regs used in ___lwmod: [wreg+status,2+status,0]
  3667                           
  3668  0DA0  0870               	movf	___lwmod@divisor,w
  3669  0DA1  0471               	iorwf	___lwmod@divisor+1,w
  3670  0DA2  1903               	btfsc	3,2
  3671  0DA3  2DA5               	goto	u1601
  3672  0DA4  2DA6               	goto	u1600
  3673  0DA5                     u1601:
  3674  0DA5  2DD5               	goto	l1444
  3675  0DA6                     u1600:
  3676  0DA6                     l1428:
  3677  0DA6  01F5               	clrf	___lwmod@counter
  3678  0DA7  0AF5               	incf	___lwmod@counter,f
  3679  0DA8  2DB4               	goto	l1434
  3680  0DA9                     l1430:
  3681  0DA9  3001               	movlw	1
  3682  0DAA                     u1615:
  3683  0DAA  1003               	clrc
  3684  0DAB  0DF0               	rlf	___lwmod@divisor,f
  3685  0DAC  0DF1               	rlf	___lwmod@divisor+1,f
  3686  0DAD  3EFF               	addlw	-1
  3687  0DAE  1D03               	skipz
  3688  0DAF  2DAA               	goto	u1615
  3689  0DB0                     l1432:
  3690  0DB0  3001               	movlw	1
  3691  0DB1  00F4               	movwf	??___lwmod
  3692  0DB2  0874               	movf	??___lwmod,w
  3693  0DB3  07F5               	addwf	___lwmod@counter,f
  3694  0DB4                     l1434:
  3695  0DB4  1FF1               	btfss	___lwmod@divisor+1,7
  3696  0DB5  2DB7               	goto	u1621
  3697  0DB6  2DB8               	goto	u1620
  3698  0DB7                     u1621:
  3699  0DB7  2DA9               	goto	l1430
  3700  0DB8                     u1620:
  3701  0DB8                     l1436:
  3702  0DB8  0871               	movf	___lwmod@divisor+1,w
  3703  0DB9  0273               	subwf	___lwmod@dividend+1,w
  3704  0DBA  1D03               	skipz
  3705  0DBB  2DBE               	goto	u1635
  3706  0DBC  0870               	movf	___lwmod@divisor,w
  3707  0DBD  0272               	subwf	___lwmod@dividend,w
  3708  0DBE                     u1635:
  3709  0DBE  1C03               	skipc
  3710  0DBF  2DC1               	goto	u1631
  3711  0DC0  2DC2               	goto	u1630
  3712  0DC1                     u1631:
  3713  0DC1  2DC8               	goto	l1440
  3714  0DC2                     u1630:
  3715  0DC2                     l1438:
  3716  0DC2  0870               	movf	___lwmod@divisor,w
  3717  0DC3  02F2               	subwf	___lwmod@dividend,f
  3718  0DC4  0871               	movf	___lwmod@divisor+1,w
  3719  0DC5  1C03               	skipc
  3720  0DC6  03F3               	decf	___lwmod@dividend+1,f
  3721  0DC7  02F3               	subwf	___lwmod@dividend+1,f
  3722  0DC8                     l1440:
  3723  0DC8  3001               	movlw	1
  3724  0DC9                     u1645:
  3725  0DC9  1003               	clrc
  3726  0DCA  0CF1               	rrf	___lwmod@divisor+1,f
  3727  0DCB  0CF0               	rrf	___lwmod@divisor,f
  3728  0DCC  3EFF               	addlw	-1
  3729  0DCD  1D03               	skipz
  3730  0DCE  2DC9               	goto	u1645
  3731  0DCF                     l1442:
  3732  0DCF  3001               	movlw	1
  3733  0DD0  02F5               	subwf	___lwmod@counter,f
  3734  0DD1  1D03               	btfss	3,2
  3735  0DD2  2DD4               	goto	u1651
  3736  0DD3  2DD5               	goto	u1650
  3737  0DD4                     u1651:
  3738  0DD4  2DB8               	goto	l1436
  3739  0DD5                     u1650:
  3740  0DD5                     l1444:
  3741  0DD5  0873               	movf	___lwmod@dividend+1,w
  3742  0DD6  00F1               	movwf	?___lwmod+1
  3743  0DD7  0872               	movf	___lwmod@dividend,w
  3744  0DD8  00F0               	movwf	?___lwmod
  3745  0DD9                     l498:
  3746  0DD9  0008               	return
  3747  0DDA                     __end_of___lwmod:
  3748                           
  3749                           	psect	text12
  3750  0E23                     __ptext12:	
  3751 ;; *************** function ___fltol *****************
  3752 ;; Defined at:
  3753 ;;		line 43 in file "/opt/microchip/xc8/v2.32/pic/sources/c90/common/fltol.c"
  3754 ;; Parameters:    Size  Location     Type
  3755 ;;  f1              4   26[BANK0 ] unsigned int 
  3756 ;; Auto vars:     Size  Location     Type
  3757 ;;  exp1            1   36[BANK0 ] unsigned char 
  3758 ;;  sign1           1   35[BANK0 ] unsigned char 
  3759 ;; Return value:  Size  Location     Type
  3760 ;;                  4   26[BANK0 ] long 
  3761 ;; Registers used:
  3762 ;;		wreg, status,2, status,0
  3763 ;; Tracked objects:
  3764 ;;		On entry : 0/0
  3765 ;;		On exit  : 0/0
  3766 ;;		Unchanged: 0/0
  3767 ;; Data sizes:     COMMON   BANK0   BANK1   BANK3   BANK2
  3768 ;;      Params:         0       4       0       0       0
  3769 ;;      Locals:         0       2       0       0       0
  3770 ;;      Temps:          0       5       0       0       0
  3771 ;;      Totals:         0      11       0       0       0
  3772 ;;Total ram usage:       11 bytes
  3773 ;; Hardware stack levels used: 1
  3774 ;; This function calls:
  3775 ;;		Nothing
  3776 ;; This function is called by:
  3777 ;;		_main
  3778 ;;		_ItoStr
  3779 ;; This function uses a non-reentrant model
  3780 ;;
  3781                           
  3782                           
  3783                           ;psect for function ___fltol
  3784  0E23                     ___fltol:
  3785  0E23                     l1390:	
  3786                           ;incstack = 0
  3787                           ; Regs used in ___fltol: [wreg+status,2+status,0]
  3788                           
  3789  0E23  1003               	clrc
  3790  0E24  1283               	bcf	3,5	;RP0=0, select bank0
  3791  0E25  1303               	bcf	3,6	;RP1=0, select bank0
  3792  0E26  0D3C               	rlf	___fltol@f1+2,w
  3793  0E27  0D3D               	rlf	___fltol@f1+3,w
  3794  0E28  00BE               	movwf	??___fltol
  3795  0E29  083E               	movf	??___fltol,w
  3796  0E2A  00C4               	movwf	___fltol@exp1
  3797  0E2B  0844               	movf	___fltol@exp1,w
  3798  0E2C  1D03               	btfss	3,2
  3799  0E2D  2E2F               	goto	u1501
  3800  0E2E  2E30               	goto	u1500
  3801  0E2F                     u1501:
  3802  0E2F  2E39               	goto	l1396
  3803  0E30                     u1500:
  3804  0E30                     l1392:
  3805  0E30  3000               	movlw	0
  3806  0E31  00BD               	movwf	?___fltol+3
  3807  0E32  3000               	movlw	0
  3808  0E33  00BC               	movwf	?___fltol+2
  3809  0E34  3000               	movlw	0
  3810  0E35  00BB               	movwf	?___fltol+1
  3811  0E36  3000               	movlw	0
  3812  0E37  00BA               	movwf	?___fltol
  3813  0E38  2E9E               	goto	l402
  3814  0E39                     l1396:
  3815  0E39  083A               	movf	___fltol@f1,w
  3816  0E3A  00BE               	movwf	??___fltol
  3817  0E3B  083B               	movf	___fltol@f1+1,w
  3818  0E3C  00BF               	movwf	??___fltol+1
  3819  0E3D  083C               	movf	___fltol@f1+2,w
  3820  0E3E  00C0               	movwf	??___fltol+2
  3821  0E3F  083D               	movf	___fltol@f1+3,w
  3822  0E40  00C1               	movwf	??___fltol+3
  3823  0E41  301F               	movlw	31
  3824  0E42                     u1515:
  3825  0E42  1003               	clrc
  3826  0E43  0CC1               	rrf	??___fltol+3,f
  3827  0E44  0CC0               	rrf	??___fltol+2,f
  3828  0E45  0CBF               	rrf	??___fltol+1,f
  3829  0E46  0CBE               	rrf	??___fltol,f
  3830  0E47                     u1510:
  3831  0E47  3EFF               	addlw	-1
  3832  0E48  1D03               	skipz
  3833  0E49  2E42               	goto	u1515
  3834  0E4A  083E               	movf	??___fltol,w
  3835  0E4B  00C2               	movwf	??___fltol+4
  3836  0E4C  0842               	movf	??___fltol+4,w
  3837  0E4D  00C3               	movwf	___fltol@sign1
  3838  0E4E                     l1398:
  3839  0E4E  17BC               	bsf	___fltol@f1+2,7
  3840  0E4F                     l1400:
  3841  0E4F  30FF               	movlw	255
  3842  0E50  05BA               	andwf	___fltol@f1,f
  3843  0E51  30FF               	movlw	255
  3844  0E52  05BB               	andwf	___fltol@f1+1,f
  3845  0E53  30FF               	movlw	255
  3846  0E54  05BC               	andwf	___fltol@f1+2,f
  3847  0E55  3000               	movlw	0
  3848  0E56  05BD               	andwf	___fltol@f1+3,f
  3849  0E57                     l1402:
  3850  0E57  3096               	movlw	150
  3851  0E58  02C4               	subwf	___fltol@exp1,f
  3852  0E59                     l1404:
  3853  0E59  1FC4               	btfss	___fltol@exp1,7
  3854  0E5A  2E5C               	goto	u1521
  3855  0E5B  2E5D               	goto	u1520
  3856  0E5C                     u1521:
  3857  0E5C  2E77               	goto	l1414
  3858  0E5D                     u1520:
  3859  0E5D                     l1406:
  3860  0E5D  0844               	movf	___fltol@exp1,w
  3861  0E5E  3A80               	xorlw	128
  3862  0E5F  3E97               	addlw	151
  3863  0E60  1803               	skipnc
  3864  0E61  2E63               	goto	u1531
  3865  0E62  2E64               	goto	u1530
  3866  0E63                     u1531:
  3867  0E63  2E65               	goto	l1412
  3868  0E64                     u1530:
  3869  0E64  2E30               	goto	l1392
  3870  0E65                     l1412:
  3871  0E65  3001               	movlw	1
  3872  0E66                     u1545:
  3873  0E66  1003               	clrc
  3874  0E67  0CBD               	rrf	___fltol@f1+3,f
  3875  0E68  0CBC               	rrf	___fltol@f1+2,f
  3876  0E69  0CBB               	rrf	___fltol@f1+1,f
  3877  0E6A  0CBA               	rrf	___fltol@f1,f
  3878  0E6B  3EFF               	addlw	-1
  3879  0E6C  1D03               	skipz
  3880  0E6D  2E66               	goto	u1545
  3881  0E6E  3001               	movlw	1
  3882  0E6F  00BE               	movwf	??___fltol
  3883  0E70  083E               	movf	??___fltol,w
  3884  0E71  07C4               	addwf	___fltol@exp1,f
  3885  0E72  1D03               	btfss	3,2
  3886  0E73  2E75               	goto	u1551
  3887  0E74  2E76               	goto	u1550
  3888  0E75                     u1551:
  3889  0E75  2E65               	goto	l1412
  3890  0E76                     u1550:
  3891  0E76  2E8E               	goto	l1422
  3892  0E77                     l1414:
  3893  0E77  3020               	movlw	32
  3894  0E78  0244               	subwf	___fltol@exp1,w
  3895  0E79  1C03               	skipc
  3896  0E7A  2E7C               	goto	u1561
  3897  0E7B  2E7D               	goto	u1560
  3898  0E7C                     u1561:
  3899  0E7C  2E89               	goto	l409
  3900  0E7D                     u1560:
  3901  0E7D  2E30               	goto	l1392
  3902  0E7E                     l1420:
  3903  0E7E  3001               	movlw	1
  3904  0E7F  00BE               	movwf	??___fltol
  3905  0E80                     u1575:
  3906  0E80  1003               	clrc
  3907  0E81  0DBA               	rlf	___fltol@f1,f
  3908  0E82  0DBB               	rlf	___fltol@f1+1,f
  3909  0E83  0DBC               	rlf	___fltol@f1+2,f
  3910  0E84  0DBD               	rlf	___fltol@f1+3,f
  3911  0E85  0BBE               	decfsz	??___fltol,f
  3912  0E86  2E80               	goto	u1575
  3913  0E87  3001               	movlw	1
  3914  0E88  02C4               	subwf	___fltol@exp1,f
  3915  0E89                     l409:
  3916  0E89  0844               	movf	___fltol@exp1,w
  3917  0E8A  1D03               	btfss	3,2
  3918  0E8B  2E8D               	goto	u1581
  3919  0E8C  2E8E               	goto	u1580
  3920  0E8D                     u1581:
  3921  0E8D  2E7E               	goto	l1420
  3922  0E8E                     u1580:
  3923  0E8E                     l1422:
  3924  0E8E  0843               	movf	___fltol@sign1,w
  3925  0E8F  1903               	btfsc	3,2
  3926  0E90  2E92               	goto	u1591
  3927  0E91  2E93               	goto	u1590
  3928  0E92                     u1591:
  3929  0E92  2E9E               	goto	l412
  3930  0E93                     u1590:
  3931  0E93                     l1424:
  3932  0E93  09BA               	comf	___fltol@f1,f
  3933  0E94  09BB               	comf	___fltol@f1+1,f
  3934  0E95  09BC               	comf	___fltol@f1+2,f
  3935  0E96  09BD               	comf	___fltol@f1+3,f
  3936  0E97  0ABA               	incf	___fltol@f1,f
  3937  0E98  1903               	skipnz
  3938  0E99  0ABB               	incf	___fltol@f1+1,f
  3939  0E9A  1903               	skipnz
  3940  0E9B  0ABC               	incf	___fltol@f1+2,f
  3941  0E9C  1903               	skipnz
  3942  0E9D  0ABD               	incf	___fltol@f1+3,f
  3943  0E9E                     l412:
  3944  0E9E                     l402:
  3945  0E9E  0008               	return
  3946  0E9F                     __end_of___fltol:
  3947                           
  3948                           	psect	text13
  3949  0299                     __ptext13:	
  3950 ;; *************** function ___fldiv *****************
  3951 ;; Defined at:
  3952 ;;		line 8 in file "/opt/microchip/xc8/v2.32/pic/sources/c90/common/sprcdiv.c"
  3953 ;; Parameters:    Size  Location     Type
  3954 ;;  a               4    0[BANK0 ] long 
  3955 ;;  b               4    4[BANK0 ] long 
  3956 ;; Auto vars:     Size  Location     Type
  3957 ;;  grs             4   20[BANK0 ] unsigned long 
  3958 ;;  rem             4   13[BANK0 ] unsigned long 
  3959 ;;  new_exp         2   18[BANK0 ] int 
  3960 ;;  aexp            1   25[BANK0 ] unsigned char 
  3961 ;;  bexp            1   24[BANK0 ] unsigned char 
  3962 ;;  sign            1   17[BANK0 ] unsigned char 
  3963 ;; Return value:  Size  Location     Type
  3964 ;;                  4    0[BANK0 ] unsigned char 
  3965 ;; Registers used:
  3966 ;;		wreg, status,2, status,0, btemp+1
  3967 ;; Tracked objects:
  3968 ;;		On entry : 0/0
  3969 ;;		On exit  : 0/0
  3970 ;;		Unchanged: 0/0
  3971 ;; Data sizes:     COMMON   BANK0   BANK1   BANK3   BANK2
  3972 ;;      Params:         0       8       0       0       0
  3973 ;;      Locals:         0      13       0       0       0
  3974 ;;      Temps:          0       5       0       0       0
  3975 ;;      Totals:         0      26       0       0       0
  3976 ;;Total ram usage:       26 bytes
  3977 ;; Hardware stack levels used: 1
  3978 ;; This function calls:
  3979 ;;		Nothing
  3980 ;; This function is called by:
  3981 ;;		_ItoStr
  3982 ;; This function uses a non-reentrant model
  3983 ;;
  3984                           
  3985                           
  3986                           ;psect for function ___fldiv
  3987  0299                     ___fldiv:
  3988  0299                     l1448:	
  3989                           ;incstack = 0
  3990                           ; Regs used in ___fldiv: [wreg+status,2+status,0+btemp+1]
  3991                           
  3992  0299  1283               	bcf	3,5	;RP0=0, select bank0
  3993  029A  1303               	bcf	3,6	;RP1=0, select bank0
  3994  029B  0827               	movf	___fldiv@b+3,w
  3995  029C  3980               	andlw	128
  3996  029D  00A8               	movwf	??___fldiv
  3997  029E  0828               	movf	??___fldiv,w
  3998  029F  00B1               	movwf	___fldiv@sign
  3999  02A0                     l1450:
  4000  02A0  0827               	movf	___fldiv@b+3,w
  4001  02A1  00A8               	movwf	??___fldiv
  4002  02A2  0728               	addwf	??___fldiv,w
  4003  02A3  00A9               	movwf	??___fldiv+1
  4004  02A4  0829               	movf	??___fldiv+1,w
  4005  02A5  00B8               	movwf	___fldiv@bexp
  4006  02A6                     l1452:
  4007  02A6  1FA6               	btfss	___fldiv@b+2,7
  4008  02A7  2AA9               	goto	u1661
  4009  02A8  2AAA               	goto	u1660
  4010  02A9                     u1661:
  4011  02A9  2AAB               	goto	l1456
  4012  02AA                     u1660:
  4013  02AA                     l1454:
  4014  02AA  1438               	bsf	___fldiv@bexp,0
  4015  02AB                     l1456:
  4016  02AB  0838               	movf	___fldiv@bexp,w
  4017  02AC  1903               	btfsc	3,2
  4018  02AD  2AAF               	goto	u1671
  4019  02AE  2AB0               	goto	u1670
  4020  02AF                     u1671:
  4021  02AF  2AC0               	goto	l1466
  4022  02B0                     u1670:
  4023  02B0                     l1458:
  4024  02B0  0A38               	incf	___fldiv@bexp,w
  4025  02B1  1D03               	btfss	3,2
  4026  02B2  2AB4               	goto	u1681
  4027  02B3  2AB5               	goto	u1680
  4028  02B4                     u1681:
  4029  02B4  2ABD               	goto	l1462
  4030  02B5                     u1680:
  4031  02B5                     l1460:
  4032  02B5  3000               	movlw	0
  4033  02B6  00A7               	movwf	___fldiv@b+3
  4034  02B7  3000               	movlw	0
  4035  02B8  00A6               	movwf	___fldiv@b+2
  4036  02B9  3000               	movlw	0
  4037  02BA  00A5               	movwf	___fldiv@b+1
  4038  02BB  3000               	movlw	0
  4039  02BC  00A4               	movwf	___fldiv@b
  4040  02BD                     l1462:
  4041  02BD  17A6               	bsf	___fldiv@b+2,7
  4042  02BE                     l1464:
  4043  02BE  01A7               	clrf	___fldiv@b+3
  4044  02BF  2AC8               	goto	l1468
  4045  02C0                     l1466:
  4046  02C0  3000               	movlw	0
  4047  02C1  00A7               	movwf	___fldiv@b+3
  4048  02C2  3000               	movlw	0
  4049  02C3  00A6               	movwf	___fldiv@b+2
  4050  02C4  3000               	movlw	0
  4051  02C5  00A5               	movwf	___fldiv@b+1
  4052  02C6  3000               	movlw	0
  4053  02C7  00A4               	movwf	___fldiv@b
  4054  02C8                     l1468:
  4055  02C8  0823               	movf	___fldiv@a+3,w
  4056  02C9  3980               	andlw	128
  4057  02CA  00A8               	movwf	??___fldiv
  4058  02CB  0828               	movf	??___fldiv,w
  4059  02CC  06B1               	xorwf	___fldiv@sign,f
  4060  02CD                     l1470:
  4061  02CD  0823               	movf	___fldiv@a+3,w
  4062  02CE  00A8               	movwf	??___fldiv
  4063  02CF  0728               	addwf	??___fldiv,w
  4064  02D0  00A9               	movwf	??___fldiv+1
  4065  02D1  0829               	movf	??___fldiv+1,w
  4066  02D2  00B9               	movwf	___fldiv@aexp
  4067  02D3                     l1472:
  4068  02D3  1FA2               	btfss	___fldiv@a+2,7
  4069  02D4  2AD6               	goto	u1691
  4070  02D5  2AD7               	goto	u1690
  4071  02D6                     u1691:
  4072  02D6  2AD8               	goto	l1476
  4073  02D7                     u1690:
  4074  02D7                     l1474:
  4075  02D7  1439               	bsf	___fldiv@aexp,0
  4076  02D8                     l1476:
  4077  02D8  0839               	movf	___fldiv@aexp,w
  4078  02D9  1903               	btfsc	3,2
  4079  02DA  2ADC               	goto	u1701
  4080  02DB  2ADD               	goto	u1700
  4081  02DC                     u1701:
  4082  02DC  2AED               	goto	l1486
  4083  02DD                     u1700:
  4084  02DD                     l1478:
  4085  02DD  0A39               	incf	___fldiv@aexp,w
  4086  02DE  1D03               	btfss	3,2
  4087  02DF  2AE1               	goto	u1711
  4088  02E0  2AE2               	goto	u1710
  4089  02E1                     u1711:
  4090  02E1  2AEA               	goto	l1482
  4091  02E2                     u1710:
  4092  02E2                     l1480:
  4093  02E2  3000               	movlw	0
  4094  02E3  00A3               	movwf	___fldiv@a+3
  4095  02E4  3000               	movlw	0
  4096  02E5  00A2               	movwf	___fldiv@a+2
  4097  02E6  3000               	movlw	0
  4098  02E7  00A1               	movwf	___fldiv@a+1
  4099  02E8  3000               	movlw	0
  4100  02E9  00A0               	movwf	___fldiv@a
  4101  02EA                     l1482:
  4102  02EA  17A2               	bsf	___fldiv@a+2,7
  4103  02EB                     l1484:
  4104  02EB  01A3               	clrf	___fldiv@a+3
  4105  02EC  2AF5               	goto	l565
  4106  02ED                     l1486:
  4107  02ED  3000               	movlw	0
  4108  02EE  00A3               	movwf	___fldiv@a+3
  4109  02EF  3000               	movlw	0
  4110  02F0  00A2               	movwf	___fldiv@a+2
  4111  02F1  3000               	movlw	0
  4112  02F2  00A1               	movwf	___fldiv@a+1
  4113  02F3  3000               	movlw	0
  4114  02F4  00A0               	movwf	___fldiv@a
  4115  02F5                     l565:
  4116  02F5  0823               	movf	___fldiv@a+3,w
  4117  02F6  0422               	iorwf	___fldiv@a+2,w
  4118  02F7  0421               	iorwf	___fldiv@a+1,w
  4119  02F8  0420               	iorwf	___fldiv@a,w
  4120  02F9  1D03               	skipz
  4121  02FA  2AFC               	goto	u1721
  4122  02FB  2AFD               	goto	u1720
  4123  02FC                     u1721:
  4124  02FC  2B16               	goto	l1496
  4125  02FD                     u1720:
  4126  02FD                     l1488:
  4127  02FD  3000               	movlw	0
  4128  02FE  00A7               	movwf	___fldiv@b+3
  4129  02FF  3000               	movlw	0
  4130  0300  00A6               	movwf	___fldiv@b+2
  4131  0301  3000               	movlw	0
  4132  0302  00A5               	movwf	___fldiv@b+1
  4133  0303  3000               	movlw	0
  4134  0304  00A4               	movwf	___fldiv@b
  4135  0305  3080               	movlw	128
  4136  0306  04A6               	iorwf	___fldiv@b+2,f
  4137  0307  307F               	movlw	127
  4138  0308  04A7               	iorwf	___fldiv@b+3,f
  4139  0309                     l1490:
  4140  0309  0831               	movf	___fldiv@sign,w
  4141  030A  00A8               	movwf	??___fldiv
  4142  030B  0828               	movf	??___fldiv,w
  4143  030C  04A7               	iorwf	___fldiv@b+3,f
  4144  030D                     l1492:
  4145  030D  0827               	movf	___fldiv@b+3,w
  4146  030E  00A3               	movwf	?___fldiv+3
  4147  030F  0826               	movf	___fldiv@b+2,w
  4148  0310  00A2               	movwf	?___fldiv+2
  4149  0311  0825               	movf	___fldiv@b+1,w
  4150  0312  00A1               	movwf	?___fldiv+1
  4151  0313  0824               	movf	___fldiv@b,w
  4152  0314  00A0               	movwf	?___fldiv
  4153  0315  2C75               	goto	l567
  4154  0316                     l1496:
  4155  0316  0838               	movf	___fldiv@bexp,w
  4156  0317  1D03               	btfss	3,2
  4157  0318  2B1A               	goto	u1731
  4158  0319  2B1B               	goto	u1730
  4159  031A                     u1731:
  4160  031A  2B24               	goto	l1502
  4161  031B                     u1730:
  4162  031B                     l1498:
  4163  031B  3000               	movlw	0
  4164  031C  00A3               	movwf	?___fldiv+3
  4165  031D  3000               	movlw	0
  4166  031E  00A2               	movwf	?___fldiv+2
  4167  031F  3000               	movlw	0
  4168  0320  00A1               	movwf	?___fldiv+1
  4169  0321  3000               	movlw	0
  4170  0322  00A0               	movwf	?___fldiv
  4171  0323  2C75               	goto	l567
  4172  0324                     l1502:
  4173  0324  0838               	movf	___fldiv@bexp,w
  4174  0325  00A8               	movwf	??___fldiv
  4175  0326  01A9               	clrf	??___fldiv+1
  4176  0327  0829               	movf	??___fldiv+1,w
  4177  0328  00AB               	movwf	??___fldiv+3
  4178  0329  0839               	movf	___fldiv@aexp,w
  4179  032A  0228               	subwf	??___fldiv,w
  4180  032B  00AA               	movwf	??___fldiv+2
  4181  032C  1C03               	skipc
  4182  032D  03AB               	decf	??___fldiv+3,f
  4183  032E  082A               	movf	??___fldiv+2,w
  4184  032F  3E7F               	addlw	127
  4185  0330  00B2               	movwf	___fldiv@new_exp
  4186  0331  082B               	movf	??___fldiv+3,w
  4187  0332  1803               	skipnc
  4188  0333  3E01               	addlw	1
  4189  0334  3E00               	addlw	0
  4190  0335  00B3               	movwf	___fldiv@new_exp+1
  4191  0336                     l1504:
  4192  0336  0827               	movf	___fldiv@b+3,w
  4193  0337  00B0               	movwf	___fldiv@rem+3
  4194  0338  0826               	movf	___fldiv@b+2,w
  4195  0339  00AF               	movwf	___fldiv@rem+2
  4196  033A  0825               	movf	___fldiv@b+1,w
  4197  033B  00AE               	movwf	___fldiv@rem+1
  4198  033C  0824               	movf	___fldiv@b,w
  4199  033D  00AD               	movwf	___fldiv@rem
  4200  033E                     l1506:
  4201  033E  3000               	movlw	0
  4202  033F  00A7               	movwf	___fldiv@b+3
  4203  0340  3000               	movlw	0
  4204  0341  00A6               	movwf	___fldiv@b+2
  4205  0342  3000               	movlw	0
  4206  0343  00A5               	movwf	___fldiv@b+1
  4207  0344  3000               	movlw	0
  4208  0345  00A4               	movwf	___fldiv@b
  4209  0346                     l1508:
  4210  0346  3000               	movlw	0
  4211  0347  00B7               	movwf	___fldiv@grs+3
  4212  0348  3000               	movlw	0
  4213  0349  00B6               	movwf	___fldiv@grs+2
  4214  034A  3000               	movlw	0
  4215  034B  00B5               	movwf	___fldiv@grs+1
  4216  034C  3000               	movlw	0
  4217  034D  00B4               	movwf	___fldiv@grs
  4218  034E                     l1510:
  4219  034E  01B9               	clrf	___fldiv@aexp
  4220  034F  2B9A               	goto	l1530
  4221  0350                     l1512:
  4222  0350  0839               	movf	___fldiv@aexp,w
  4223  0351  1903               	btfsc	3,2
  4224  0352  2B54               	goto	u1741
  4225  0353  2B55               	goto	u1740
  4226  0354                     u1741:
  4227  0354  2B75               	goto	l1522
  4228  0355                     u1740:
  4229  0355                     l1514:
  4230  0355  3001               	movlw	1
  4231  0356  00A8               	movwf	??___fldiv
  4232  0357                     u1755:
  4233  0357  1003               	clrc
  4234  0358  0DAD               	rlf	___fldiv@rem,f
  4235  0359  0DAE               	rlf	___fldiv@rem+1,f
  4236  035A  0DAF               	rlf	___fldiv@rem+2,f
  4237  035B  0DB0               	rlf	___fldiv@rem+3,f
  4238  035C  0BA8               	decfsz	??___fldiv,f
  4239  035D  2B57               	goto	u1755
  4240  035E  3001               	movlw	1
  4241  035F  00A8               	movwf	??___fldiv
  4242  0360                     u1765:
  4243  0360  1003               	clrc
  4244  0361  0DA4               	rlf	___fldiv@b,f
  4245  0362  0DA5               	rlf	___fldiv@b+1,f
  4246  0363  0DA6               	rlf	___fldiv@b+2,f
  4247  0364  0DA7               	rlf	___fldiv@b+3,f
  4248  0365  0BA8               	decfsz	??___fldiv,f
  4249  0366  2B60               	goto	u1765
  4250  0367                     l1516:
  4251  0367  1FB7               	btfss	___fldiv@grs+3,7
  4252  0368  2B6A               	goto	u1771
  4253  0369  2B6B               	goto	u1770
  4254  036A                     u1771:
  4255  036A  2B6C               	goto	l1520
  4256  036B                     u1770:
  4257  036B                     l1518:
  4258  036B  1424               	bsf	___fldiv@b,0
  4259  036C                     l1520:
  4260  036C  3001               	movlw	1
  4261  036D  00A8               	movwf	??___fldiv
  4262  036E                     u1785:
  4263  036E  1003               	clrc
  4264  036F  0DB4               	rlf	___fldiv@grs,f
  4265  0370  0DB5               	rlf	___fldiv@grs+1,f
  4266  0371  0DB6               	rlf	___fldiv@grs+2,f
  4267  0372  0DB7               	rlf	___fldiv@grs+3,f
  4268  0373  0BA8               	decfsz	??___fldiv,f
  4269  0374  2B6E               	goto	u1785
  4270  0375                     l1522:
  4271  0375  0823               	movf	___fldiv@a+3,w
  4272  0376  0230               	subwf	___fldiv@rem+3,w
  4273  0377  1D03               	skipz
  4274  0378  2B83               	goto	u1795
  4275  0379  0822               	movf	___fldiv@a+2,w
  4276  037A  022F               	subwf	___fldiv@rem+2,w
  4277  037B  1D03               	skipz
  4278  037C  2B83               	goto	u1795
  4279  037D  0821               	movf	___fldiv@a+1,w
  4280  037E  022E               	subwf	___fldiv@rem+1,w
  4281  037F  1D03               	skipz
  4282  0380  2B83               	goto	u1795
  4283  0381  0820               	movf	___fldiv@a,w
  4284  0382  022D               	subwf	___fldiv@rem,w
  4285  0383                     u1795:
  4286  0383  1C03               	skipc
  4287  0384  2B86               	goto	u1791
  4288  0385  2B87               	goto	u1790
  4289  0386                     u1791:
  4290  0386  2B96               	goto	l1528
  4291  0387                     u1790:
  4292  0387                     l1524:
  4293  0387  1737               	bsf	___fldiv@grs+3,6
  4294  0388                     l1526:
  4295  0388  0820               	movf	___fldiv@a,w
  4296  0389  02AD               	subwf	___fldiv@rem,f
  4297  038A  0821               	movf	___fldiv@a+1,w
  4298  038B  1C03               	skipc
  4299  038C  0F21               	incfsz	___fldiv@a+1,w
  4300  038D  02AE               	subwf	___fldiv@rem+1,f
  4301  038E  0822               	movf	___fldiv@a+2,w
  4302  038F  1C03               	skipc
  4303  0390  0F22               	incfsz	___fldiv@a+2,w
  4304  0391  02AF               	subwf	___fldiv@rem+2,f
  4305  0392  0823               	movf	___fldiv@a+3,w
  4306  0393  1C03               	skipc
  4307  0394  0F23               	incfsz	___fldiv@a+3,w
  4308  0395  02B0               	subwf	___fldiv@rem+3,f
  4309  0396                     l1528:
  4310  0396  3001               	movlw	1
  4311  0397  00A8               	movwf	??___fldiv
  4312  0398  0828               	movf	??___fldiv,w
  4313  0399  07B9               	addwf	___fldiv@aexp,f
  4314  039A                     l1530:
  4315  039A  301A               	movlw	26
  4316  039B  0239               	subwf	___fldiv@aexp,w
  4317  039C  1C03               	skipc
  4318  039D  2B9F               	goto	u1801
  4319  039E  2BA0               	goto	u1800
  4320  039F                     u1801:
  4321  039F  2B50               	goto	l1512
  4322  03A0                     u1800:
  4323  03A0                     l1532:
  4324  03A0  0830               	movf	___fldiv@rem+3,w
  4325  03A1  042F               	iorwf	___fldiv@rem+2,w
  4326  03A2  042E               	iorwf	___fldiv@rem+1,w
  4327  03A3  042D               	iorwf	___fldiv@rem,w
  4328  03A4  1903               	skipnz
  4329  03A5  2BA7               	goto	u1811
  4330  03A6  2BA8               	goto	u1810
  4331  03A7                     u1811:
  4332  03A7  2BC7               	goto	l1546
  4333  03A8                     u1810:
  4334  03A8                     l1534:
  4335  03A8  1434               	bsf	___fldiv@grs,0
  4336  03A9  2BC7               	goto	l1546
  4337  03AA                     l1536:
  4338  03AA  3001               	movlw	1
  4339  03AB  00A8               	movwf	??___fldiv
  4340  03AC                     u1825:
  4341  03AC  1003               	clrc
  4342  03AD  0DA4               	rlf	___fldiv@b,f
  4343  03AE  0DA5               	rlf	___fldiv@b+1,f
  4344  03AF  0DA6               	rlf	___fldiv@b+2,f
  4345  03B0  0DA7               	rlf	___fldiv@b+3,f
  4346  03B1  0BA8               	decfsz	??___fldiv,f
  4347  03B2  2BAC               	goto	u1825
  4348  03B3                     l1538:
  4349  03B3  1FB7               	btfss	___fldiv@grs+3,7
  4350  03B4  2BB6               	goto	u1831
  4351  03B5  2BB7               	goto	u1830
  4352  03B6                     u1831:
  4353  03B6  2BB8               	goto	l1542
  4354  03B7                     u1830:
  4355  03B7                     l1540:
  4356  03B7  1424               	bsf	___fldiv@b,0
  4357  03B8                     l1542:
  4358  03B8  3001               	movlw	1
  4359  03B9  00A8               	movwf	??___fldiv
  4360  03BA                     u1845:
  4361  03BA  1003               	clrc
  4362  03BB  0DB4               	rlf	___fldiv@grs,f
  4363  03BC  0DB5               	rlf	___fldiv@grs+1,f
  4364  03BD  0DB6               	rlf	___fldiv@grs+2,f
  4365  03BE  0DB7               	rlf	___fldiv@grs+3,f
  4366  03BF  0BA8               	decfsz	??___fldiv,f
  4367  03C0  2BBA               	goto	u1845
  4368  03C1                     l1544:
  4369  03C1  30FF               	movlw	255
  4370  03C2  07B2               	addwf	___fldiv@new_exp,f
  4371  03C3  1803               	skipnc
  4372  03C4  0AB3               	incf	___fldiv@new_exp+1,f
  4373  03C5  30FF               	movlw	255
  4374  03C6  07B3               	addwf	___fldiv@new_exp+1,f
  4375  03C7                     l1546:
  4376  03C7  1FA6               	btfss	___fldiv@b+2,7
  4377  03C8  2BCA               	goto	u1851
  4378  03C9  2BCB               	goto	u1850
  4379  03CA                     u1851:
  4380  03CA  2BAA               	goto	l1536
  4381  03CB                     u1850:
  4382  03CB                     l1548:
  4383  03CB  01B9               	clrf	___fldiv@aexp
  4384  03CC                     l1550:
  4385  03CC  1FB7               	btfss	___fldiv@grs+3,7
  4386  03CD  2BCF               	goto	u1861
  4387  03CE  2BD0               	goto	u1860
  4388  03CF                     u1861:
  4389  03CF  2BEC               	goto	l1558
  4390  03D0                     u1860:
  4391  03D0                     l1552:
  4392  03D0  30FF               	movlw	255
  4393  03D1  0534               	andwf	___fldiv@grs,w
  4394  03D2  00A8               	movwf	??___fldiv
  4395  03D3  30FF               	movlw	255
  4396  03D4  0535               	andwf	___fldiv@grs+1,w
  4397  03D5  00A9               	movwf	??___fldiv+1
  4398  03D6  30FF               	movlw	255
  4399  03D7  0536               	andwf	___fldiv@grs+2,w
  4400  03D8  00AA               	movwf	??___fldiv+2
  4401  03D9  307F               	movlw	127
  4402  03DA  0537               	andwf	___fldiv@grs+3,w
  4403  03DB  00AB               	movwf	??___fldiv+3
  4404  03DC  082B               	movf	??___fldiv+3,w
  4405  03DD  042A               	iorwf	??___fldiv+2,w
  4406  03DE  0429               	iorwf	??___fldiv+1,w
  4407  03DF  0428               	iorwf	??___fldiv,w
  4408  03E0  1903               	skipnz
  4409  03E1  2BE3               	goto	u1871
  4410  03E2  2BE4               	goto	u1870
  4411  03E3                     u1871:
  4412  03E3  2BE7               	goto	l581
  4413  03E4                     u1870:
  4414  03E4                     l1554:
  4415  03E4  01B9               	clrf	___fldiv@aexp
  4416  03E5  0AB9               	incf	___fldiv@aexp,f
  4417  03E6  2BEC               	goto	l1558
  4418  03E7                     l581:
  4419  03E7  1C24               	btfss	___fldiv@b,0
  4420  03E8  2BEA               	goto	u1881
  4421  03E9  2BEB               	goto	u1880
  4422  03EA                     u1881:
  4423  03EA  2BEC               	goto	l1558
  4424  03EB                     u1880:
  4425  03EB  2BE4               	goto	l1554
  4426  03EC                     l1558:
  4427  03EC  0839               	movf	___fldiv@aexp,w
  4428  03ED  1903               	btfsc	3,2
  4429  03EE  2BF0               	goto	u1891
  4430  03EF  2BF1               	goto	u1890
  4431  03F0                     u1891:
  4432  03F0  2C22               	goto	l1568
  4433  03F1                     u1890:
  4434  03F1                     l1560:
  4435  03F1  3001               	movlw	1
  4436  03F2  07A4               	addwf	___fldiv@b,f
  4437  03F3  3000               	movlw	0
  4438  03F4  1803               	skipnc
  4439  03F5  3001               	movlw	1
  4440  03F6  07A5               	addwf	___fldiv@b+1,f
  4441  03F7  3000               	movlw	0
  4442  03F8  1803               	skipnc
  4443  03F9  3001               	movlw	1
  4444  03FA  07A6               	addwf	___fldiv@b+2,f
  4445  03FB  3000               	movlw	0
  4446  03FC  1803               	skipnc
  4447  03FD  3001               	movlw	1
  4448  03FE  07A7               	addwf	___fldiv@b+3,f
  4449  03FF                     l1562:
  4450  03FF  1C27               	btfss	___fldiv@b+3,0
  4451  0400  2C02               	goto	u1901
  4452  0401  2C03               	goto	u1900
  4453  0402                     u1901:
  4454  0402  2C22               	goto	l1568
  4455  0403                     u1900:
  4456  0403                     l1564:
  4457  0403  0824               	movf	___fldiv@b,w
  4458  0404  00A8               	movwf	??___fldiv
  4459  0405  0825               	movf	___fldiv@b+1,w
  4460  0406  00A9               	movwf	??___fldiv+1
  4461  0407  0826               	movf	___fldiv@b+2,w
  4462  0408  00AA               	movwf	??___fldiv+2
  4463  0409  0827               	movf	___fldiv@b+3,w
  4464  040A  00AB               	movwf	??___fldiv+3
  4465  040B  3001               	movlw	1
  4466  040C  00AC               	movwf	??___fldiv+4
  4467  040D                     u1915:
  4468  040D  0D2B               	rlf	??___fldiv+3,w
  4469  040E  0CAB               	rrf	??___fldiv+3,f
  4470  040F  0CAA               	rrf	??___fldiv+2,f
  4471  0410  0CA9               	rrf	??___fldiv+1,f
  4472  0411  0CA8               	rrf	??___fldiv,f
  4473  0412                     u1910:
  4474  0412  0BAC               	decfsz	??___fldiv+4,f
  4475  0413  2C0D               	goto	u1915
  4476  0414  082B               	movf	??___fldiv+3,w
  4477  0415  00A7               	movwf	___fldiv@b+3
  4478  0416  082A               	movf	??___fldiv+2,w
  4479  0417  00A6               	movwf	___fldiv@b+2
  4480  0418  0829               	movf	??___fldiv+1,w
  4481  0419  00A5               	movwf	___fldiv@b+1
  4482  041A  0828               	movf	??___fldiv,w
  4483  041B  00A4               	movwf	___fldiv@b
  4484  041C                     l1566:
  4485  041C  3001               	movlw	1
  4486  041D  07B2               	addwf	___fldiv@new_exp,f
  4487  041E  1803               	skipnc
  4488  041F  0AB3               	incf	___fldiv@new_exp+1,f
  4489  0420  3000               	movlw	0
  4490  0421  07B3               	addwf	___fldiv@new_exp+1,f
  4491  0422                     l1568:
  4492  0422  0833               	movf	___fldiv@new_exp+1,w
  4493  0423  3A80               	xorlw	128
  4494  0424  00FF               	movwf	btemp+1
  4495  0425  3080               	movlw	128
  4496  0426  027F               	subwf	btemp+1,w
  4497  0427  1D03               	skipz
  4498  0428  2C2B               	goto	u1925
  4499  0429  30FF               	movlw	255
  4500  042A  0232               	subwf	___fldiv@new_exp,w
  4501  042B                     u1925:
  4502  042B  1C03               	skipc
  4503  042C  2C2E               	goto	u1921
  4504  042D  2C2F               	goto	u1920
  4505  042E                     u1921:
  4506  042E  2C3D               	goto	l1572
  4507  042F                     u1920:
  4508  042F                     l1570:
  4509  042F  30FF               	movlw	255
  4510  0430  1283               	bcf	3,5	;RP0=0, select bank0
  4511  0431  1303               	bcf	3,6	;RP1=0, select bank0
  4512  0432  00B2               	movwf	___fldiv@new_exp
  4513  0433  3000               	movlw	0
  4514  0434  00B3               	movwf	___fldiv@new_exp+1
  4515  0435  3000               	movlw	0
  4516  0436  00A7               	movwf	___fldiv@b+3
  4517  0437  3000               	movlw	0
  4518  0438  00A6               	movwf	___fldiv@b+2
  4519  0439  3000               	movlw	0
  4520  043A  00A5               	movwf	___fldiv@b+1
  4521  043B  3000               	movlw	0
  4522  043C  00A4               	movwf	___fldiv@b
  4523  043D                     l1572:
  4524  043D  1283               	bcf	3,5	;RP0=0, select bank0
  4525  043E  1303               	bcf	3,6	;RP1=0, select bank0
  4526  043F  0833               	movf	___fldiv@new_exp+1,w
  4527  0440  3A80               	xorlw	128
  4528  0441  00FF               	movwf	btemp+1
  4529  0442  3080               	movlw	128
  4530  0443  027F               	subwf	btemp+1,w
  4531  0444  1D03               	skipz
  4532  0445  2C48               	goto	u1935
  4533  0446  3001               	movlw	1
  4534  0447  0232               	subwf	___fldiv@new_exp,w
  4535  0448                     u1935:
  4536  0448  1803               	skipnc
  4537  0449  2C4B               	goto	u1931
  4538  044A  2C4C               	goto	u1930
  4539  044B                     u1931:
  4540  044B  2C59               	goto	l587
  4541  044C                     u1930:
  4542  044C                     l1574:
  4543  044C  1283               	bcf	3,5	;RP0=0, select bank0
  4544  044D  1303               	bcf	3,6	;RP1=0, select bank0
  4545  044E  01B2               	clrf	___fldiv@new_exp
  4546  044F  01B3               	clrf	___fldiv@new_exp+1
  4547  0450                     l1576:
  4548  0450  3000               	movlw	0
  4549  0451  00A7               	movwf	___fldiv@b+3
  4550  0452  3000               	movlw	0
  4551  0453  00A6               	movwf	___fldiv@b+2
  4552  0454  3000               	movlw	0
  4553  0455  00A5               	movwf	___fldiv@b+1
  4554  0456  3000               	movlw	0
  4555  0457  00A4               	movwf	___fldiv@b
  4556  0458                     l1578:
  4557  0458  01B1               	clrf	___fldiv@sign
  4558  0459                     l587:
  4559  0459  1283               	bcf	3,5	;RP0=0, select bank0
  4560  045A  1303               	bcf	3,6	;RP1=0, select bank0
  4561  045B  0832               	movf	___fldiv@new_exp,w
  4562  045C  00A8               	movwf	??___fldiv
  4563  045D  0828               	movf	??___fldiv,w
  4564  045E  00B8               	movwf	___fldiv@bexp
  4565  045F                     l1580:
  4566  045F  1C38               	btfss	___fldiv@bexp,0
  4567  0460  2C62               	goto	u1941
  4568  0461  2C63               	goto	u1940
  4569  0462                     u1941:
  4570  0462  2C65               	goto	l1584
  4571  0463                     u1940:
  4572  0463                     l1582:
  4573  0463  17A6               	bsf	___fldiv@b+2,7
  4574  0464  2C69               	goto	l589
  4575  0465                     l1584:
  4576  0465  307F               	movlw	127
  4577  0466  00A8               	movwf	??___fldiv
  4578  0467  0828               	movf	??___fldiv,w
  4579  0468  05A6               	andwf	___fldiv@b+2,f
  4580  0469                     l589:
  4581  0469  0838               	movf	___fldiv@bexp,w
  4582  046A  00A8               	movwf	??___fldiv
  4583  046B  1003               	clrc
  4584  046C  0C28               	rrf	??___fldiv,w
  4585  046D  00A9               	movwf	??___fldiv+1
  4586  046E  0829               	movf	??___fldiv+1,w
  4587  046F  00A7               	movwf	___fldiv@b+3
  4588  0470  0831               	movf	___fldiv@sign,w
  4589  0471  00A8               	movwf	??___fldiv
  4590  0472  0828               	movf	??___fldiv,w
  4591  0473  04A7               	iorwf	___fldiv@b+3,f
  4592  0474  2B0D               	goto	l1492
  4593  0475                     l567:
  4594  0475  0008               	return
  4595  0476                     __end_of___fldiv:
  4596  007E                     btemp	set	126	;btemp
  4597  007E                     wtemp0	set	126
  4598                           
  4599                           	psect	config
  4600                           
  4601                           ;Config register CONFIG1 @ 0x2007
  4602                           ;	Oscillator Selection bits
  4603                           ;	FOSC = HS, HS oscillator: High-speed crystal/resonator on RA6/OSC2/CLKOUT and RA7/OSC1
      +                          /CLKIN
  4604                           ;	Watchdog Timer Enable bit
  4605                           ;	WDTE = OFF, WDT disabled and can be enabled by SWDTEN bit of the WDTCON register
  4606                           ;	Power-up Timer Enable bit
  4607                           ;	PWRTE = ON, PWRT enabled
  4608                           ;	RE3/MCLR pin function select bit
  4609                           ;	MCLRE = ON, RE3/MCLR pin function is MCLR
  4610                           ;	Code Protection bit
  4611                           ;	CP = OFF, Program memory code protection is disabled
  4612                           ;	Data Code Protection bit
  4613                           ;	CPD = OFF, Data memory code protection is disabled
  4614                           ;	Brown Out Reset Selection bits
  4615                           ;	BOREN = OFF, BOR disabled
  4616                           ;	Internal External Switchover bit
  4617                           ;	IESO = OFF, Internal/External Switchover mode is disabled
  4618                           ;	Fail-Safe Clock Monitor Enabled bit
  4619                           ;	FCMEN = OFF, Fail-Safe Clock Monitor is disabled
  4620                           ;	Low Voltage Programming Enable bit
  4621                           ;	LVP = OFF, RB3 pin has digital I/O, HV on MCLR must be used for programming
  4622                           ;	In-Circuit Debugger Mode bit
  4623                           ;	DEBUG = 0x1, unprogrammed default
  4624  2007                     	org	8199
  4625  2007  20E2               	dw	8418
  4626                           
  4627                           ;Config register CONFIG2 @ 0x2008
  4628                           ;	Brown-out Reset Selection bit
  4629                           ;	BOR4V = BOR40V, Brown-out Reset set to 4.0V
  4630                           ;	Flash Program Memory Self Write Enable bits
  4631                           ;	WRT = OFF, Write protection off
  4632  2008                     	org	8200
  4633  2008  3FFF               	dw	16383

Data Sizes:
    Strings     18
    Constant    0
    Data        6
    BSS         0
    Persistent  0
    Stack       0

Auto Spaces:
    Space          Size  Autos    Used
    COMMON           14     14      14
    BANK0            80     68      75
    BANK1            80      0       0
    BANK3            96      0       0
    BANK2            96      0       0

Pointer List with Targets:

    ItoStr@str	PTR unsigned char  size(1) Largest target is 6
		 -> main@texto(BANK0[6]), 

    Lcd_Write@Dt_Str	PTR unsigned char  size(2) Largest target is 9
		 -> STR_2(CODE[9]), STR_1(CODE[9]), main@texto(BANK0[6]), 

    Lcd_Print@Dt_Str	PTR unsigned char  size(2) Largest target is 9
		 -> STR_2(CODE[9]), STR_1(CODE[9]), main@texto(BANK0[6]), 


Critical Paths under _main in COMMON

    _main->_Lcd_Write
    _main->___xxtofl
    ___flmul->___xxtofl
    _Lcd_Write->_Lcd_Goto
    _Lcd_Print->_Lcd_Write_Nibble
    _Lcd_Goto->_Lcd_Cmd
    _Lcd_Init->_Lcd_Cmd
    _Lcd_Cmd->_Lcd_Write_Nibble
    _ItoStr->___xxtofl
    ___fltol->___xxtofl
    ___fldiv->___xxtofl

Critical Paths under _main in BANK0

    _main->_ItoStr
    _ItoStr->___fltol
    ___fltol->___fldiv
    ___fltol->___flmul

Critical Paths under _main in BANK1

    None.

Critical Paths under _main in BANK3

    None.

Critical Paths under _main in BANK2

    None.

Call Graph Tables:

 ---------------------------------------------------------------------------------
 (Depth) Function   	        Calls       Base Space   Used Autos Params    Refs
 ---------------------------------------------------------------------------------
 (0) _main                                                17    17      0    9379
                                             51 BANK0     17    17      0
                             _ItoStr
                           _Lcd_Init
                          _Lcd_Write
                            ___flmul
                            ___fltol
                           ___xxtofl
 ---------------------------------------------------------------------------------
 (1) ___flmul                                             26    18      8    2569
                                              0 BANK0     26    18      8
                          __Umul8_16
                           ___xxtofl (ARG)
 ---------------------------------------------------------------------------------
 (2) __Umul8_16                                            9     7      2     799
                                              0 COMMON     9     7      2
 ---------------------------------------------------------------------------------
 (1) _Lcd_Write                                            5     2      3    1562
                                              9 COMMON     5     2      3
                           _Lcd_Goto
                          _Lcd_Print
 ---------------------------------------------------------------------------------
 (2) _Lcd_Print                                            4     2      2     374
                                              2 COMMON     4     2      2
                   _Lcd_Write_Nibble
 ---------------------------------------------------------------------------------
 (2) _Lcd_Goto                                             4     3      1     514
                                              5 COMMON     4     3      1
                            _Lcd_Cmd
 ---------------------------------------------------------------------------------
 (1) _Lcd_Init                                             3     3      0     176
                                              5 COMMON     3     3      0
                            _Lcd_Cmd
 ---------------------------------------------------------------------------------
 (3) _Lcd_Cmd                                              3     3      0     176
                                              2 COMMON     3     3      0
                   _Lcd_Write_Nibble
 ---------------------------------------------------------------------------------
 (3) _Lcd_Write_Nibble                                     2     2      0      88
                                              0 COMMON     2     2      0
 ---------------------------------------------------------------------------------
 (1) _ItoStr                                              14     8      6    4020
                                             37 BANK0     14     8      6
                            ___fldiv
                            ___flmul (ARG)
                            ___fltol
                            ___lwmod
                           ___xxtofl
 ---------------------------------------------------------------------------------
 (1) ___xxtofl                                            14    10      4     474
                                              0 COMMON    14    10      4
 ---------------------------------------------------------------------------------
 (2) ___lwmod                                              6     2      4     463
                                              0 COMMON     6     2      4
 ---------------------------------------------------------------------------------
 (1) ___fltol                                             11     7      4     381
                                             26 BANK0     11     7      4
                            ___fldiv (ARG)
                            ___flmul (ARG)
                           ___xxtofl (ARG)
 ---------------------------------------------------------------------------------
 (2) ___fldiv                                             26    18      8    1273
                                              0 BANK0     26    18      8
                           ___xxtofl (ARG)
 ---------------------------------------------------------------------------------
 Estimated maximum stack depth 3
 ---------------------------------------------------------------------------------

 Call Graph Graphs:

 _main (ROOT)
   _ItoStr
     ___fldiv
       ___xxtofl (ARG)
     ___flmul (ARG)
       __Umul8_16
       ___xxtofl (ARG)
     ___fltol (ARG)
       ___fldiv (ARG)
       ___flmul (ARG)
       ___xxtofl (ARG)
     ___lwmod (ARG)
     ___xxtofl (ARG)
   _Lcd_Init
     _Lcd_Cmd
       _Lcd_Write_Nibble
   _Lcd_Write
     _Lcd_Goto
       _Lcd_Cmd
     _Lcd_Print
       _Lcd_Write_Nibble
   ___flmul
   ___fltol
   ___xxtofl

 Address spaces:
Name               Size   Autos  Total    Cost      Usage
BANK3               60      0       0       9        0.0%
BITBANK3            60      0       0       8        0.0%
SFR3                 0      0       0       4        0.0%
BITSFR3              0      0       0       4        0.0%
BANK2               60      0       0      11        0.0%
BITBANK2            60      0       0      10        0.0%
SFR2                 0      0       0       5        0.0%
BITSFR2              0      0       0       5        0.0%
BANK1               50      0       0       7        0.0%
BITBANK1            50      0       0       6        0.0%
SFR1                 0      0       0       2        0.0%
BITSFR1              0      0       0       2        0.0%
BANK0               50     44      4B       5       93.8%
BITBANK0            50      0       1       4        1.2%
SFR0                 0      0       0       1        0.0%
BITSFR0              0      0       0       1        0.0%
COMMON               E      E       E       1      100.0%
BITCOMMON            E      0       0       0        0.0%
CODE                 0      0       0       0        0.0%
DATA                 0      0      59      12        0.0%
ABS                  0      0      59       3        0.0%
NULL                 0      0       0       0        0.0%
STACK                0      0       0       2        0.0%
EEDATA             100      0       0       0        0.0%


Microchip Technology PIC Macro Assembler V2.32 build 20210201212658 
Symbol Table                                                                                   Wed Dec 22 04:37:54 2021

             ___fldiv@aexp 0039               ___fldiv@bexp 0038                          pc 0002  
             ___fldiv@sign 0031                         l61 007A                         l67 0D69  
                       l76 0D9F                         l85 0E22                         _RS 0350  
                       fsr 0004        __Umul8_16@word_mpld 0076                        l100 001A  
                      l130 0164                        l106 0F45                        l114 01C2  
                      l129 015E                        l402 0E9E                        l412 0E9E  
                      l409 0E89                        l611 0742                        l605 07D6  
                      l624 0D2A                        l617 07CA                        l626 0D3C  
                      l651 0FFF                        l581 03E7                        l565 02F5  
                      l662 0FC9                        l567 0475                        l663 0FD5  
                      l655 0FAD                        l649 0F68                        l498 0DD9  
                      l587 0459                        l589 0469                        _RC0 0038  
                      _RC1 0039                        _RD2 0042                        _RD3 0043  
                      _RD4 0044                        _RD5 0045                        _RD6 0046  
                      _RD7 0047                        fsr0 0004                        indf 0000  
             ___flmul@aexp 0032               ___flmul@bexp 0033               ___flmul@sign 002D  
             ___flmul@temp 0038               ___flmul@prod 0034               ___fltol@exp1 0044  
                     l1400 0E4F                       l1402 0E57                       l1420 0E7E  
                     l1412 0E65                       l1404 0E59                       l1340 0032  
                     l1510 034E                       l1502 0324                       l1422 0E8E  
                     l1406 0E5D                       l1414 0E77                       l1430 0DA9  
                     l1350 0072                       l1342 0068                       l1520 036C  
                     l1512 0350                       l1504 0336                       l1424 0E93  
                     l1440 0DC8                       l1432 0DB0                       l1352 0075  
                     l1344 0069                       l1360 0D5A                       l1600 0D38  
                     l1514 0355                       l1522 0375                       l1530 039A  
                     l1506 033E                       l1450 02A0                       l1442 0DCF  
                     l1434 0DB4                       l1426 0DA0                       l1610 0F60  
                     l1346 006C                       l1338 001C                       l1362 0D60  
                     l1354 0D3E                       l1370 0D7C                       l1540 03B7  
                     l1532 03A0                       l1524 0387                       l1516 0367  
                     l1508 0346                       l1460 02B5                       l1452 02A6  
                     l1436 0DB8                       l1428 0DA6                       l1444 0DD5  
                     l1620 0F8B                       l1612 0F70                       l1604 0F47  
                     l1700 00CB                       l1348 006F                       l1356 0D41  
                     l1372 0D84                       l1364 0D6B                       l1380 0DDA  
                     l1550 03CC                       l1542 03B8                       l1534 03A8  
                     l1526 0388                       l1518 036B                       l1470 02CD  
                     l1462 02BD                       l1454 02AA                       l1390 0E23  
                     l1438 0DC2                       l1630 0FBF                       l1622 0F92  
                     l1606 0F4C                       l1702 00D1                       l1710 0119  
                     l1358 0D55                       l1366 0D6C                       l1374 0D8C  
                     l1382 0DDB                       l1560 03F1                       l1552 03D0  
                     l1544 03C1                       l1536 03AA                       l1528 0396  
                     l1480 02E2                       l1472 02D3                       l1464 02BE  
                     l1456 02AB                       l1448 0299                       l1392 0E30  
                     l1640 0FF2                       l1632 0FC3                       l1624 0F96  
                     l1616 0F79                       l1608 0F50                       l1720 014B  
                     l1712 0122                       l1704 00D6                       l1368 0D74  
                     l1384 0DDF                       l1800 06A0                       _C1ON 083F  
                     l1570 042F                       l1562 03FF                       l1554 03E4  
                     l1538 03B3                       l1546 03C7                       l1490 0309  
                     l1482 02EA                       l1474 02D7                       l1458 02B0  
                     l1466 02C0                       l1642 0FF6                       l1634 0FCD  
                     l1626 0FA4                       l1618 0F7E                       l1714 0135  
                     l1706 00DF                       l1386 0E0B                       l1810 070E  
                     l1802 06C6                       l1730 0488                       l1722 0476  
                     l1580 045F                       l1572 043D                       l1564 0403  
                     l1548 03CB                       l1492 030D                       l1484 02EB  
                     l1476 02D8                       l1468 02C8                       l1396 0E39  
                     l1644 0FF7                       l1636 0FD7                       l1628 0FB4  
                     l1716 0140                       l1708 00E1                       l1660 0EBD  
                     l1388 0E0F                       l1652 0007                       l1820 0726  
                     l1812 0712                       l1804 06EE                       l1740 04A4  
                     l1732 048D                       l1724 047D                       l1900 0192  
                     _C2ON 0847                       l1582 0463                       l1574 044C  
                     l1566 041C                       l1558 03EC                       l1478 02DD  
                     l1486 02ED                       l1398 0E4E                       l1638 0FED  
                     l1718 0146                       l1670 0EF0                       l1662 0EC3  
                     l1654 0011                       l1590 0D17                       l1830 0747  
                     l1822 0727                       l1814 0713                       l1806 06F7  
                     l1750 04B9                       l1742 04A9                       l1734 0492  
                     l1726 0483                       l1910 01A8                       l1902 0193  
                     l1584 0465                       l1576 0450                       l1568 0422  
                     l1488 02FD                       l1496 0316                       l1680 0F38  
                     l1672 0EFF                       l1664 0ED2                       l1656 0E9F  
                     l1592 0D19                       l1832 074C                       l1840 077D  
                     l1824 072B                       l1816 071C                       l1808 0705  
                     l1760 04D5                       l1752 04BE                       l1744 04AF  
                     l1736 049A                       l1728 0487                       l1920 01FB  
                     l1912 01B4                       l1904 0194                       l1578 0458  
                     l1498 031B                       l1690 009F                       l1682 007B  
                     l1674 0F0C                       l1666 0EDB                       l1658 0EB0  
                     l1594 0D20                       l1850 07B0                       l1842 078A  
                     l1834 075A                       l1826 073F                       l1818 0722  
                     l1770 0500                       l1762 04DA                       l1754 04C6  
                     l1746 04B3                       l1738 049C                       l1930 027D  
                     l1922 020E                       l1914 01BF                       l1906 0197  
                     l1692 00A6                       l1684 0080                       l1676 0F1F  
                     l1668 0EEA                       l1596 0D24                       l1852 07BE  
                     l1844 0795                       l1836 075E                       l1780 059D  
                     l1772 051D                       l1756 04C8                       l1748 04B4  
                     l1932 0289                       l1924 021E                       l1916 01C6  
                     l1908 019C                       l1694 00AB                       l1686 008C  
                     l1678 0F25                       l1598 0D33                       l1854 07C2  
                     l1846 07A4                       l1838 0777                       l1790 0600  
                     l1782 05A6                       l1774 0539                       l1766 04E3  
                     l1758 04D0                       l1926 024A                       l1918 01CE  
                     l1696 00BE                       l1688 0092                       l1856 07C3  
                     l1848 07AE                       l1792 0619                       l1784 05B6  
                     l1776 0565                       l1768 04F3                       l1928 025F  
                     l1698 00C9                       l1954 0D94                       l1858 07CE  
                     l1794 0636                       l1786 05D3                       l1778 0581  
                     l1890 0183                       l1882 0165                       l1796 0663  
                     l1788 05E3                       l1892 0184                       l1884 017B  
                     l1798 0673                       l1894 0187                       l1886 017F  
                     l1896 018D                       l1888 0180                       l1898 018F  
                     _ADFM 04FF          ?_Lcd_Write_Nibble 0070                       _ADON 00F8  
                     STR_1 0819                       STR_2 0810                       u2000 0F70  
                     u2001 0F6F                       u2100 0FF2                       u2020 0F91  
                     u2101 0FF1                       u2021 0F90                       u2110 0FF6  
                     u2111 0FF5                       u2015 0F83                       u2040 0FB3  
                     u1400 0053                       u1320 0025                       u2200 048D  
                     u2041 0FB2                       u1401 004F                       u1321 0021  
                     u2201 048C                       u2130 009F                       u2210 0492  
                     u2035 0FA5                       u2131 009E                       u2211 0491  
                     u1500 0E30                       u2060 0FC3                       u2140 00D1  
                     u1340 002F                       u2220 04B3                       u1501 0E2F  
                     u2061 0FC2                       u2141 00D0                       u1341 002B  
                     u2301 058F                       u2221 04B2                       u1510 0E47  
                     u2070 0FC9                       u2150 00D6                       u1430 0065  
                     u1414 0056                       u1334 0028                       u2302 0596  
                     u2230 04B9                       u2071 0FC8                       u2055 0FB8  
                     u2151 00D5                       u2135 009B                       u1431 0061  
                     u2303 059D                       u2231 04B8                       u1520 0E5D  
                     u1600 0DA6                       u2080 0FCD                       u2160 0122  
                     u2400 06D4                       u2240 04BE                       u1521 0E5C  
                     u1601 0DA5                       u2081 0FCC                       u2161 0121  
                     u1425 0059                       u2321 05C5                       u2241 04BD  
                     u1530 0E64                       u2090 0FE2                       u2170 0146  
                     u1370 0041                       u1354 0032                       u2322 05CC  
                     u2250 04D5                       u1531 0E63                       u1515 0E42  
                     u2171 0145                       u1371 003D                       u2411 06E0  
                     u2331 05F2                       u2323 05D3                       u2315 059F  
                     u2251 04D4                       u1700 02DD                       u1620 0DB8  
                     u2180 014B                       u1444 0068                       u1460 0D5A  
                     u2500 074C                       u2412 06E7                       u2332 05F9  
                     u2260 04DA                       u1701 02DC                       u1621 0DB7  
                     u2181 014A                       u1365 0035                       u1461 0D59  
                     u2501 074B                       u2413 06EE                       u2405 06CF  
                     u2333 0600                       u2261 04D9                       u1710 02E2  
                     u1550 0E76                       u1630 0DC2                       u1470 0D60  
                     u2510 075E                       u2190 0487                       u1711 02E1  
                     u1551 0E75                       u1631 0DC1                       u1615 0DAA  
                     u2095 0FDD                       u1471 0D5F                       u1455 0D44  
                     u2511 075D                       u2351 0628                       u2271 052B  
                     u2191 0486                       u1800 03A0                       u1720 02FD  
                     u1560 0E7D                       u1384 0044                       u2520 076D  
                     u2440 0712                       u2352 062F                       u2272 0532  
                     u1801 039F                       u1721 02FC                       u1561 0E7C  
                     u1545 0E66                       u2441 0711                       u2425 06F0  
                     u2361 0655                       u2353 0636                       u2345 0602  
                     u2281 0547                       u2273 0539                       u1810 03A8  
                     u1730 031B                       u1650 0DD5                       u1490 0E22  
                     u2530 078A                       u2362 065C                       u2282 054E  
                     u2610 0292                       u1811 03A7                       u1731 031A  
                     u1651 0DD4                       u1635 0DBE                       u1395 0047  
                     u1491 0E21                       u2531 0789                       u2435 0707  
                     u2371 0682                       u2363 0663                       u2291 0573  
                     u2283 0555                       u2611 028E                       u1900 0403  
                     u1740 0355                       u1660 02AA                       u1580 0E8E  
                     u2540 07A4                       u2460 0726                       u2380 06AC  
                     u2372 0689                       u2292 057A                       u2604 0289  
                     u1901 0402                       u1741 0354                       u1661 02A9  
                     u1581 0E8D                       u1645 0DC9                       u1485 0DED  
                     u2541 07A3                       u2525 0768                       u2461 0725  
                     u2373 0690                       u2293 0581                       u1910 0412  
                     u1830 03B7                       u1670 02B0                       u1590 0E93  
                     u2550 07C2                       u2470 072B                       u1831 03B6  
                     u1671 02AF                       u1591 0E92                       u1575 0E80  
                     u2551 07C1                       u2535 0786                       u2471 072A  
                     u2455 0715                       u2391 06B8                       u1920 042F  
                     u1680 02B5                       u2480 073F                       u2392 06BF  
                     u2624 0295                       u1921 042E                       u1825 03AC  
                     u1681 02B4                       u2545 07A0                       u2481 073E  
                     u2393 06C6                       u2385 06A7                       u1930 044C  
                     u1850 03CB                       u1770 036B                       u1690 02D7  
                     u2490 0746                       u1931 044B                       u1915 040D  
                     u1851 03CA                       u1771 036A                       u1755 0357  
                     u1691 02D6                       u2707 0F05                       u2491 0745  
                     u1940 0463                       u1860 03D0                       u2580 01C6  
                     u1941 0462                       u1925 042B                       u1861 03CF  
                     u1845 03BA                       u1765 0360                       u2717 0F18  
                     u2581 01C5                       u2637 01BA                       u1870 03E4  
                     u1790 0387                       u1950 0D24                       u2590 0286  
                     u1935 0448                       u1871 03E3                       u1791 0386  
                     u2727 0F2B                       u1951 0D23                       u2591 0282  
                     u2647 0277                       u1880 03EB                       u1881 03EA  
                     u1785 036E                       u2737 0F3E                       u2657 0EB6  
                     u1890 03F1                       u1970 0D38                       u1891 03F0  
                     u1795 0383                       u2747 0D64                       u2667 0EC7  
                     u1971 0D37                       u1980 0F4C                       u1981 0F4B  
                     u2757 0077                       u2677 0ED6                       u1965 0D2B  
                     u1990 0F50                       u1991 0F4F                       u2687 0EE5  
                     u2697 0EF4         ??_Lcd_Write_Nibble 0070                       _main 0165  
              main@num_adc 0062                       btemp 007E                       start 0000  
          ___fldiv@new_exp 0032            __end_of_Lcd_Cmd 0D6A              ___fltol@sign1 0043  
                    ?_main 0070            __end_of___fldiv 0476            __end_of___flmul 07D7  
          __end_of___fltol 0E9F                      _ANSEL 0188            __end_of___lwmod 0DDA  
                    _VCFG0 04FC                      _VCFG1 04FD                 ItoStr@volt 0049  
                    pclath 000A                      status 0003                      wtemp0 007E  
         __end_of_Lcd_Init 0F46           __end_of_Lcd_Goto 0DA0            __initialization 07D7  
             __end_of_main 0299                     ??_main 0053         __size_of_Lcd_Print 0049  
       __size_of_Lcd_Write 0015                     _ADRESH 001E                     _ADRESL 009E  
                   _ANSELH 0189                  ??_Lcd_Cmd 0072                ItoStr@valor 0045  
              ItoStr@termo 0050                     _TRISA0 0428                     _TRISD2 0442  
                   _TRISD3 0443                     _TRISD4 0444                     _TRISD5 0445  
                   _TRISD6 0446                     _TRISD7 0447           __end_of___xxtofl 1000  
                   _ItoStr 007B                  ??___fldiv 0028                  ??___flmul 0028  
                ??___fltol 003E                  ??___lwmod 0074         __size_of__Umul8_16 0027  
             ___xxtofl@arg 007A               ___xxtofl@exp 0079               ___xxtofl@val 0070  
  __end_of__initialization 07FC                 ___fltol@f1 003A          __end_of_Lcd_Print 0E23  
        __end_of_Lcd_Write 001B             __pcstackCOMMON 0070               __pidataBANK0 0D10  
                ?_Lcd_Init 0070                  ?_Lcd_Goto 0075          __end_of__Umul8_16 0D3D  
                  ?_ItoStr 0045                 __pmaintext 0165  __size_of_Lcd_Write_Nibble 0060  
          Lcd_Print@Dt_Str 0072               ItoStr@digito 004F                  ?___xxtofl 0070  
               ??_Lcd_Init 0075                 ??_Lcd_Goto 0076                 __stringtab 0800  
                  _Lcd_Cmd 0D3D                    ItoStr@k 004D            __size_of_ItoStr 00EA  
                  ___fldiv 0299                    ___flmul 0476                    ___fltol 0E23  
                  ___lwmod 0DA0                    __ptext1 0476                    __ptext2 0D16  
                  __ptext3 0006                    __ptext4 0DDA                    __ptext5 0D6A  
                  __ptext6 0E9F                    __ptext7 0D3D                    __ptext8 001B  
                  __ptext9 007B                 ??___xxtofl 0074       end_of_initialization 07FC  
        Lcd_Write_Nibble@n 0071              ___xxtofl@sign 0078                ___fldiv@grs 0034  
              ___fldiv@rem 002D                ___flmul@grs 002E                 main@tensao 0056  
           __end_of_ItoStr 0165           _Lcd_Write_Nibble 001B                  _Lcd_Print 0DDA  
                _Lcd_Write 0006                  ItoStr@dot 004A                  ItoStr@tam 0047  
                ItoStr@pos 0052                  ItoStr@str 0048              __pbitbssBANK0 0350  
      start_initialization 07D7          __size_of_Lcd_Init 00A7          __size_of_Lcd_Goto 0036  
          Lcd_Write@Dt_Str 007A                   ??_ItoStr 004B                 ?_Lcd_Print 0072  
                __Umul8_16 0D16                 ?_Lcd_Write 0079                __pdataBANK0 0064  
                ___fldiv@a 0020                  ___fldiv@b 0024                  ___flmul@a 0024  
                ___flmul@b 0020                  ___latbits 0002              __pcstackBANK0 0020  
        __size_of___xxtofl 00BA                   ?_Lcd_Cmd 0070                   ?___fldiv 0020  
                 ?___flmul 0020                   ?___fltol 003A                 ?__Umul8_16 0070  
                 ?___lwmod 0070                  __pstrings 0800                  main@F1360 0064  
              ??_Lcd_Print 0074                ??_Lcd_Write 007C                 _ADCON0bits 001F  
              __stringbase 080F                  main@texto 005A                   _Lcd_Init 0E9F  
                 _Lcd_Goto 0D6A   __end_of_Lcd_Write_Nibble 007B             Lcd_Cmd@Command 0074  
         __size_of_Lcd_Cmd 002D                ??__Umul8_16 0072           __size_of___fldiv 01DD  
         __size_of___flmul 0361           __size_of___fltol 007C           __size_of___lwmod 003A  
       __end_of__stringtab 0810               Lcd_Write@col 0079               Lcd_Write@row 007D  
                 ___xxtofl 0F46                   _main$807 0060                   __ptext10 0F46  
                 __ptext11 0DA0                   __ptext12 0E23                   __ptext13 0299  
            __size_of_main 0134                Lcd_Goto@col 0078                Lcd_Goto@row 0075  
         ___lwmod@dividend 0072                  stringcode 080A                 Lcd_Print@i 0075  
   __Umul8_16@multiplicand 0070            ___lwmod@divisor 0070            ___lwmod@counter 0075  
                 stringdir 080A                   stringtab 0800       __Umul8_16@multiplier 0078  
        __Umul8_16@product 0074  
