Microchip MPLAB XC8 Compiler V2.32

Linker command line:

-W-3 --edf=/opt/microchip/xc8/v2.32/pic/dat/en_msgs.txt -cn \
  -h+build/testVref.sym --cmf=build/testVref.cmf -z -Q16F887 \
  -o/tmp/xcXjcFMmO --defsym=__MPLAB_BUILD=1 \
  -M/media/user/software/simulide/tests/MCU/Test/16F88x/16F887_Vref/sources/build/testVref.map \
  -E1 -ver=XC8 Compiler --acfsm=1493 -ASTACK=0110h-016Fh -pstack=STACK \
  -ACODE=00h-07FFhx4 -ASTRCODE=00h-01FFFh -ASTRING=00h-0FFhx32 \
  -ACONST=00h-0FFhx32 -AENTRY=00h-0FFhx32 -ACOMMON=070h-07Fh \
  -ABANK0=020h-06Fh -ABANK1=0A0h-0EFh -ABANK2=0110h-016Fh \
  -ABANK3=0190h-01EFh -ARAM=020h-06Fh,0A0h-0EFh,0110h-016Fh,0190h-01EFh \
  -AABS1=020h-07Fh,0A0h-0EFh,0110h-016Fh,0190h-01EFh -ASFR0=00h-01Fh \
  -ASFR1=080h-09Fh -ASFR2=0100h-010Fh -ASFR3=0180h-018Fh \
  -ACONFIG=02007h-02008h -DCONFIG=2 -AIDLOC=02000h-02003h -DIDLOC=2 \
  -AEEDATA=00h-0FFh/02100h -peeprom_data=EEDATA -DEEDATA=2 -DCODE=2 \
  -DSTRCODE=2 -DSTRING=2 -DCONST=2 -DENTRY=2 \
  -preset_vec=00h,intentry,init,end_init -ppowerup=CODE -pcinit=CODE \
  -pfunctab=ENTRY -k /tmp/xcXDgEOJd.o build/testVref.o 

Object code version is 3.11

Machine type is 16F887



                Name                               Link     Load   Length Selector   Space Scale
/tmp/xcXDgEOJd.o
                end_init                              0        0        3        0       0
                config                             2007     2007        2        0       4
build/testVref.o
                cinit                               7D7      7D7       29      FAE       0
                config                             2007     2007        2        0       4
                text13                              299      299      1DD      532       0
                text12                              E23      E23       7C     1C46       0
                text11                              DA0      DA0       3A     1B40       0
                text10                              F46      F46       BA     1E8C       0
                text9                                7B       7B       EA       F6       0
                text8                                1B       1B       60       36       0
                text7                               D3D      D3D       2D     1A7A       0
                text6                               E9F      E9F       A7     1D3E       0
                text5                               D6A      D6A       36     1AD4       0
                text4                               DDA      DDA       49     1BB4       0
                text3                                 6        6       15        C       0
                text2                               D16      D16       27     1A2C       0
                text1                               476      476      361      8EC       0
                maintext                            165      165      134      2CA       0
                cstackBANK0                          20       20       44       20       1
                cstackCOMMON                         70       70        E       70       1
                dataBANK0                            64       64        6       20       1
                bitbssBANK0                         350       6A        1       20       1     8
                strings                             800      800       22     1000       0
                idataBANK0                          D10      D10        6     1A20       0

TOTAL           Name                               Link     Load   Length     Space
        CLASS   STACK          

        CLASS   CODE           
                end_init                              0        0        3         0
                cinit                               7D7      7D7       29         0
                text13                              299      299      1DD         0
                text12                              E23      E23       7C         0
                text11                              DA0      DA0       3A         0
                text10                              F46      F46       BA         0
                text9                                7B       7B       EA         0
                text8                                1B       1B       60         0
                text7                               D3D      D3D       2D         0
                text6                               E9F      E9F       A7         0
                text5                               D6A      D6A       36         0
                text4                               DDA      DDA       49         0
                text3                                 6        6       15         0
                text2                               D16      D16       27         0
                text1                               476      476      361         0
                maintext                            165      165      134         0
                idataBANK0                          D10      D10        6         0

        CLASS   STRCODE        

        CLASS   STRING         
                strings                             800      800       22         0

        CLASS   CONST          

        CLASS   ENTRY          

        CLASS   COMMON         
                cstackCOMMON                         70       70        E         1

        CLASS   BANK0          
                cstackBANK0                          20       20       44         1
                dataBANK0                            64       64        6         1
                bitbssBANK0                         350       6A        1         1

        CLASS   BANK1          

        CLASS   BANK2          

        CLASS   BANK3          

        CLASS   RAM            

        CLASS   ABS1           
                abs_s1                               7E       7E        2         1

        CLASS   SFR0           

        CLASS   SFR1           

        CLASS   SFR2           

        CLASS   SFR3           

        CLASS   CONFIG         
                config                             2007     2007        2         4

        CLASS   IDLOC          

        CLASS   EEDATA         



SEGMENTS        Name                           Load    Length   Top    Selector   Space  Class     Delta

                text7                          000D3D  00002D  000D6A      1A7A       0  CODE        2
                text5                          000D6A  000036  000DA0      1AD4       0  CODE        2
                text4                          000DDA  000049  000E23      1BB4       0  CODE        2
                text11                         000DA0  00003A  000DDA      1B40       0  CODE        2
                reset_vec                      000000  000003  000003         0       0  CODE        2
                text2                          000D16  000027  000D3D      1A2C       0  CODE        2
                text8                          00001B  000060  00007B        36       0  CODE        2
                text12                         000E23  00007C  000E9F      1C46       0  CODE        2
                strings                        000800  000022  000822      1000       0  STRING      2
                idataBANK0                     000D10  000006  000D16      1A20       0  CODE        2
                text3                          000006  000015  00001B         C       0  CODE        2
                text6                          000E9F  0000A7  000F46      1D3E       0  CODE        2
                cstackBANK0                    000020  00004B  00006B        20       1  BANK0       1
                cinit                          0007D7  000029  000800       FAE       0  CODE        2
                cstackCOMMON                   000070  00000E  00007E        70       1  COMMON      1
                text9                          00007B  0000EA  000165        F6       0  CODE        2
                text10                         000F46  0000BA  001000      1E8C       0  CODE        2
                maintext                       000165  000134  000299       2CA       0  CODE        2
                text1                          000476  000361  0007D7       8EC       0  CODE        2
                text13                         000299  0001DD  000476       532       0  CODE        2


UNUSED ADDRESS RANGES

        Name                Unused          Largest block    Delta
        BANK0            006B-006F              5           1
        BANK1            00A0-00EF             50           1
        BANK2            0110-016F             60           1
        BANK3            0190-01EF             60           1
        CODE             0003-0005              3           2
                         0822-0D0F            4EE
                         1000-1FFF            800
        CONST            0003-0005              3           2
                         0822-0D0F            100
                         1000-1FFF            100
        EEDATA           2100-21FF            100           2
        ENTRY            0003-0005              3           2
                         0822-0D0F            100
                         1000-1FFF            100
        IDLOC            2000-2003              4           2
        RAM              006B-006F              5           1
                         00A0-00EF             50
                         0110-016F             60
                         0190-01EF             60
        SFR0             0000-001F             20           1
        SFR1             0080-009F             20           1
        SFR2             0100-010F             10           1
        SFR3             0180-018F             10           1
        STACK            0110-016F             60           1
        STRCODE          0003-0005              3           2
                         0822-0D0F            4EE
                         1000-1FFF           1000
        STRING           0003-0005              3           2
                         0822-0D0F            100
                         1000-1FFF            100

                                  Symbol Table

?__Umul8_16                cstackCOMMON 0070
?___fldiv                  cstackBANK0  0020
?___flmul                  cstackBANK0  0020
?___fltol                  cstackBANK0  003A
?___lwmod                  cstackCOMMON 0070
?___xxtofl                 cstackCOMMON 0070
ItoStr@digito              cstackBANK0  004F
ItoStr@dot                 cstackBANK0  004A
ItoStr@k                   cstackBANK0  004D
ItoStr@pos                 cstackBANK0  0052
ItoStr@str                 cstackBANK0  0048
ItoStr@tam                 cstackBANK0  0047
ItoStr@termo               cstackBANK0  0050
ItoStr@valor               cstackBANK0  0045
ItoStr@volt                cstackBANK0  0049
Lcd_Cmd@Command            cstackCOMMON 0074
Lcd_Goto@col               cstackCOMMON 0078
Lcd_Goto@row               cstackCOMMON 0075
Lcd_Print@Dt_Str           cstackCOMMON 0072
Lcd_Print@i                cstackCOMMON 0075
Lcd_Write@Dt_Str           cstackCOMMON 007A
Lcd_Write@col              cstackCOMMON 0079
Lcd_Write@row              cstackCOMMON 007D
Lcd_Write_Nibble@n         cstackCOMMON 0071
_ADCON0bits                (abs)        001F
_ADFM                      (abs)        04FF
_ADON                      (abs)        00F8
_ADRESH                    (abs)        001E
_ADRESL                    (abs)        009E
_ANSEL                     (abs)        0188
_ANSELH                    (abs)        0189
_C1ON                      (abs)        083F
_C2ON                      (abs)        0847
_ItoStr                    text9        007B
_Lcd_Cmd                   text7        0D3D
_Lcd_Goto                  text5        0D6A
_Lcd_Init                  text6        0E9F
_Lcd_Print                 text4        0DDA
_Lcd_Write                 text3        0006
_Lcd_Write_Nibble          text8        001B
_RC0                       (abs)        0038
_RC1                       (abs)        0039
_RD2                       (abs)        0042
_RD3                       (abs)        0043
_RD4                       (abs)        0044
_RD5                       (abs)        0045
_RD6                       (abs)        0046
_RD7                       (abs)        0047
_RS                        bitbssBANK0  0350
_TRISA0                    (abs)        0428
_TRISD2                    (abs)        0442
_TRISD3                    (abs)        0443
_TRISD4                    (abs)        0444
_TRISD5                    (abs)        0445
_TRISD6                    (abs)        0446
_TRISD7                    (abs)        0447
_VCFG0                     (abs)        04FC
_VCFG1                     (abs)        04FD
__Habs1                    abs1         0000
__Hbank0                   bank0        0000
__Hbank1                   bank1        0000
__Hbank2                   bank2        0000
__Hbank3                   bank3        0000
__HbitbssBANK0             bitbssBANK0  0000
__Hcinit                   cinit        0800
__Hclrtext                 clrtext      0000
__Hcode                    code         0000
__Hcommon                  common       0000
__Hconfig                  config       2009
__HcstackBANK0             cstackBANK0  0000
__HcstackCOMMON            cstackCOMMON 0000
__HdataBANK0               dataBANK0    0000
__Heeprom_data             eeprom_data  0000
__Hend_init                end_init     0003
__Hfunctab                 functab      0000
__HidataBANK0              idataBANK0   0000
__Hinit                    init         0000
__Hintentry                intentry     0000
__Hmaintext                maintext     0000
__Hpowerup                 powerup      0000
__Hram                     ram          0000
__Hreset_vec               reset_vec    0000
__Hsfr0                    sfr0         0000
__Hsfr1                    sfr1         0000
__Hsfr2                    sfr2         0000
__Hsfr3                    sfr3         0000
__Hspace_0                 (abs)        1000
__Hspace_1                 (abs)        0351
__Hspace_2                 (abs)        0000
__Hspace_3                 (abs)        0000
__Hspace_4                 (abs)        4010
__Hstack                   stack        0000
__Hstrings                 strings      0000
__Htext                    text         0000
__Labs1                    abs1         0000
__Lbank0                   bank0        0000
__Lbank1                   bank1        0000
__Lbank2                   bank2        0000
__Lbank3                   bank3        0000
__LbitbssBANK0             bitbssBANK0  0000
__Lcinit                   cinit        07D7
__Lclrtext                 clrtext      0000
__Lcode                    code         0000
__Lcommon                  common       0000
__Lconfig                  config       0000
__LcstackBANK0             cstackBANK0  0000
__LcstackCOMMON            cstackCOMMON 0000
__LdataBANK0               dataBANK0    0000
__Leeprom_data             eeprom_data  0000
__Lend_init                end_init     0000
__Lfunctab                 functab      0000
__LidataBANK0              idataBANK0   0000
__Linit                    init         0000
__Lintentry                intentry     0000
__Lmaintext                maintext     0000
__Lpowerup                 powerup      0000
__Lram                     ram          0000
__Lreset_vec               reset_vec    0000
__Lsfr0                    sfr0         0000
__Lsfr1                    sfr1         0000
__Lsfr2                    sfr2         0000
__Lsfr3                    sfr3         0000
__Lspace_0                 (abs)        0000
__Lspace_1                 (abs)        0000
__Lspace_2                 (abs)        0000
__Lspace_3                 (abs)        0000
__Lspace_4                 (abs)        0000
__Lstack                   stack        0000
__Lstrings                 strings      0000
__Ltext                    text         0000
__S0                       (abs)        1000
__S1                       (abs)        007E
__S2                       (abs)        0000
__S3                       (abs)        0000
__Umul8_16                 text2        0D16
__Umul8_16@multiplicand    cstackCOMMON 0070
__Umul8_16@multiplier      cstackCOMMON 0078
__Umul8_16@product         cstackCOMMON 0074
__Umul8_16@word_mpld       cstackCOMMON 0076
___fldiv                   text13       0299
___fldiv@a                 cstackBANK0  0020
___fldiv@aexp              cstackBANK0  0039
___fldiv@b                 cstackBANK0  0024
___fldiv@bexp              cstackBANK0  0038
___fldiv@grs               cstackBANK0  0034
___fldiv@new_exp           cstackBANK0  0032
___fldiv@rem               cstackBANK0  002D
___fldiv@sign              cstackBANK0  0031
___flmul                   text1        0476
___flmul@a                 cstackBANK0  0024
___flmul@aexp              cstackBANK0  0032
___flmul@b                 cstackBANK0  0020
___flmul@bexp              cstackBANK0  0033
___flmul@grs               cstackBANK0  002E
___flmul@prod              cstackBANK0  0034
___flmul@sign              cstackBANK0  002D
___flmul@temp              cstackBANK0  0038
___fltol                   text12       0E23
___fltol@exp1              cstackBANK0  0044
___fltol@f1                cstackBANK0  003A
___fltol@sign1             cstackBANK0  0043
___int_sp                  stack        0000
___latbits                 (abs)        0002
___lwmod                   text11       0DA0
___lwmod@counter           cstackCOMMON 0075
___lwmod@dividend          cstackCOMMON 0072
___lwmod@divisor           cstackCOMMON 0070
___sp                      stack        0000
___stackhi                 (abs)        0000
___stacklo                 (abs)        0000
___xxtofl                  text10       0F46
___xxtofl@arg              cstackCOMMON 007A
___xxtofl@exp              cstackCOMMON 0079
___xxtofl@sign             cstackCOMMON 0078
___xxtofl@val              cstackCOMMON 0070
__end_of_ItoStr            text9        0165
__end_of_Lcd_Cmd           text7        0D6A
__end_of_Lcd_Goto          text5        0DA0
__end_of_Lcd_Init          text6        0F46
__end_of_Lcd_Print         text4        0E23
__end_of_Lcd_Write         text3        001B
__end_of_Lcd_Write_Nibble  text8        007B
__end_of__Umul8_16         text2        0D3D
__end_of___fldiv           text13       0476
__end_of___flmul           text1        07D7
__end_of___fltol           text12       0E9F
__end_of___lwmod           text11       0DDA
__end_of___xxtofl          text10       1000
__end_of__initialization   cinit        07FC
__end_of__stringtab        strings      0810
__end_of_main              maintext     0299
__initialization           cinit        07D7
__pbitbssBANK0             bitbssBANK0  0350
__pcstackBANK0             cstackBANK0  0020
__pcstackCOMMON            cstackCOMMON 0070
__pdataBANK0               dataBANK0    0064
__pidataBANK0              idataBANK0   0D10
__pmaintext                maintext     0165
__pstrings                 strings      0800
__ptext1                   text1        0476
__ptext10                  text10       0F46
__ptext11                  text11       0DA0
__ptext12                  text12       0E23
__ptext13                  text13       0299
__ptext2                   text2        0D16
__ptext3                   text3        0006
__ptext4                   text4        0DDA
__ptext5                   text5        0D6A
__ptext6                   text6        0E9F
__ptext7                   text7        0D3D
__ptext8                   text8        001B
__ptext9                   text9        007B
__size_of_ItoStr           (abs)        0000
__size_of_Lcd_Cmd          (abs)        0000
__size_of_Lcd_Goto         (abs)        0000
__size_of_Lcd_Init         (abs)        0000
__size_of_Lcd_Print        (abs)        0000
__size_of_Lcd_Write        (abs)        0000
__size_of_Lcd_Write_Nibble (abs)        0000
__size_of__Umul8_16        (abs)        0000
__size_of___fldiv          (abs)        0000
__size_of___flmul          (abs)        0000
__size_of___fltol          (abs)        0000
__size_of___lwmod          (abs)        0000
__size_of___xxtofl         (abs)        0000
__size_of_main             (abs)        0000
__stringbase               strings      080F
__stringtab                strings      0800
_main                      maintext     0165
_main$807                  cstackBANK0  0060
btemp                      (abs)        007E
end_of_initialization      cinit        07FC
intlevel0                  functab      0000
intlevel1                  functab      0000
intlevel2                  functab      0000
intlevel3                  functab      0000
intlevel4                  functab      0000
intlevel5                  functab      0000
main@F1360                 dataBANK0    0064
main@num_adc               cstackBANK0  0062
main@tensao                cstackBANK0  0056
main@texto                 cstackBANK0  005A
reset_vec                  reset_vec    0000
start                      init         0000
start_initialization       cinit        07D7
wtemp0                     (abs)        007E


MODULE INFORMATION

Module		Function		Class		Link	Load	Size
/opt/microchip/xc8/v2.32/pic/sources/c90/common/sprcdiv.c
		___fldiv       		CODE           	0299	0000	477

/opt/microchip/xc8/v2.32/pic/sources/c90/common/sprcdiv.c estimated size: 477

/opt/microchip/xc8/v2.32/pic/sources/c90/common/fltol.c
		___fltol       		CODE           	0E23	0000	124

/opt/microchip/xc8/v2.32/pic/sources/c90/common/fltol.c estimated size: 124

shared
		__stringtab    		STRING         	0800	0000	16
		__initialization		CODE           	07D7	0000	37

shared estimated size: 53

/opt/microchip/xc8/v2.32/pic/sources/c90/common/lwmod.c
		___lwmod       		CODE           	0DA0	0000	58

/opt/microchip/xc8/v2.32/pic/sources/c90/common/lwmod.c estimated size: 58

/opt/microchip/xc8/v2.32/pic/sources/c90/common/Umul8_16.c
		__Umul8_16     		CODE           	0D16	0000	39

/opt/microchip/xc8/v2.32/pic/sources/c90/common/Umul8_16.c estimated size: 39

/opt/microchip/xc8/v2.32/pic/sources/c90/common/xxtofl.c
		___xxtofl      		CODE           	0F46	0000	186

/opt/microchip/xc8/v2.32/pic/sources/c90/common/xxtofl.c estimated size: 186

/media/user/software/simulide/tests/MCU/Test/16F88x/16F887_Vref/sources/testVref.c
		_main          		CODE           	0165	0000	308
		_ItoStr        		CODE           	007B	0000	234

/media/user/software/simulide/tests/MCU/Test/16F88x/16F887_Vref/sources/testVref.c estimated size: 542

/media/user/software/simulide/tests/MCU/Test/16F88x/16F887_Vref/sources/lcd_sintaxe_mikroc.c
		_Lcd_Init      		CODE           	0E9F	0000	167
		_Lcd_Cmd       		CODE           	0D3D	0000	45
		_Lcd_Goto      		CODE           	0D6A	0000	54
		_Lcd_Print     		CODE           	0DDA	0000	73
		_Lcd_Write     		CODE           	0006	0000	21
		_Lcd_Write_Nibble		CODE           	001B	0000	96

/media/user/software/simulide/tests/MCU/Test/16F88x/16F887_Vref/sources/lcd_sintaxe_mikroc.c estimated size: 456

/opt/microchip/xc8/v2.32/pic/sources/c90/common/sprcmul.c
		___flmul       		CODE           	0476	0000	865

/opt/microchip/xc8/v2.32/pic/sources/c90/common/sprcmul.c estimated size: 865

