gpasm-1.4.0 #1107 (Apr  3 2018) /media/user/s   2-13-2022  17:56:42         PAGE  1


LOC    OBJECT CODE    LINE  SOURCE TEXT
  VALUE

                      00001 ;Program compiled by Great Cow BASIC (0.98.<<>> 2021-<<>>-24 (Linux 64 bit) : Build 1005) for Microchip 
                            MPASM
                      00002 ;Need help? See the GCBASIC forums at http://sourceforge.net/projects/gcbasic/forums,
                      00003 ;check the documentation or email w_cholmondeley at users dot sourceforge dot net.
                      00004 
                      00005 ;********************************************************************************
                      00006 
                      00007 ;Set up the assembler options (Chip type, clock source, other bits and pieces)
                      00008  LIST p=16F876, r=DEC
                      00009 #include <P16F876.inc>
Warning[231]: Found lower case match for include filename.
                      00001         LIST
                      00002 
                      00003 ;==========================================================================
                      00004 ; Build date : Aug 07 2014
                      00005 ;  MPASM PIC16F876 processor include
                      00006 ; 
                      00007 ;  (c) Copyright 1999-2014 Microchip Technology, All rights reserved
                      00008 ;==========================================================================
                      00009 
                      00010         NOLIST
                      00011 
                      00012 ;==========================================================================
                      00013 ;  This header file defines configurations, registers, and other useful
                      00014 ;  bits of information for the PIC16F876 microcontroller.  These names
                      00015 ;  are taken to match the data sheets as closely as possible.
                      00016 ;
                      00017 ;  Note that the processor must be selected before this file is included.
                      00018 ;  The processor may be selected the following ways:
                      00019 ;
                      00020 ;       1. Command line switch:
                      00021 ;               C:\MPASM MYFILE.ASM /PIC16F876
                      00022 ;       2. LIST directive in the source file
                      00023 ;               LIST   P=PIC16F876
                      00024 ;       3. Processor Type entry in the MPASM full-screen interface
                      00025 ;       4. Setting the processor in the MPLAB Project Dialog
                      00026 ;==========================================================================
                      00027 
                      00028 ;==========================================================================
                      00029 ;
                      00030 ;       Verify Processor
                      00031 ;
                      00032 ;==========================================================================
                      00033         IFNDEF __16F876
                      00034            MESSG "Processor-header file mismatch.  Verify selected processor."
                      00035         ENDIF
                      00036 
                      00037 
                      00038 
                      00039 ;==========================================================================
                      00040 ;
                      00041 ;       Register Definitions
                      00042 ;
gpasm-1.4.0 #1107 (Apr  3 2018) /media/user/s   2-13-2022  17:56:42         PAGE  2


LOC    OBJECT CODE    LINE  SOURCE TEXT
  VALUE

                      00043 ;==========================================================================
                      00044 
  00000000            00045 W                EQU  H'0000'
  00000001            00046 F                EQU  H'0001'
                      00047 
                      00048 ;----- Register Files -----------------------------------------------------
                      00049 
                      00050 ;-----Bank0------------------
  00000000            00051 INDF             EQU  H'0000'
  00000001            00052 TMR0             EQU  H'0001'
  00000002            00053 PCL              EQU  H'0002'
  00000003            00054 STATUS           EQU  H'0003'
  00000004            00055 FSR              EQU  H'0004'
  00000005            00056 PORTA            EQU  H'0005'
  00000006            00057 PORTB            EQU  H'0006'
  00000007            00058 PORTC            EQU  H'0007'
  0000000A            00059 PCLATH           EQU  H'000A'
  0000000B            00060 INTCON           EQU  H'000B'
  0000000C            00061 PIR1             EQU  H'000C'
  0000000D            00062 PIR2             EQU  H'000D'
  0000000E            00063 TMR1             EQU  H'000E'
  0000000E            00064 TMR1L            EQU  H'000E'
  0000000F            00065 TMR1H            EQU  H'000F'
  00000010            00066 T1CON            EQU  H'0010'
  00000011            00067 TMR2             EQU  H'0011'
  00000012            00068 T2CON            EQU  H'0012'
  00000013            00069 SSPBUF           EQU  H'0013'
  00000014            00070 SSPCON           EQU  H'0014'
  00000015            00071 CCPR1            EQU  H'0015'
  00000015            00072 CCPR1L           EQU  H'0015'
  00000016            00073 CCPR1H           EQU  H'0016'
  00000017            00074 CCP1CON          EQU  H'0017'
  00000018            00075 RCSTA            EQU  H'0018'
  00000019            00076 TXREG            EQU  H'0019'
  0000001A            00077 RCREG            EQU  H'001A'
  0000001B            00078 CCPR2            EQU  H'001B'
  0000001B            00079 CCPR2L           EQU  H'001B'
  0000001C            00080 CCPR2H           EQU  H'001C'
  0000001D            00081 CCP2CON          EQU  H'001D'
  0000001E            00082 ADRESH           EQU  H'001E'
  0000001F            00083 ADCON0           EQU  H'001F'
                      00084 
                      00085 ;-----Bank1------------------
  00000081            00086 OPTION_REG       EQU  H'0081'
  00000085            00087 TRISA            EQU  H'0085'
  00000086            00088 TRISB            EQU  H'0086'
  00000087            00089 TRISC            EQU  H'0087'
  0000008C            00090 PIE1             EQU  H'008C'
  0000008D            00091 PIE2             EQU  H'008D'
  0000008E            00092 PCON             EQU  H'008E'
  00000091            00093 SSPCON2          EQU  H'0091'
  00000092            00094 PR2              EQU  H'0092'
  00000093            00095 SSPADD           EQU  H'0093'
gpasm-1.4.0 #1107 (Apr  3 2018) /media/user/s   2-13-2022  17:56:42         PAGE  3


LOC    OBJECT CODE    LINE  SOURCE TEXT
  VALUE

  00000094            00096 SSPSTAT          EQU  H'0094'
  00000098            00097 TXSTA            EQU  H'0098'
  00000099            00098 SPBRG            EQU  H'0099'
  0000009E            00099 ADRESL           EQU  H'009E'
  0000009F            00100 ADCON1           EQU  H'009F'
                      00101 
                      00102 ;-----Bank2------------------
  0000010C            00103 EEDATA           EQU  H'010C'
  0000010D            00104 EEADR            EQU  H'010D'
  0000010E            00105 EEDATH           EQU  H'010E'
  0000010F            00106 EEADRH           EQU  H'010F'
                      00107 
                      00108 ;-----Bank3------------------
  0000018C            00109 EECON1           EQU  H'018C'
  0000018D            00110 EECON2           EQU  H'018D'
                      00111 
                      00112 ;----- STATUS Bits -----------------------------------------------------
  00000000            00113 C                EQU  H'0000'
  00000001            00114 DC               EQU  H'0001'
  00000002            00115 Z                EQU  H'0002'
  00000003            00116 NOT_PD           EQU  H'0003'
  00000004            00117 NOT_TO           EQU  H'0004'
  00000007            00118 IRP              EQU  H'0007'
                      00119 
  00000005            00120 RP0              EQU  H'0005'
  00000006            00121 RP1              EQU  H'0006'
                      00122 
                      00123 
                      00124 ;----- PORTA Bits -----------------------------------------------------
  00000000            00125 RA0              EQU  H'0000'
  00000001            00126 RA1              EQU  H'0001'
  00000002            00127 RA2              EQU  H'0002'
  00000003            00128 RA3              EQU  H'0003'
  00000004            00129 RA4              EQU  H'0004'
  00000005            00130 RA5              EQU  H'0005'
                      00131 
                      00132 
                      00133 ;----- PORTB Bits -----------------------------------------------------
  00000000            00134 RB0              EQU  H'0000'
  00000001            00135 RB1              EQU  H'0001'
  00000002            00136 RB2              EQU  H'0002'
  00000003            00137 RB3              EQU  H'0003'
  00000004            00138 RB4              EQU  H'0004'
  00000005            00139 RB5              EQU  H'0005'
  00000006            00140 RB6              EQU  H'0006'
  00000007            00141 RB7              EQU  H'0007'
                      00142 
                      00143 
                      00144 ;----- PORTC Bits -----------------------------------------------------
  00000000            00145 RC0              EQU  H'0000'
  00000001            00146 RC1              EQU  H'0001'
  00000002            00147 RC2              EQU  H'0002'
  00000003            00148 RC3              EQU  H'0003'
gpasm-1.4.0 #1107 (Apr  3 2018) /media/user/s   2-13-2022  17:56:42         PAGE  4


LOC    OBJECT CODE    LINE  SOURCE TEXT
  VALUE

  00000004            00149 RC4              EQU  H'0004'
  00000005            00150 RC5              EQU  H'0005'
  00000006            00151 RC6              EQU  H'0006'
  00000007            00152 RC7              EQU  H'0007'
                      00153 
                      00154 
                      00155 ;----- INTCON Bits -----------------------------------------------------
  00000000            00156 RBIF             EQU  H'0000'
  00000001            00157 INTF             EQU  H'0001'
  00000002            00158 T0IF             EQU  H'0002'
  00000003            00159 RBIE             EQU  H'0003'
  00000004            00160 INTE             EQU  H'0004'
  00000005            00161 T0IE             EQU  H'0005'
  00000006            00162 PEIE             EQU  H'0006'
  00000007            00163 GIE              EQU  H'0007'
                      00164 
  00000002            00165 TMR0IF           EQU  H'0002'
  00000005            00166 TMR0IE           EQU  H'0005'
                      00167 
                      00168 
                      00169 ;----- PIR1 Bits -----------------------------------------------------
  00000000            00170 TMR1IF           EQU  H'0000'
  00000001            00171 TMR2IF           EQU  H'0001'
  00000002            00172 CCP1IF           EQU  H'0002'
  00000003            00173 SSPIF            EQU  H'0003'
  00000004            00174 TXIF             EQU  H'0004'
  00000005            00175 RCIF             EQU  H'0005'
  00000006            00176 ADIF             EQU  H'0006'
                      00177 
                      00178 
                      00179 ;----- PIR2 Bits -----------------------------------------------------
  00000000            00180 CCP2IF           EQU  H'0000'
  00000003            00181 BCLIF            EQU  H'0003'
  00000004            00182 EEIF             EQU  H'0004'
                      00183 
                      00184 
                      00185 ;----- T1CON Bits -----------------------------------------------------
  00000000            00186 TMR1ON           EQU  H'0000'
  00000001            00187 TMR1CS           EQU  H'0001'
  00000002            00188 NOT_T1SYNC       EQU  H'0002'
  00000003            00189 T1OSCEN          EQU  H'0003'
                      00190 
  00000004            00191 T1CKPS0          EQU  H'0004'
  00000005            00192 T1CKPS1          EQU  H'0005'
                      00193 
  00000002            00194 T1INSYNC         EQU  H'0002'
                      00195 
  00000002            00196 T1SYNC           EQU  H'0002'
                      00197 
                      00198 
                      00199 ;----- T2CON Bits -----------------------------------------------------
  00000002            00200 TMR2ON           EQU  H'0002'
                      00201 
gpasm-1.4.0 #1107 (Apr  3 2018) /media/user/s   2-13-2022  17:56:42         PAGE  5


LOC    OBJECT CODE    LINE  SOURCE TEXT
  VALUE

  00000000            00202 T2CKPS0          EQU  H'0000'
  00000001            00203 T2CKPS1          EQU  H'0001'
  00000003            00204 TOUTPS0          EQU  H'0003'
  00000004            00205 TOUTPS1          EQU  H'0004'
  00000005            00206 TOUTPS2          EQU  H'0005'
  00000006            00207 TOUTPS3          EQU  H'0006'
                      00208 
                      00209 
                      00210 ;----- SSPCON Bits -----------------------------------------------------
  00000004            00211 CKP              EQU  H'0004'
  00000005            00212 SSPEN            EQU  H'0005'
  00000006            00213 SSPOV            EQU  H'0006'
  00000007            00214 WCOL             EQU  H'0007'
                      00215 
  00000000            00216 SSPM0            EQU  H'0000'
  00000001            00217 SSPM1            EQU  H'0001'
  00000002            00218 SSPM2            EQU  H'0002'
  00000003            00219 SSPM3            EQU  H'0003'
                      00220 
                      00221 
                      00222 ;----- CCP1CON Bits -----------------------------------------------------
  00000004            00223 CCP1Y            EQU  H'0004'
  00000005            00224 CCP1X            EQU  H'0005'
                      00225 
  00000000            00226 CCP1M0           EQU  H'0000'
  00000001            00227 CCP1M1           EQU  H'0001'
  00000002            00228 CCP1M2           EQU  H'0002'
  00000003            00229 CCP1M3           EQU  H'0003'
                      00230 
                      00231 
                      00232 ;----- RCSTA Bits -----------------------------------------------------
  00000000            00233 RX9D             EQU  H'0000'
  00000001            00234 OERR             EQU  H'0001'
  00000002            00235 FERR             EQU  H'0002'
  00000003            00236 ADDEN            EQU  H'0003'
  00000004            00237 CREN             EQU  H'0004'
  00000005            00238 SREN             EQU  H'0005'
  00000006            00239 RX9              EQU  H'0006'
  00000007            00240 SPEN             EQU  H'0007'
                      00241 
  00000000            00242 RCD8             EQU  H'0000'
  00000006            00243 RC9              EQU  H'0006'
                      00244 
  00000006            00245 NOT_RC8          EQU  H'0006'
                      00246 
  00000006            00247 RC8_9            EQU  H'0006'
                      00248 
                      00249 
                      00250 ;----- CCP2CON Bits -----------------------------------------------------
  00000004            00251 CCP2Y            EQU  H'0004'
  00000005            00252 CCP2X            EQU  H'0005'
                      00253 
  00000000            00254 CCP2M0           EQU  H'0000'
gpasm-1.4.0 #1107 (Apr  3 2018) /media/user/s   2-13-2022  17:56:42         PAGE  6


LOC    OBJECT CODE    LINE  SOURCE TEXT
  VALUE

  00000001            00255 CCP2M1           EQU  H'0001'
  00000002            00256 CCP2M2           EQU  H'0002'
  00000003            00257 CCP2M3           EQU  H'0003'
                      00258 
                      00259 
                      00260 ;----- ADCON0 Bits -----------------------------------------------------
  00000000            00261 ADON             EQU  H'0000'
  00000002            00262 GO_NOT_DONE      EQU  H'0002'
                      00263 
  00000002            00264 GO               EQU  H'0002'
  00000003            00265 CHS0             EQU  H'0003'
  00000004            00266 CHS1             EQU  H'0004'
  00000005            00267 CHS2             EQU  H'0005'
  00000006            00268 ADCS0            EQU  H'0006'
  00000007            00269 ADCS1            EQU  H'0007'
                      00270 
  00000002            00271 NOT_DONE         EQU  H'0002'
                      00272 
  00000002            00273 GO_DONE          EQU  H'0002'
                      00274 
                      00275 
                      00276 ;----- OPTION_REG Bits -----------------------------------------------------
  00000003            00277 PSA              EQU  H'0003'
  00000004            00278 T0SE             EQU  H'0004'
  00000005            00279 T0CS             EQU  H'0005'
  00000006            00280 INTEDG           EQU  H'0006'
  00000007            00281 NOT_RBPU         EQU  H'0007'
                      00282 
  00000000            00283 PS0              EQU  H'0000'
  00000001            00284 PS1              EQU  H'0001'
  00000002            00285 PS2              EQU  H'0002'
                      00286 
                      00287 
                      00288 ;----- TRISA Bits -----------------------------------------------------
  00000000            00289 TRISA0           EQU  H'0000'
  00000001            00290 TRISA1           EQU  H'0001'
  00000002            00291 TRISA2           EQU  H'0002'
  00000003            00292 TRISA3           EQU  H'0003'
  00000004            00293 TRISA4           EQU  H'0004'
  00000005            00294 TRISA5           EQU  H'0005'
                      00295 
                      00296 
                      00297 ;----- TRISB Bits -----------------------------------------------------
  00000000            00298 TRISB0           EQU  H'0000'
  00000001            00299 TRISB1           EQU  H'0001'
  00000002            00300 TRISB2           EQU  H'0002'
  00000003            00301 TRISB3           EQU  H'0003'
  00000004            00302 TRISB4           EQU  H'0004'
  00000005            00303 TRISB5           EQU  H'0005'
  00000006            00304 TRISB6           EQU  H'0006'
  00000007            00305 TRISB7           EQU  H'0007'
                      00306 
                      00307 
gpasm-1.4.0 #1107 (Apr  3 2018) /media/user/s   2-13-2022  17:56:42         PAGE  7


LOC    OBJECT CODE    LINE  SOURCE TEXT
  VALUE

                      00308 ;----- TRISC Bits -----------------------------------------------------
  00000000            00309 TRISC0           EQU  H'0000'
  00000001            00310 TRISC1           EQU  H'0001'
  00000002            00311 TRISC2           EQU  H'0002'
  00000003            00312 TRISC3           EQU  H'0003'
  00000004            00313 TRISC4           EQU  H'0004'
  00000005            00314 TRISC5           EQU  H'0005'
  00000006            00315 TRISC6           EQU  H'0006'
  00000007            00316 TRISC7           EQU  H'0007'
                      00317 
                      00318 
                      00319 ;----- PIE1 Bits -----------------------------------------------------
  00000000            00320 TMR1IE           EQU  H'0000'
  00000001            00321 TMR2IE           EQU  H'0001'
  00000002            00322 CCP1IE           EQU  H'0002'
  00000003            00323 SSPIE            EQU  H'0003'
  00000004            00324 TXIE             EQU  H'0004'
  00000005            00325 RCIE             EQU  H'0005'
  00000006            00326 ADIE             EQU  H'0006'
                      00327 
                      00328 
                      00329 ;----- PIE2 Bits -----------------------------------------------------
  00000000            00330 CCP2IE           EQU  H'0000'
  00000003            00331 BCLIE            EQU  H'0003'
  00000004            00332 EEIE             EQU  H'0004'
                      00333 
                      00334 
                      00335 ;----- PCON Bits -----------------------------------------------------
  00000000            00336 NOT_BOR          EQU  H'0000'
  00000001            00337 NOT_POR          EQU  H'0001'
                      00338 
  00000000            00339 NOT_BO           EQU  H'0000'
                      00340 
                      00341 
                      00342 ;----- SSPCON2 Bits -----------------------------------------------------
  00000000            00343 SEN              EQU  H'0000'
  00000001            00344 RSEN             EQU  H'0001'
  00000002            00345 PEN              EQU  H'0002'
  00000003            00346 RCEN             EQU  H'0003'
  00000004            00347 ACKEN            EQU  H'0004'
  00000005            00348 ACKDT            EQU  H'0005'
  00000006            00349 ACKSTAT          EQU  H'0006'
  00000007            00350 GCEN             EQU  H'0007'
                      00351 
                      00352 
                      00353 ;----- SSPSTAT Bits -----------------------------------------------------
  00000000            00354 BF               EQU  H'0000'
  00000001            00355 UA               EQU  H'0001'
  00000002            00356 R_NOT_W          EQU  H'0002'
  00000003            00357 S                EQU  H'0003'
  00000004            00358 P                EQU  H'0004'
  00000005            00359 D_NOT_A          EQU  H'0005'
  00000006            00360 CKE              EQU  H'0006'
gpasm-1.4.0 #1107 (Apr  3 2018) /media/user/s   2-13-2022  17:56:42         PAGE  8


LOC    OBJECT CODE    LINE  SOURCE TEXT
  VALUE

  00000007            00361 SMP              EQU  H'0007'
                      00362 
  00000002            00363 R                EQU  H'0002'
  00000005            00364 D                EQU  H'0005'
                      00365 
  00000002            00366 I2C_READ         EQU  H'0002'
  00000003            00367 I2C_START        EQU  H'0003'
  00000004            00368 I2C_STOP         EQU  H'0004'
  00000005            00369 I2C_DATA         EQU  H'0005'
                      00370 
  00000002            00371 NOT_W            EQU  H'0002'
  00000005            00372 NOT_A            EQU  H'0005'
                      00373 
  00000002            00374 NOT_WRITE        EQU  H'0002'
  00000005            00375 NOT_ADDRESS      EQU  H'0005'
                      00376 
  00000002            00377 R_W              EQU  H'0002'
  00000005            00378 D_A              EQU  H'0005'
                      00379 
  00000002            00380 READ_WRITE       EQU  H'0002'
  00000005            00381 DATA_ADDRESS     EQU  H'0005'
                      00382 
                      00383 
                      00384 ;----- TXSTA Bits -----------------------------------------------------
  00000000            00385 TX9D             EQU  H'0000'
  00000001            00386 TRMT             EQU  H'0001'
  00000002            00387 BRGH             EQU  H'0002'
  00000004            00388 SYNC             EQU  H'0004'
  00000005            00389 TXEN             EQU  H'0005'
  00000006            00390 TX9              EQU  H'0006'
  00000007            00391 CSRC             EQU  H'0007'
                      00392 
  00000000            00393 TXD8             EQU  H'0000'
  00000006            00394 NOT_TX8          EQU  H'0006'
                      00395 
  00000006            00396 TX8_9            EQU  H'0006'
                      00397 
                      00398 
                      00399 ;----- ADCON1 Bits -----------------------------------------------------
  00000007            00400 ADFM             EQU  H'0007'
                      00401 
  00000000            00402 PCFG0            EQU  H'0000'
  00000001            00403 PCFG1            EQU  H'0001'
  00000002            00404 PCFG2            EQU  H'0002'
  00000003            00405 PCFG3            EQU  H'0003'
                      00406 
                      00407 
                      00408 ;----- EECON1 Bits -----------------------------------------------------
  00000000            00409 RD               EQU  H'0000'
  00000001            00410 WR               EQU  H'0001'
  00000002            00411 WREN             EQU  H'0002'
  00000003            00412 WRERR            EQU  H'0003'
  00000007            00413 EEPGD            EQU  H'0007'
gpasm-1.4.0 #1107 (Apr  3 2018) /media/user/s   2-13-2022  17:56:42         PAGE  9


LOC    OBJECT CODE    LINE  SOURCE TEXT
  VALUE

                      00414 
                      00415 
                      00416 
                      00417 
                      00418 ;==========================================================================
                      00419 ;
                      00420 ;       RAM Definitions
                      00421 ;
                      00422 ;==========================================================================
  000001FF            00423        __MAXRAM  H'01FF'
                      00424        __BADRAM  H'0008'-H'0009'
                      00425        __BADRAM  H'0088'-H'0089'
                      00426        __BADRAM  H'008F'-H'0090'
                      00427        __BADRAM  H'0095'-H'0097'
                      00428        __BADRAM  H'009A'-H'009D'
                      00429        __BADRAM  H'0105'
                      00430        __BADRAM  H'0107'-H'0109'
                      00431        __BADRAM  H'0185'
                      00432        __BADRAM  H'0187'-H'0189'
                      00433        __BADRAM  H'018E'-H'018F'
                      00434 
                      00435 ;==========================================================================
                      00436 ;
                      00437 ;       Configuration Bits
                      00438 ;
                      00439 ;   NAME            Address
                      00440 ;   CONFIG            2007h
                      00441 ;
                      00442 ;==========================================================================
                      00443 
                      00444 ; The following is an assignment of address values for all of the
                      00445 ; configuration registers for the purpose of table reads
  00002007            00446 _CONFIG          EQU  H'2007'
                      00447 
                      00448 ;----- CONFIG Options --------------------------------------------------
  00003FFC            00449 _FOSC_LP             EQU  H'3FFC'    ; LP oscillator
  00003FFC            00450 _LP_OSC              EQU  H'3FFC'    ; LP oscillator
  00003FFD            00451 _FOSC_XT             EQU  H'3FFD'    ; XT oscillator
  00003FFD            00452 _XT_OSC              EQU  H'3FFD'    ; XT oscillator
  00003FFE            00453 _FOSC_HS             EQU  H'3FFE'    ; HS oscillator
  00003FFE            00454 _HS_OSC              EQU  H'3FFE'    ; HS oscillator
  00003FFF            00455 _FOSC_EXTRC          EQU  H'3FFF'    ; RC oscillator
  00003FFF            00456 _RC_OSC              EQU  H'3FFF'    ; RC oscillator
                      00457 
  00003FFB            00458 _WDTE_OFF            EQU  H'3FFB'    ; WDT disabled
  00003FFB            00459 _WDT_OFF             EQU  H'3FFB'    ; WDT disabled
  00003FFF            00460 _WDTE_ON             EQU  H'3FFF'    ; WDT enabled
  00003FFF            00461 _WDT_ON              EQU  H'3FFF'    ; WDT enabled
                      00462 
  00003FF7            00463 _PWRTE_ON            EQU  H'3FF7'    ; PWRT enabled
  00003FFF            00464 _PWRTE_OFF           EQU  H'3FFF'    ; PWRT disabled
                      00465 
  00000FCF            00466 _CP_ALL              EQU  H'0FCF'    ; 0000h to 1FFFh code protected
gpasm-1.4.0 #1107 (Apr  3 2018) /media/user/s   2-13-2022  17:56:42         PAGE 10


LOC    OBJECT CODE    LINE  SOURCE TEXT
  VALUE

  00001FDF            00467 _CP_HALF             EQU  H'1FDF'    ; 1000h to 1FFFh code protected
  00002FEF            00468 _CP_UPPER_256        EQU  H'2FEF'    ; 1F00h to 1FFFh code protected
  00003FFF            00469 _CP_OFF              EQU  H'3FFF'    ; Code protection off
                      00470 
  00003FBF            00471 _BOREN_OFF           EQU  H'3FBF'    ; BOR disabled
  00003FBF            00472 _BODEN_OFF           EQU  H'3FBF'    ; BOR disabled
  00003FFF            00473 _BOREN_ON            EQU  H'3FFF'    ; BOR enabled
  00003FFF            00474 _BODEN_ON            EQU  H'3FFF'    ; BOR enabled
                      00475 
  00003F7F            00476 _LVP_OFF             EQU  H'3F7F'    ; RB3 is digital I/O, HV on MCLR must be used for programming
  00003FFF            00477 _LVP_ON              EQU  H'3FFF'    ; RB3/PGM pin has PGM function; low-voltage programming enabled
                      00478 
  00003EFF            00479 _CPD_ON              EQU  H'3EFF'    ; Data EEPROM memory code-protected
  00003FFF            00480 _CPD_OFF             EQU  H'3FFF'    ; Code Protection off
                      00481 
  00003DFF            00482 _WRT_OFF             EQU  H'3DFF'    ; Unprotected program memory may not be written to by EECON control
  00003DFF            00483 _WRT_ENABLE_OFF      EQU  H'3DFF'    ; Unprotected program memory may not be written to by EECON control
  00003FFF            00484 _WRT_ON              EQU  H'3FFF'    ; Unprotected program memory may be written to by EECON control
  00003FFF            00485 _WRT_ENABLE_ON       EQU  H'3FFF'    ; Unprotected program memory may be written to by EECON control
                      00486 
  000037FF            00487 _DEBUG_ON            EQU  H'37FF'    ; In-Circuit Debugger enabled, RB6 and RB7 are dedicated to the deb
                            ugger
  00003FFF            00488 _DEBUG_OFF           EQU  H'3FFF'    ; In-Circuit Debugger disabled, RB6 and RB7 are general purpose I/O
                             pins
                      00489 
                      00490 ;----- DEVID Equates --------------------------------------------------
  00002006            00491 _DEVID1          EQU  H'2006'
                      00492 
                      00493 ;----- IDLOC Equates --------------------------------------------------
  00002000            00494 _IDLOC0          EQU  H'2000'
  00002001            00495 _IDLOC1          EQU  H'2001'
  00002002            00496 _IDLOC2          EQU  H'2002'
  00002003            00497 _IDLOC3          EQU  H'2003'
                      00498 
                      00499         LIST
2007   3D7A           00010  __CONFIG _WRT_OFF & _CPD_OFF & _LVP_OFF & _CP_OFF & _WDTE_OFF & _FOSC_HS
                      00011 
                      00012 ;********************************************************************************
                      00013 
                      00014 ;Set aside memory locations for variables
  00000070            00015 DELAYTEMP                        EQU 112
  00000071            00016 DELAYTEMP2                       EQU 113
  00000020            00017 I2CACK                           EQU 32
  00000021            00018 I2CACKPOLLSTATE                  EQU 33
  00000022            00019 I2CBYTE                          EQU 34
  00000023            00020 I2CMATCH                         EQU 35
  00000024            00021 I2CSTATE                         EQU 36
  00000025            00022 I2C_LCD_BYTE                     EQU 37
  00000026            00023 LCDBYTE                          EQU 38
  00000027            00024 LCDCOLUMN                        EQU 39
  00000028            00025 LCDCRSR                          EQU 40
  00000029            00026 LCDLINE                          EQU 41
  0000002A            00027 LCDTEMP                          EQU 42
gpasm-1.4.0 #1107 (Apr  3 2018) /media/user/s   2-13-2022  17:56:42         PAGE 11


LOC    OBJECT CODE    LINE  SOURCE TEXT
  VALUE

  0000002B            00028 LCD_BACKLIGHT                    EQU 43
  0000002C            00029 LCD_I2C_ADDRESS_CURRENT          EQU 44
  0000002D            00030 LCD_STATE                        EQU 45
  0000002E            00031 PRINTLEN                         EQU 46
  0000002F            00032 STRINGPOINTER                    EQU 47
  00000075            00033 SYSBYTETEMPA                     EQU 117
  00000079            00034 SYSBYTETEMPB                     EQU 121
  00000070            00035 SYSBYTETEMPX                     EQU 112
  00000075            00036 SYSCALCTEMPA                     EQU 117
  00000030            00037 SYSLCDTEMP                       EQU 48
  00000031            00038 SYSPRINTDATAHANDLER              EQU 49
  00000032            00039 SYSPRINTDATAHANDLER_H            EQU 50
  00000033            00040 SYSPRINTTEMP                     EQU 51
  00000034            00041 SYSREPEATTEMP1                   EQU 52
  00000035            00042 SYSREPEATTEMP2                   EQU 53
  00000036            00043 SYSREPEATTEMP3                   EQU 54
  00000077            00044 SYSSTRINGA                       EQU 119
  00000078            00045 SYSSTRINGA_H                     EQU 120
  00000072            00046 SYSSTRINGB                       EQU 114
  00000073            00047 SYSSTRINGB_H                     EQU 115
  00000076            00048 SYSSTRINGLENGTH                  EQU 118
  000001DF            00049 SYSSTRINGPARAM1                  EQU 479
  00000037            00050 SYSTEMP1                         EQU 55
  00000038            00051 SYSTEMP2                         EQU 56
  00000075            00052 SYSWAITTEMP10US                  EQU 117
  00000072            00053 SYSWAITTEMPMS                    EQU 114
  00000073            00054 SYSWAITTEMPMS_H                  EQU 115
  00000074            00055 SYSWAITTEMPS                     EQU 116
  00000075            00056 SYSWAITTEMPUS                    EQU 117
  00000076            00057 SYSWAITTEMPUS_H                  EQU 118
                      00058 
                      00059 ;********************************************************************************
                      00060 
                      00061 ;Vectors
0000                  00062         ORG     0
0000   118A 120A      00063         pagesel BASPROGRAMSTART
0002   2805           00064         goto    BASPROGRAMSTART
0004                  00065         ORG     4
0004   0009           00066         retfie
                      00067 
                      00068 ;********************************************************************************
                      00069 
                      00070 ;Start of program memory page 0
0005                  00071         ORG     5
0005                  00072 BASPROGRAMSTART
                      00073 ;Call initialisation routines
0005   2282           00074         call    INITSYS
0006   2224           00075         call    INITI2C
0007   2271           00076         call    INITLCD
                      00077 
                      00078 ;Start of the main program
0008   30DF           00079         movlw   low SYSSTRINGPARAM1
0009   00F2           00080         movwf   SysStringB
gpasm-1.4.0 #1107 (Apr  3 2018) /media/user/s   2-13-2022  17:56:42         PAGE 12


LOC    OBJECT CODE    LINE  SOURCE TEXT
  VALUE

000A   3001           00081         movlw   high SYSSTRINGPARAM1
000B   00F3           00082         movwf   SysStringB_H
000C   309B           00083         movlw   low StringTable1
000D   00F7           00084         movwf   SysStringA
000E   3003           00085         movlw   high StringTable1
000F   00F8           00086         movwf   SysStringA_H
0010   2378           00087         call    SYSREADSTRING
0011   30DF           00088         movlw   low SYSSTRINGPARAM1
0012   00B1           00089         movwf   SysPRINTDATAHandler
0013   3001           00090         movlw   high SYSSTRINGPARAM1
0014   00B2           00091         movwf   SysPRINTDATAHandler_H
0015   2344           00092         call    PRINT106
0016   3001           00093         movlw   1
0017   00F4           00094         movwf   SysWaitTempS
0018   2197           00095         call    Delay_S
0019                  00096 SysDoLoop_S1
0019   2171           00097         call    CLS
001A   3003           00098         movlw   3
001B   00F4           00099         movwf   SysWaitTempS
001C   2197           00100         call    Delay_S
001D   30DF           00101         movlw   low SYSSTRINGPARAM1
001E   00F2           00102         movwf   SysStringB
001F   3001           00103         movlw   high SYSSTRINGPARAM1
0020   00F3           00104         movwf   SysStringB_H
0021   30AB           00105         movlw   low StringTable2
0022   00F7           00106         movwf   SysStringA
0023   3003           00107         movlw   high StringTable2
0024   00F8           00108         movwf   SysStringA_H
0025   2378           00109         call    SYSREADSTRING
0026   30DF           00110         movlw   low SYSSTRINGPARAM1
0027   00B1           00111         movwf   SysPRINTDATAHandler
0028   3001           00112         movlw   high SYSSTRINGPARAM1
0029   00B2           00113         movwf   SysPRINTDATAHandler_H
002A   2344           00114         call    PRINT106
002B   3001           00115         movlw   1
002C   00A9           00116         movwf   LCDLINE
002D   01A7           00117         clrf    LCDCOLUMN
002E   232C           00118         call    LOCATE
002F   30DF           00119         movlw   low SYSSTRINGPARAM1
0030   00F2           00120         movwf   SysStringB
0031   3001           00121         movlw   high SYSSTRINGPARAM1
0032   00F3           00122         movwf   SysStringB_H
0033   30B6           00123         movlw   low StringTable3
0034   00F7           00124         movwf   SysStringA
0035   3003           00125         movlw   high StringTable3
0036   00F8           00126         movwf   SysStringA_H
0037   2378           00127         call    SYSREADSTRING
0038   30DF           00128         movlw   low SYSSTRINGPARAM1
0039   00B1           00129         movwf   SysPRINTDATAHandler
003A   3001           00130         movlw   high SYSSTRINGPARAM1
003B   00B2           00131         movwf   SysPRINTDATAHandler_H
003C   2344           00132         call    PRINT106
003D   3003           00133         movlw   3
gpasm-1.4.0 #1107 (Apr  3 2018) /media/user/s   2-13-2022  17:56:42         PAGE 13


LOC    OBJECT CODE    LINE  SOURCE TEXT
  VALUE

003E   00F4           00134         movwf   SysWaitTempS
003F   2197           00135         call    Delay_S
0040   2171           00136         call    CLS
0041   01A9           00137         clrf    LCDLINE
0042   01A7           00138         clrf    LCDCOLUMN
0043   232C           00139         call    LOCATE
0044   30DF           00140         movlw   low SYSSTRINGPARAM1
0045   00F2           00141         movwf   SysStringB
0046   3001           00142         movlw   high SYSSTRINGPARAM1
0047   00F3           00143         movwf   SysStringB_H
0048   30C1           00144         movlw   low StringTable4
0049   00F7           00145         movwf   SysStringA
004A   3003           00146         movlw   high StringTable4
004B   00F8           00147         movwf   SysStringA_H
004C   2378           00148         call    SYSREADSTRING
004D   30DF           00149         movlw   low SYSSTRINGPARAM1
004E   00B1           00150         movwf   SysPRINTDATAHandler
004F   3001           00151         movlw   high SYSSTRINGPARAM1
0050   00B2           00152         movwf   SysPRINTDATAHandler_H
0051   2344           00153         call    PRINT106
0052   3001           00154         movlw   1
0053   00A9           00155         movwf   LCDLINE
0054   01A7           00156         clrf    LCDCOLUMN
0055   232C           00157         call    LOCATE
0056   300A           00158         movlw   10
0057   00A8           00159         movwf   LCDCRSR
0058   229F           00160         call    LCDCURSOR
0059   3003           00161         movlw   3
005A   00F4           00162         movwf   SysWaitTempS
005B   2197           00163         call    Delay_S
005C   2171           00164         call    CLS
005D   300D           00165         movlw   13
005E   00A8           00166         movwf   LCDCRSR
005F   229F           00167         call    LCDCURSOR
0060   01A9           00168         clrf    LCDLINE
0061   01A7           00169         clrf    LCDCOLUMN
0062   232C           00170         call    LOCATE
0063   30DF           00171         movlw   low SYSSTRINGPARAM1
0064   00F2           00172         movwf   SysStringB
0065   3001           00173         movlw   high SYSSTRINGPARAM1
0066   00F3           00174         movwf   SysStringB_H
0067   30CB           00175         movlw   low StringTable5
0068   00F7           00176         movwf   SysStringA
0069   3003           00177         movlw   high StringTable5
006A   00F8           00178         movwf   SysStringA_H
006B   2378           00179         call    SYSREADSTRING
006C   30DF           00180         movlw   low SYSSTRINGPARAM1
006D   00B1           00181         movwf   SysPRINTDATAHandler
006E   3001           00182         movlw   high SYSSTRINGPARAM1
006F   00B2           00183         movwf   SysPRINTDATAHandler_H
0070   2344           00184         call    PRINT106
0071   3003           00185         movlw   3
0072   00F4           00186         movwf   SysWaitTempS
gpasm-1.4.0 #1107 (Apr  3 2018) /media/user/s   2-13-2022  17:56:42         PAGE 14


LOC    OBJECT CODE    LINE  SOURCE TEXT
  VALUE

0073   2197           00187         call    Delay_S
0074   2171           00188         call    CLS
0075   01A9           00189         clrf    LCDLINE
0076   01A7           00190         clrf    LCDCOLUMN
0077   232C           00191         call    LOCATE
0078   30DF           00192         movlw   low SYSSTRINGPARAM1
0079   00F2           00193         movwf   SysStringB
007A   3001           00194         movlw   high SYSSTRINGPARAM1
007B   00F3           00195         movwf   SysStringB_H
007C   30D6           00196         movlw   low StringTable6
007D   00F7           00197         movwf   SysStringA
007E   3003           00198         movlw   high StringTable6
007F   00F8           00199         movwf   SysStringA_H
0080   2378           00200         call    SYSREADSTRING
0081   30DF           00201         movlw   low SYSSTRINGPARAM1
0082   00B1           00202         movwf   SysPRINTDATAHandler
0083   3001           00203         movlw   high SYSSTRINGPARAM1
0084   00B2           00204         movwf   SysPRINTDATAHandler_H
0085   2344           00205         call    PRINT106
0086   3001           00206         movlw   1
0087   00A9           00207         movwf   LCDLINE
0088   01A7           00208         clrf    LCDCOLUMN
0089   232C           00209         call    LOCATE
008A   3009           00210         movlw   9
008B   00A8           00211         movwf   LCDCRSR
008C   229F           00212         call    LCDCURSOR
008D   3003           00213         movlw   3
008E   00F4           00214         movwf   SysWaitTempS
008F   2197           00215         call    Delay_S
0090   2171           00216         call    CLS
0091   01A9           00217         clrf    LCDLINE
0092   01A7           00218         clrf    LCDCOLUMN
0093   232C           00219         call    LOCATE
0094   30DF           00220         movlw   low SYSSTRINGPARAM1
0095   00F2           00221         movwf   SysStringB
0096   3001           00222         movlw   high SYSSTRINGPARAM1
0097   00F3           00223         movwf   SysStringB_H
0098   30DF           00224         movlw   low StringTable7
0099   00F7           00225         movwf   SysStringA
009A   3003           00226         movlw   high StringTable7
009B   00F8           00227         movwf   SysStringA_H
009C   2378           00228         call    SYSREADSTRING
009D   30DF           00229         movlw   low SYSSTRINGPARAM1
009E   00B1           00230         movwf   SysPRINTDATAHandler
009F   3001           00231         movlw   high SYSSTRINGPARAM1
00A0   00B2           00232         movwf   SysPRINTDATAHandler_H
00A1   2344           00233         call    PRINT106
00A2   300E           00234         movlw   14
00A3   00A8           00235         movwf   LCDCRSR
00A4   229F           00236         call    LCDCURSOR
00A5   3003           00237         movlw   3
00A6   00F4           00238         movwf   SysWaitTempS
00A7   2197           00239         call    Delay_S
gpasm-1.4.0 #1107 (Apr  3 2018) /media/user/s   2-13-2022  17:56:42         PAGE 15


LOC    OBJECT CODE    LINE  SOURCE TEXT
  VALUE

00A8   01A9           00240         clrf    LCDLINE
00A9   01A7           00241         clrf    LCDCOLUMN
00AA   232C           00242         call    LOCATE
00AB   30DF           00243         movlw   low SYSSTRINGPARAM1
00AC   00F2           00244         movwf   SysStringB
00AD   3001           00245         movlw   high SYSSTRINGPARAM1
00AE   00F3           00246         movwf   SysStringB_H
00AF   30E9           00247         movlw   low StringTable8
00B0   00F7           00248         movwf   SysStringA
00B1   3003           00249         movlw   high StringTable8
00B2   00F8           00250         movwf   SysStringA_H
00B3   2378           00251         call    SYSREADSTRING
00B4   30DF           00252         movlw   low SYSSTRINGPARAM1
00B5   00B1           00253         movwf   SysPRINTDATAHandler
00B6   3001           00254         movlw   high SYSSTRINGPARAM1
00B7   00B2           00255         movwf   SysPRINTDATAHandler_H
00B8   2344           00256         call    PRINT106
00B9   3001           00257         movlw   1
00BA   00A9           00258         movwf   LCDLINE
00BB   01A7           00259         clrf    LCDCOLUMN
00BC   232C           00260         call    LOCATE
00BD   300A           00261         movlw   10
00BE   00A8           00262         movwf   LCDCRSR
00BF   229F           00263         call    LCDCURSOR
00C0   3009           00264         movlw   9
00C1   00A8           00265         movwf   LCDCRSR
00C2   229F           00266         call    LCDCURSOR
00C3   3003           00267         movlw   3
00C4   00F4           00268         movwf   SysWaitTempS
00C5   2197           00269         call    Delay_S
00C6   01A9           00270         clrf    LCDLINE
00C7   01A7           00271         clrf    LCDCOLUMN
00C8   232C           00272         call    LOCATE
00C9   30DF           00273         movlw   low SYSSTRINGPARAM1
00CA   00F2           00274         movwf   SysStringB
00CB   3001           00275         movlw   high SYSSTRINGPARAM1
00CC   00F3           00276         movwf   SysStringB_H
00CD   30F9           00277         movlw   low StringTable9
00CE   00F7           00278         movwf   SysStringA
00CF   3003           00279         movlw   high StringTable9
00D0   00F8           00280         movwf   SysStringA_H
00D1   2378           00281         call    SYSREADSTRING
00D2   30DF           00282         movlw   low SYSSTRINGPARAM1
00D3   00B1           00283         movwf   SysPRINTDATAHandler
00D4   3001           00284         movlw   high SYSSTRINGPARAM1
00D5   00B2           00285         movwf   SysPRINTDATAHandler_H
00D6   2344           00286         call    PRINT106
00D7   3001           00287         movlw   1
00D8   00A9           00288         movwf   LCDLINE
00D9   01A7           00289         clrf    LCDCOLUMN
00DA   232C           00290         call    LOCATE
00DB   300D           00291         movlw   13
00DC   00A8           00292         movwf   LCDCRSR
gpasm-1.4.0 #1107 (Apr  3 2018) /media/user/s   2-13-2022  17:56:42         PAGE 16


LOC    OBJECT CODE    LINE  SOURCE TEXT
  VALUE

00DD   229F           00293         call    LCDCURSOR
00DE   300E           00294         movlw   14
00DF   00A8           00295         movwf   LCDCRSR
00E0   229F           00296         call    LCDCURSOR
00E1   3003           00297         movlw   3
00E2   00F4           00298         movwf   SysWaitTempS
00E3   2197           00299         call    Delay_S
00E4   2171           00300         call    CLS
00E5   01A9           00301         clrf    LCDLINE
00E6   3004           00302         movlw   4
00E7   00A7           00303         movwf   LCDCOLUMN
00E8   232C           00304         call    LOCATE
00E9   30DF           00305         movlw   low SYSSTRINGPARAM1
00EA   00F2           00306         movwf   SysStringB
00EB   3001           00307         movlw   high SYSSTRINGPARAM1
00EC   00F3           00308         movwf   SysStringB_H
00ED   300A           00309         movlw   low StringTable10
00EE   00F7           00310         movwf   SysStringA
00EF   3004           00311         movlw   high StringTable10
00F0   00F8           00312         movwf   SysStringA_H
00F1   2378           00313         call    SYSREADSTRING
00F2   30DF           00314         movlw   low SYSSTRINGPARAM1
00F3   00B1           00315         movwf   SysPRINTDATAHandler
00F4   3001           00316         movlw   high SYSSTRINGPARAM1
00F5   00B2           00317         movwf   SysPRINTDATAHandler_H
00F6   2344           00318         call    PRINT106
00F7   3001           00319         movlw   1
00F8   00A9           00320         movwf   LCDLINE
00F9   3004           00321         movlw   4
00FA   00A7           00322         movwf   LCDCOLUMN
00FB   232C           00323         call    LOCATE
00FC   30DF           00324         movlw   low SYSSTRINGPARAM1
00FD   00F2           00325         movwf   SysStringB
00FE   3001           00326         movlw   high SYSSTRINGPARAM1
00FF   00F3           00327         movwf   SysStringB_H
0100   3013           00328         movlw   low StringTable11
0101   00F7           00329         movwf   SysStringA
0102   3004           00330         movlw   high StringTable11
0103   00F8           00331         movwf   SysStringA_H
0104   2378           00332         call    SYSREADSTRING
0105   30DF           00333         movlw   low SYSSTRINGPARAM1
0106   00B1           00334         movwf   SysPRINTDATAHandler
0107   3001           00335         movlw   high SYSSTRINGPARAM1
0108   00B2           00336         movwf   SysPRINTDATAHandler_H
0109   2344           00337         call    PRINT106
010A   30F4           00338         movlw   244
010B   00F2           00339         movwf   SysWaitTempMS
010C   3001           00340         movlw   1
010D   00F3           00341         movwf   SysWaitTempMS_H
010E   2189           00342         call    Delay_MS
010F   300A           00343         movlw   10
0110   00B4           00344         movwf   SysRepeatTemp1
0111                  00345 SysRepeatLoop1
gpasm-1.4.0 #1107 (Apr  3 2018) /media/user/s   2-13-2022  17:56:42         PAGE 17


LOC    OBJECT CODE    LINE  SOURCE TEXT
  VALUE

0111   300B           00346         movlw   11
0112   00A8           00347         movwf   LCDCRSR
0113   229F           00348         call    LCDCURSOR
0114   30F4           00349         movlw   244
0115   00F2           00350         movwf   SysWaitTempMS
0116   3001           00351         movlw   1
0117   00F3           00352         movwf   SysWaitTempMS_H
0118   2189           00353         call    Delay_MS
0119   300C           00354         movlw   12
011A   00A8           00355         movwf   LCDCRSR
011B   229F           00356         call    LCDCURSOR
011C   30F4           00357         movlw   244
011D   00F2           00358         movwf   SysWaitTempMS
011E   3001           00359         movlw   1
011F   00F3           00360         movwf   SysWaitTempMS_H
0120   2189           00361         call    Delay_MS
0121   0BB4           00362         decfsz  SysRepeatTemp1,F
0122   2911           00363         goto    SysRepeatLoop1
0123                  00364 SysRepeatLoopEnd1
0123   2171           00365         call    CLS
0124   01A9           00366         clrf    LCDLINE
0125   01A7           00367         clrf    LCDCOLUMN
0126   232C           00368         call    LOCATE
0127   30DF           00369         movlw   low SYSSTRINGPARAM1
0128   00F2           00370         movwf   SysStringB
0129   3001           00371         movlw   high SYSSTRINGPARAM1
012A   00F3           00372         movwf   SysStringB_H
012B   301B           00373         movlw   low StringTable12
012C   00F7           00374         movwf   SysStringA
012D   3004           00375         movlw   high StringTable12
012E   00F8           00376         movwf   SysStringA_H
012F   2378           00377         call    SYSREADSTRING
0130   30DF           00378         movlw   low SYSSTRINGPARAM1
0131   00B1           00379         movwf   SysPRINTDATAHandler
0132   3001           00380         movlw   high SYSSTRINGPARAM1
0133   00B2           00381         movwf   SysPRINTDATAHandler_H
0134   2344           00382         call    PRINT106
0135   3001           00383         movlw   1
0136   00A9           00384         movwf   LCDLINE
0137   01A7           00385         clrf    LCDCOLUMN
0138   232C           00386         call    LOCATE
0139   30DF           00387         movlw   low SYSSTRINGPARAM1
013A   00F2           00388         movwf   SysStringB
013B   3001           00389         movlw   high SYSSTRINGPARAM1
013C   00F3           00390         movwf   SysStringB_H
013D   302C           00391         movlw   low StringTable13
013E   00F7           00392         movwf   SysStringA
013F   3004           00393         movlw   high StringTable13
0140   00F8           00394         movwf   SysStringA_H
0141   2378           00395         call    SYSREADSTRING
0142   30DF           00396         movlw   low SYSSTRINGPARAM1
0143   00B1           00397         movwf   SysPRINTDATAHandler
0144   3001           00398         movlw   high SYSSTRINGPARAM1
gpasm-1.4.0 #1107 (Apr  3 2018) /media/user/s   2-13-2022  17:56:42         PAGE 18


LOC    OBJECT CODE    LINE  SOURCE TEXT
  VALUE

0145   00B2           00399         movwf   SysPRINTDATAHandler_H
0146   2344           00400         call    PRINT106
0147   3002           00401         movlw   2
0148   00F4           00402         movwf   SysWaitTempS
0149   2197           00403         call    Delay_S
014A   300B           00404         movlw   11
014B   00A8           00405         movwf   LCDCRSR
014C   229F           00406         call    LCDCURSOR
014D   01AA           00407         clrf    LCDTEMP
014E   2294           00408         call    LCDBACKLIGHT
014F   3005           00409         movlw   5
0150   00F4           00410         movwf   SysWaitTempS
0151   2197           00411         call    Delay_S
0152   3001           00412         movlw   1
0153   00AA           00413         movwf   LCDTEMP
0154   2294           00414         call    LCDBACKLIGHT
0155   2171           00415         call    CLS
0156   01A9           00416         clrf    LCDLINE
0157   01A7           00417         clrf    LCDCOLUMN
0158   232C           00418         call    LOCATE
0159   300C           00419         movlw   12
015A   00A8           00420         movwf   LCDCRSR
015B   229F           00421         call    LCDCURSOR
015C   30DF           00422         movlw   low SYSSTRINGPARAM1
015D   00F2           00423         movwf   SysStringB
015E   3001           00424         movlw   high SYSSTRINGPARAM1
015F   00F3           00425         movwf   SysStringB_H
0160   3036           00426         movlw   low StringTable14
0161   00F7           00427         movwf   SysStringA
0162   3004           00428         movlw   high StringTable14
0163   00F8           00429         movwf   SysStringA_H
0164   2378           00430         call    SYSREADSTRING
0165   30DF           00431         movlw   low SYSSTRINGPARAM1
0166   00B1           00432         movwf   SysPRINTDATAHandler
0167   3001           00433         movlw   high SYSSTRINGPARAM1
0168   00B2           00434         movwf   SysPRINTDATAHandler_H
0169   2344           00435         call    PRINT106
016A   3003           00436         movlw   3
016B   00F4           00437         movwf   SysWaitTempS
016C   2197           00438         call    Delay_S
016D   2819           00439         goto    SysDoLoop_S1
016E                  00440 SysDoLoop_E1
016E   296F           00441         goto    BASPROGRAMEND
016F                  00442 BASPROGRAMEND
016F   0063           00443         sleep
0170   296F           00444         goto    BASPROGRAMEND
                      00445 
                      00446 ;********************************************************************************
                      00447 
0171                  00448 CLS
0171   10B0           00449         bcf     SYSLCDTEMP,1
0172   3001           00450         movlw   1
0173   00A6           00451         movwf   LCDBYTE
gpasm-1.4.0 #1107 (Apr  3 2018) /media/user/s   2-13-2022  17:56:42         PAGE 19


LOC    OBJECT CODE    LINE  SOURCE TEXT
  VALUE

0174   22E3           00452         call    LCDNORMALWRITEBYTE
0175   3004           00453         movlw   4
0176   00F2           00454         movwf   SysWaitTempMS
0177   01F3           00455         clrf    SysWaitTempMS_H
0178   2189           00456         call    Delay_MS
0179   3080           00457         movlw   128
017A   00A6           00458         movwf   LCDBYTE
017B   22E3           00459         call    LCDNORMALWRITEBYTE
017C   3042           00460         movlw   66
017D   00F0           00461         movwf   DELAYTEMP
017E                  00462 DelayUS1
017E   0BF0           00463         decfsz  DELAYTEMP,F
017F   297E           00464         goto    DelayUS1
0180   0000           00465         nop
0181   0008           00466         return
                      00467 
                      00468 ;********************************************************************************
                      00469 
0182                  00470 Delay_10US
0182                  00471 D10US_START
0182   300C           00472         movlw   12
0183   00F0           00473         movwf   DELAYTEMP
0184                  00474 DelayUS0
0184   0BF0           00475         decfsz  DELAYTEMP,F
0185   2984           00476         goto    DelayUS0
0186   0BF5           00477         decfsz  SysWaitTemp10US, F
0187   2982           00478         goto    D10US_START
0188   0008           00479         return
                      00480 
                      00481 ;********************************************************************************
                      00482 
0189                  00483 Delay_MS
0189   0AF3           00484         incf    SysWaitTempMS_H, F
018A                  00485 DMS_START
018A   306C           00486         movlw   108
018B   00F1           00487         movwf   DELAYTEMP2
018C                  00488 DMS_OUTER
018C   300B           00489         movlw   11
018D   00F0           00490         movwf   DELAYTEMP
018E                  00491 DMS_INNER
018E   0BF0           00492         decfsz  DELAYTEMP, F
018F   298E           00493         goto    DMS_INNER
0190   0BF1           00494         decfsz  DELAYTEMP2, F
0191   298C           00495         goto    DMS_OUTER
0192   0BF2           00496         decfsz  SysWaitTempMS, F
0193   298A           00497         goto    DMS_START
0194   0BF3           00498         decfsz  SysWaitTempMS_H, F
0195   298A           00499         goto    DMS_START
0196   0008           00500         return
                      00501 
                      00502 ;********************************************************************************
                      00503 
0197                  00504 Delay_S
gpasm-1.4.0 #1107 (Apr  3 2018) /media/user/s   2-13-2022  17:56:42         PAGE 20


LOC    OBJECT CODE    LINE  SOURCE TEXT
  VALUE

0197                  00505 DS_START
0197   30E8           00506         movlw   232
0198   00F2           00507         movwf   SysWaitTempMS
0199   3003           00508         movlw   3
019A   00F3           00509         movwf   SysWaitTempMS_H
019B   2189           00510         call    Delay_MS
019C   0BF4           00511         decfsz  SysWaitTempS, F
019D   2997           00512         goto    DS_START
019E   0008           00513         return
                      00514 
                      00515 ;********************************************************************************
                      00516 
019F                  00517 I2CRESTART
019F   29F8           00518         goto    I2CSTART
                      00519 
                      00520 ;********************************************************************************
                      00521 
01A0                  00522 I2CSEND
01A0   1683 1303      00523         banksel TRISC
01A2   1187           00524         bcf     TRISC,3
01A3   1283 1303      00525         banksel PORTC
01A5   1187           00526         bcf     PORTC,3
01A6   29A7           00527         goto    $+1
01A7   29A8           00528         goto    $+1
01A8   3008           00529         movlw   8
01A9   00B6           00530         movwf   SysRepeatTemp3
01AA                  00531 SysRepeatLoop3
01AA   1FA2           00532         btfss   I2CBYTE,7
01AB   29B0           00533         goto    ELSE28_1
01AC   1683 1303      00534         banksel TRISC
01AE   1607           00535         bsf     TRISC,4
01AF   29B6           00536         goto    ENDIF28
01B0                  00537 ELSE28_1
01B0   1683 1303      00538         banksel TRISC
01B2   1207           00539         bcf     TRISC,4
01B3   1283 1303      00540         banksel PORTC
01B5   1207           00541         bcf     PORTC,4
01B6                  00542 ENDIF28
01B6   1283 1303      00543         banksel I2CBYTE
01B8   0DA2           00544         rlf     I2CBYTE,F
01B9   1683 1303      00545         banksel TRISC
01BB   1587           00546         bsf     TRISC,3
01BC                  00547 SysWaitLoop1
01BC   1283 1303      00548         banksel PORTC
01BE   1D87           00549         btfss   PORTC,3
01BF   29BC           00550         goto    SysWaitLoop1
01C0   29C1           00551         goto    $+1
01C1   29C2           00552         goto    $+1
01C2   1683 1303      00553         banksel TRISC
01C4   1187           00554         bcf     TRISC,3
01C5   1283 1303      00555         banksel PORTC
01C7   1187           00556         bcf     PORTC,3
01C8   29C9           00557         goto    $+1
gpasm-1.4.0 #1107 (Apr  3 2018) /media/user/s   2-13-2022  17:56:42         PAGE 21


LOC    OBJECT CODE    LINE  SOURCE TEXT
  VALUE

01C9   29CA           00558         goto    $+1
01CA   0BB6           00559         decfsz  SysRepeatTemp3,F
01CB   29AA           00560         goto    SysRepeatLoop3
01CC                  00561 SysRepeatLoopEnd3
01CC   3002           00562         movlw   2
01CD   00F0           00563         movwf   DELAYTEMP
01CE                  00564 DelayUS3
01CE   0BF0           00565         decfsz  DELAYTEMP,F
01CF   29CE           00566         goto    DelayUS3
01D0   0000           00567         nop
01D1   1683 1303      00568         banksel TRISC
01D3   1607           00569         bsf     TRISC,4
01D4   29D5           00570         goto    $+1
01D5   29D6           00571         goto    $+1
01D6   1587           00572         bsf     TRISC,3
01D7                  00573 SysWaitLoop2
01D7   1283 1303      00574         banksel PORTC
01D9   1D87           00575         btfss   PORTC,3
01DA   29D7           00576         goto    SysWaitLoop2
01DB   1E07           00577         btfss   PORTC,4
01DC   29E0           00578         goto    ELSE29_1
01DD   01A0           00579         clrf    I2CACK
01DE   01A1           00580         clrf    I2CACKPOLLSTATE
01DF   29E4           00581         goto    ENDIF29
01E0                  00582 ELSE29_1
01E0   30FF           00583         movlw   255
01E1   00A0           00584         movwf   I2CACK
01E2   30FF           00585         movlw   255
01E3   00A1           00586         movwf   I2CACKPOLLSTATE
01E4                  00587 ENDIF29
01E4   1683 1303      00588         banksel TRISC
01E6   1187           00589         bcf     TRISC,3
01E7   1283 1303      00590         banksel PORTC
01E9   1187           00591         bcf     PORTC,3
01EA   29EB           00592         goto    $+1
01EB   29EC           00593         goto    $+1
01EC   1683 1303      00594         banksel TRISC
01EE   1207           00595         bcf     TRISC,4
01EF   1283 1303      00596         banksel PORTC
01F1   1207           00597         bcf     PORTC,4
01F2   3002           00598         movlw   2
01F3   00F0           00599         movwf   DELAYTEMP
01F4                  00600 DelayUS4
01F4   0BF0           00601         decfsz  DELAYTEMP,F
01F5   29F4           00602         goto    DelayUS4
01F6   0000           00603         nop
01F7   0008           00604         return
                      00605 
                      00606 ;********************************************************************************
                      00607 
01F8                  00608 I2CSTART
01F8   1683 1303      00609         banksel TRISC
01FA   1607           00610         bsf     TRISC,4
gpasm-1.4.0 #1107 (Apr  3 2018) /media/user/s   2-13-2022  17:56:42         PAGE 22


LOC    OBJECT CODE    LINE  SOURCE TEXT
  VALUE

01FB   1587           00611         bsf     TRISC,3
01FC   29FD           00612         goto    $+1
01FD   29FE           00613         goto    $+1
01FE   1207           00614         bcf     TRISC,4
01FF   1283 1303      00615         banksel PORTC
0201   1207           00616         bcf     PORTC,4
0202   2A03           00617         goto    $+1
0203   2A04           00618         goto    $+1
0204   1683 1303      00619         banksel TRISC
0206   1187           00620         bcf     TRISC,3
0207   1283 1303      00621         banksel PORTC
0209   1187           00622         bcf     PORTC,3
020A   0008           00623         return
                      00624 
                      00625 ;********************************************************************************
                      00626 
020B                  00627 I2CSTOP
020B   1683 1303      00628         banksel TRISC
020D   1187           00629         bcf     TRISC,3
020E   1283 1303      00630         banksel PORTC
0210   1187           00631         bcf     PORTC,3
0211   1683 1303      00632         banksel TRISC
0213   1207           00633         bcf     TRISC,4
0214   1283 1303      00634         banksel PORTC
0216   1207           00635         bcf     PORTC,4
0217   2A18           00636         goto    $+1
0218   2A19           00637         goto    $+1
0219   1683 1303      00638         banksel TRISC
021B   1587           00639         bsf     TRISC,3
021C   2A1D           00640         goto    $+1
021D   2A1E           00641         goto    $+1
021E   1607           00642         bsf     TRISC,4
021F   2A20           00643         goto    $+1
0220   2A21           00644         goto    $+1
0221   1283 1303      00645         banksel STATUS
0223   0008           00646         return
                      00647 
                      00648 ;********************************************************************************
                      00649 
0224                  00650 INITI2C
0224   1683 1303      00651         banksel TRISC
0226   1607           00652         bsf     TRISC,4
0227   1587           00653         bsf     TRISC,3
0228   1283 1303      00654         banksel I2CMATCH
022A   01A3           00655         clrf    I2CMATCH
022B   0008           00656         return
                      00657 
                      00658 ;********************************************************************************
                      00659 
022C                  00660 INITI2CLCD
022C   300F           00661         movlw   15
022D   00F2           00662         movwf   SysWaitTempMS
022E   01F3           00663         clrf    SysWaitTempMS_H
gpasm-1.4.0 #1107 (Apr  3 2018) /media/user/s   2-13-2022  17:56:42         PAGE 23


LOC    OBJECT CODE    LINE  SOURCE TEXT
  VALUE

022F   2189           00664         call    Delay_MS
0230   01A5           00665         clrf    I2C_LCD_BYTE
0231   3003           00666         movlw   3
0232   00A6           00667         movwf   LCDBYTE
0233   22E3           00668         call    LCDNORMALWRITEBYTE
0234   3005           00669         movlw   5
0235   00F2           00670         movwf   SysWaitTempMS
0236   01F3           00671         clrf    SysWaitTempMS_H
0237   2189           00672         call    Delay_MS
0238   3003           00673         movlw   3
0239   00A6           00674         movwf   LCDBYTE
023A   22E3           00675         call    LCDNORMALWRITEBYTE
023B   3001           00676         movlw   1
023C   00F2           00677         movwf   SysWaitTempMS
023D   01F3           00678         clrf    SysWaitTempMS_H
023E   2189           00679         call    Delay_MS
023F   3003           00680         movlw   3
0240   00A6           00681         movwf   LCDBYTE
0241   22E3           00682         call    LCDNORMALWRITEBYTE
0242   3001           00683         movlw   1
0243   00F2           00684         movwf   SysWaitTempMS
0244   01F3           00685         clrf    SysWaitTempMS_H
0245   2189           00686         call    Delay_MS
0246   3003           00687         movlw   3
0247   00A6           00688         movwf   LCDBYTE
0248   22E3           00689         call    LCDNORMALWRITEBYTE
0249   3001           00690         movlw   1
024A   00F2           00691         movwf   SysWaitTempMS
024B   01F3           00692         clrf    SysWaitTempMS_H
024C   2189           00693         call    Delay_MS
024D   3002           00694         movlw   2
024E   00A6           00695         movwf   LCDBYTE
024F   22E3           00696         call    LCDNORMALWRITEBYTE
0250   3001           00697         movlw   1
0251   00F2           00698         movwf   SysWaitTempMS
0252   01F3           00699         clrf    SysWaitTempMS_H
0253   2189           00700         call    Delay_MS
0254   3028           00701         movlw   40
0255   00A6           00702         movwf   LCDBYTE
0256   22E3           00703         call    LCDNORMALWRITEBYTE
0257   3001           00704         movlw   1
0258   00F2           00705         movwf   SysWaitTempMS
0259   01F3           00706         clrf    SysWaitTempMS_H
025A   2189           00707         call    Delay_MS
025B   300C           00708         movlw   12
025C   00A6           00709         movwf   LCDBYTE
025D   22E3           00710         call    LCDNORMALWRITEBYTE
025E   3001           00711         movlw   1
025F   00F2           00712         movwf   SysWaitTempMS
0260   01F3           00713         clrf    SysWaitTempMS_H
0261   2189           00714         call    Delay_MS
0262   3001           00715         movlw   1
0263   00A6           00716         movwf   LCDBYTE
gpasm-1.4.0 #1107 (Apr  3 2018) /media/user/s   2-13-2022  17:56:42         PAGE 24


LOC    OBJECT CODE    LINE  SOURCE TEXT
  VALUE

0264   22E3           00717         call    LCDNORMALWRITEBYTE
0265   300F           00718         movlw   15
0266   00F2           00719         movwf   SysWaitTempMS
0267   01F3           00720         clrf    SysWaitTempMS_H
0268   2189           00721         call    Delay_MS
0269   3006           00722         movlw   6
026A   00A6           00723         movwf   LCDBYTE
026B   22E3           00724         call    LCDNORMALWRITEBYTE
026C   3001           00725         movlw   1
026D   00F2           00726         movwf   SysWaitTempMS
026E   01F3           00727         clrf    SysWaitTempMS_H
026F   2189           00728         call    Delay_MS
0270   2971           00729         goto    CLS
                      00730 
                      00731 ;********************************************************************************
                      00732 
0271                  00733 INITLCD
                      00734 ;asm showdebug  `LCD_IO selected is ` LCD_IO
                      00735 ;asm showdebug  `LCD_Speed is FAST`
                      00736 ;asm showdebug  `OPTIMAL is set to ` OPTIMAL
                      00737 ;asm showdebug  `LCD_Speed is set to ` LCD_Speed
0271   2224           00738         call    INITI2C
0272   3001           00739         movlw   1
0273   00AB           00740         movwf   LCD_BACKLIGHT
0274   3002           00741         movlw   2
0275   00F2           00742         movwf   SysWaitTempMS
0276   01F3           00743         clrf    SysWaitTempMS_H
0277   2189           00744         call    Delay_MS
0278   3002           00745         movlw   2
0279   00B5           00746         movwf   SysRepeatTemp2
027A                  00747 SysRepeatLoop2
027A   304E           00748         movlw   78
027B   00AC           00749         movwf   LCD_I2C_ADDRESS_CURRENT
027C   222C           00750         call    INITI2CLCD
027D   0BB5           00751         decfsz  SysRepeatTemp2,F
027E   2A7A           00752         goto    SysRepeatLoop2
027F                  00753 SysRepeatLoopEnd2
027F   300C           00754         movlw   12
0280   00AD           00755         movwf   LCD_STATE
0281   0008           00756         return
                      00757 
                      00758 ;********************************************************************************
                      00759 
0282                  00760 INITSYS
                      00761 ;asm showdebug _For_selected_frequency_-_the_external_oscillator_has_been_selected_by_compiler ChipMHz
                      00762 ;asm showdebug _Complete_the_chip_setup_of_BSR,ADCs,ANSEL_and_other_key_setup_registers_or_register_bits
0282   1683 1303      00763         banksel ADCON1
0284   139F           00764         bcf     ADCON1,ADFM
0285   1283 1303      00765         banksel ADCON0
0287   101F           00766         bcf     ADCON0,ADON
0288   1683 1303      00767         banksel ADCON1
028A   119F           00768         bcf     ADCON1,PCFG3
028B   151F           00769         bsf     ADCON1,PCFG2
gpasm-1.4.0 #1107 (Apr  3 2018) /media/user/s   2-13-2022  17:56:42         PAGE 25


LOC    OBJECT CODE    LINE  SOURCE TEXT
  VALUE

028C   149F           00770         bsf     ADCON1,PCFG1
028D   101F           00771         bcf     ADCON1,PCFG0
028E   1283 1303      00772         banksel PORTA
0290   0185           00773         clrf    PORTA
0291   0186           00774         clrf    PORTB
0292   0187           00775         clrf    PORTC
0293   0008           00776         return
                      00777 
                      00778 ;********************************************************************************
                      00779 
0294                  00780 LCDBACKLIGHT
0294   08AA           00781         movf    LCDTEMP,F
0295   1903           00782         btfsc   STATUS, Z
0296   01AB           00783         clrf    LCD_BACKLIGHT
0297   032A           00784         decf    LCDTEMP,W
0298   1D03           00785         btfss   STATUS, Z
0299   2A9C           00786         goto    ENDIF27
029A   3001           00787         movlw   1
029B   00AB           00788         movwf   LCD_BACKLIGHT
029C                  00789 ENDIF27
029C   10B0           00790         bcf     SYSLCDTEMP,1
029D   01A6           00791         clrf    LCDBYTE
029E   2AE3           00792         goto    LCDNORMALWRITEBYTE
                      00793 
                      00794 ;********************************************************************************
                      00795 
029F                  00796 LCDCURSOR
029F   10B0           00797         bcf     SYSLCDTEMP,1
02A0   0328           00798         decf    LCDCRSR,W
02A1   1D03           00799         btfss   STATUS, Z
02A2   2AA6           00800         goto    ENDIF17
02A3   300C           00801         movlw   12
02A4   042D           00802         iorwf   LCD_STATE,W
02A5   00AA           00803         movwf   LCDTEMP
02A6                  00804 ENDIF17
02A6   300C           00805         movlw   12
02A7   0228           00806         subwf   LCDCRSR,W
02A8   1D03           00807         btfss   STATUS, Z
02A9   2AAD           00808         goto    ENDIF18
02AA   300C           00809         movlw   12
02AB   042D           00810         iorwf   LCD_STATE,W
02AC   00AA           00811         movwf   LCDTEMP
02AD                  00812 ENDIF18
02AD   08A8           00813         movf    LCDCRSR,F
02AE   1D03           00814         btfss   STATUS, Z
02AF   2AB3           00815         goto    ENDIF19
02B0   300B           00816         movlw   11
02B1   052D           00817         andwf   LCD_STATE,W
02B2   00AA           00818         movwf   LCDTEMP
02B3                  00819 ENDIF19
02B3   300B           00820         movlw   11
02B4   0228           00821         subwf   LCDCRSR,W
02B5   1D03           00822         btfss   STATUS, Z
gpasm-1.4.0 #1107 (Apr  3 2018) /media/user/s   2-13-2022  17:56:42         PAGE 26


LOC    OBJECT CODE    LINE  SOURCE TEXT
  VALUE

02B6   2ABA           00823         goto    ENDIF20
02B7   300B           00824         movlw   11
02B8   052D           00825         andwf   LCD_STATE,W
02B9   00AA           00826         movwf   LCDTEMP
02BA                  00827 ENDIF20
02BA   300A           00828         movlw   10
02BB   0228           00829         subwf   LCDCRSR,W
02BC   1D03           00830         btfss   STATUS, Z
02BD   2AC1           00831         goto    ENDIF21
02BE   300A           00832         movlw   10
02BF   042D           00833         iorwf   LCD_STATE,W
02C0   00AA           00834         movwf   LCDTEMP
02C1                  00835 ENDIF21
02C1   300D           00836         movlw   13
02C2   0228           00837         subwf   LCDCRSR,W
02C3   1D03           00838         btfss   STATUS, Z
02C4   2AC8           00839         goto    ENDIF22
02C5   300D           00840         movlw   13
02C6   052D           00841         andwf   LCD_STATE,W
02C7   00AA           00842         movwf   LCDTEMP
02C8                  00843 ENDIF22
02C8   3009           00844         movlw   9
02C9   0228           00845         subwf   LCDCRSR,W
02CA   1D03           00846         btfss   STATUS, Z
02CB   2ACF           00847         goto    ENDIF23
02CC   3009           00848         movlw   9
02CD   042D           00849         iorwf   LCD_STATE,W
02CE   00AA           00850         movwf   LCDTEMP
02CF                  00851 ENDIF23
02CF   3009           00852         movlw   9
02D0   0228           00853         subwf   LCDCRSR,W
02D1   1D03           00854         btfss   STATUS, Z
02D2   2AD6           00855         goto    ENDIF24
02D3   3009           00856         movlw   9
02D4   042D           00857         iorwf   LCD_STATE,W
02D5   00AA           00858         movwf   LCDTEMP
02D6                  00859 ENDIF24
02D6   300E           00860         movlw   14
02D7   0228           00861         subwf   LCDCRSR,W
02D8   1D03           00862         btfss   STATUS, Z
02D9   2ADD           00863         goto    ENDIF25
02DA   300E           00864         movlw   14
02DB   052D           00865         andwf   LCD_STATE,W
02DC   00AA           00866         movwf   LCDTEMP
02DD                  00867 ENDIF25
02DD   082A           00868         movf    LCDTEMP,W
02DE   00A6           00869         movwf   LCDBYTE
02DF   22E3           00870         call    LCDNORMALWRITEBYTE
02E0   082A           00871         movf    LCDTEMP,W
02E1   00AD           00872         movwf   LCD_STATE
02E2   0008           00873         return
                      00874 
                      00875 ;********************************************************************************
gpasm-1.4.0 #1107 (Apr  3 2018) /media/user/s   2-13-2022  17:56:42         PAGE 27


LOC    OBJECT CODE    LINE  SOURCE TEXT
  VALUE

                      00876 
02E3                  00877 LCDNORMALWRITEBYTE
02E3   1CB0           00878         btfss   SYSLCDTEMP,1
02E4   2AE7           00879         goto    ELSE4_1
02E5   1425           00880         bsf     I2C_LCD_BYTE,0
02E6   2AE8           00881         goto    ENDIF4
02E7                  00882 ELSE4_1
02E7   1025           00883         bcf     I2C_LCD_BYTE,0
02E8                  00884 ENDIF4
02E8   10A5           00885         bcf     I2C_LCD_BYTE,1
02E9   11A5           00886         bcf     I2C_LCD_BYTE,3
02EA   182B           00887         btfsc   LCD_BACKLIGHT,0
02EB   15A5           00888         bsf     I2C_LCD_BYTE,3
02EC   219F           00889         call    I2CRESTART
02ED   082C           00890         movf    LCD_I2C_ADDRESS_CURRENT,W
02EE   00A2           00891         movwf   I2CBYTE
02EF   21A0           00892         call    I2CSEND
02F0   13A5           00893         bcf     I2C_LCD_BYTE,7
02F1   1BA6           00894         btfsc   LCDBYTE,7
02F2   17A5           00895         bsf     I2C_LCD_BYTE,7
02F3   1325           00896         bcf     I2C_LCD_BYTE,6
02F4   1B26           00897         btfsc   LCDBYTE,6
02F5   1725           00898         bsf     I2C_LCD_BYTE,6
02F6   12A5           00899         bcf     I2C_LCD_BYTE,5
02F7   1AA6           00900         btfsc   LCDBYTE,5
02F8   16A5           00901         bsf     I2C_LCD_BYTE,5
02F9   1225           00902         bcf     I2C_LCD_BYTE,4
02FA   1A26           00903         btfsc   LCDBYTE,4
02FB   1625           00904         bsf     I2C_LCD_BYTE,4
02FC   1525           00905         bsf     I2C_LCD_BYTE,2
02FD   0825           00906         movf    I2C_LCD_BYTE,W
02FE   00A2           00907         movwf   I2CBYTE
02FF   21A0           00908         call    I2CSEND
0300   1125           00909         bcf     I2C_LCD_BYTE,2
0301   0825           00910         movf    I2C_LCD_BYTE,W
0302   00A2           00911         movwf   I2CBYTE
0303   21A0           00912         call    I2CSEND
0304   13A5           00913         bcf     I2C_LCD_BYTE,7
0305   19A6           00914         btfsc   LCDBYTE,3
0306   17A5           00915         bsf     I2C_LCD_BYTE,7
0307   1325           00916         bcf     I2C_LCD_BYTE,6
0308   1926           00917         btfsc   LCDBYTE,2
0309   1725           00918         bsf     I2C_LCD_BYTE,6
030A   12A5           00919         bcf     I2C_LCD_BYTE,5
030B   18A6           00920         btfsc   LCDBYTE,1
030C   16A5           00921         bsf     I2C_LCD_BYTE,5
030D   1225           00922         bcf     I2C_LCD_BYTE,4
030E   1826           00923         btfsc   LCDBYTE,0
030F   1625           00924         bsf     I2C_LCD_BYTE,4
0310   1525           00925         bsf     I2C_LCD_BYTE,2
0311   0825           00926         movf    I2C_LCD_BYTE,W
0312   00A2           00927         movwf   I2CBYTE
0313   21A0           00928         call    I2CSEND
gpasm-1.4.0 #1107 (Apr  3 2018) /media/user/s   2-13-2022  17:56:42         PAGE 28


LOC    OBJECT CODE    LINE  SOURCE TEXT
  VALUE

0314   1125           00929         bcf     I2C_LCD_BYTE,2
0315   0825           00930         movf    I2C_LCD_BYTE,W
0316   00A2           00931         movwf   I2CBYTE
0317   21A0           00932         call    I2CSEND
0318   220B           00933         call    I2CSTOP
0319   300C           00934         movlw   12
031A   00AD           00935         movwf   LCD_STATE
031B   300D           00936         movlw   13
031C   00F0           00937         movwf   DELAYTEMP
031D                  00938 DelayUS2
031D   0BF0           00939         decfsz  DELAYTEMP,F
031E   2B1D           00940         goto    DelayUS2
031F   18B0           00941         btfsc   SYSLCDTEMP,1
0320   2B2B           00942         goto    ENDIF5
0321   3010           00943         movlw   16
0322   0226           00944         subwf   LCDBYTE,W
0323   1803           00945         btfsc   STATUS, C
0324   2B2B           00946         goto    ENDIF6
0325   0826           00947         movf    LCDBYTE,W
0326   3C07           00948         sublw   7
0327   1803           00949         btfsc   STATUS, C
0328   2B2B           00950         goto    ENDIF7
0329   0826           00951         movf    LCDBYTE,W
032A   00AD           00952         movwf   LCD_STATE
032B                  00953 ENDIF7
032B                  00954 ENDIF6
032B                  00955 ENDIF5
032B   0008           00956         return
                      00957 
                      00958 ;********************************************************************************
                      00959 
032C                  00960 LOCATE
032C   10B0           00961         bcf     SYSLCDTEMP,1
032D   0829           00962         movf    LCDLINE,W
032E   3C01           00963         sublw   1
032F   1803           00964         btfsc   STATUS, C
0330   2B35           00965         goto    ENDIF1
0331   3002           00966         movlw   2
0332   02A9           00967         subwf   LCDLINE,F
0333   3014           00968         movlw   20
0334   07A7           00969         addwf   LCDCOLUMN,F
0335                  00970 ENDIF1
0335   0829           00971         movf    LCDLINE,W
0336   00F5           00972         movwf   SysBYTETempA
0337   3040           00973         movlw   64
0338   00F9           00974         movwf   SysBYTETempB
0339   236C           00975         call    SYSMULTSUB
033A   0827           00976         movf    LCDCOLUMN,W
033B   0770           00977         addwf   SysBYTETempX,W
033C   00B7           00978         movwf   SysTemp1
033D   3080           00979         movlw   128
033E   0437           00980         iorwf   SysTemp1,W
033F   00A6           00981         movwf   LCDBYTE
gpasm-1.4.0 #1107 (Apr  3 2018) /media/user/s   2-13-2022  17:56:42         PAGE 29


LOC    OBJECT CODE    LINE  SOURCE TEXT
  VALUE

0340   22E3           00982         call    LCDNORMALWRITEBYTE
0341   3005           00983         movlw   5
0342   00F5           00984         movwf   SysWaitTemp10US
0343   2982           00985         goto    Delay_10US
                      00986 
                      00987 ;********************************************************************************
                      00988 
0344                  00989 PRINT106
0344   0831           00990         movf    SysPRINTDATAHandler,W
0345   0084           00991         movwf   FSR
0346   1383           00992         bcf     STATUS, IRP
0347   1832           00993         btfsc   SysPRINTDATAHandler_H,0
0348   1783           00994         bsf     STATUS, IRP
0349   0800           00995         movf    INDF,W
034A   00AE           00996         movwf   PRINTLEN
034B   08AE           00997         movf    PRINTLEN,F
034C   1903           00998         btfsc   STATUS, Z
034D   0008           00999         return
034E   14B0           01000         bsf     SYSLCDTEMP,1
034F   3001           01001         movlw   1
0350   00B3           01002         movwf   SYSPRINTTEMP
0351                  01003 SysForLoop1
0351   0833           01004         movf    SYSPRINTTEMP,W
0352   0731           01005         addwf   SysPRINTDATAHandler,W
0353   0084           01006         movwf   FSR
0354   1383           01007         bcf     STATUS, IRP
0355   1832           01008         btfsc   SysPRINTDATAHandler_H,0
0356   1783           01009         bsf     STATUS, IRP
0357   0800           01010         movf    INDF,W
0358   00A6           01011         movwf   LCDBYTE
0359   22E3           01012         call    LCDNORMALWRITEBYTE
                      01013 ;#4p Positive value Step Handler in For-next statement
035A   0833           01014         movf    SYSPRINTTEMP,W
035B   022E           01015         subwf   PRINTLEN,W
035C   00B7           01016         movwf   SysTemp1
035D   00F5           01017         movwf   SysBYTETempA
035E   01F9           01018         clrf    SysBYTETempB
035F   2366           01019         call    SYSCOMPEQUAL
0360   09F0           01020         comf    SysByteTempX,F
0361   1C70           01021         btfss   SysByteTempX,0
0362   2B65           01022         goto    ENDIF3
                      01023 ;Set LoopVar to LoopVar + StepValue where StepValue is a positive value
0363   0AB3           01024         incf    SYSPRINTTEMP,F
0364   2B51           01025         goto    SysForLoop1
                      01026 ;END IF
0365                  01027 ENDIF3
0365                  01028 SysForLoopEnd1
0365   0008           01029         return
                      01030 
                      01031 ;********************************************************************************
                      01032 
0366                  01033 SYSCOMPEQUAL
0366   01F0           01034         clrf    SYSBYTETEMPX
gpasm-1.4.0 #1107 (Apr  3 2018) /media/user/s   2-13-2022  17:56:42         PAGE 30


LOC    OBJECT CODE    LINE  SOURCE TEXT
  VALUE

0367   0875           01035         movf    SYSBYTETEMPA, W
0368   0279           01036         subwf   SYSBYTETEMPB, W
0369   1903           01037         btfsc   STATUS, Z
036A   09F0           01038         comf    SYSBYTETEMPX,F
036B   0008           01039         return
                      01040 
                      01041 ;********************************************************************************
                      01042 
036C                  01043 SYSMULTSUB
036C   01F0           01044         clrf    SYSBYTETEMPX
036D                  01045 MUL8LOOP
036D   0875           01046         movf    SYSBYTETEMPA, W
036E   1879           01047         btfsc   SYSBYTETEMPB, 0
036F   07F0           01048         addwf   SYSBYTETEMPX, F
0370   1003           01049         bcf     STATUS, C
0371   0CF9           01050         rrf     SYSBYTETEMPB, F
0372   1003           01051         bcf     STATUS, C
0373   0DF5           01052         rlf     SYSBYTETEMPA, F
0374   08F9           01053         movf    SYSBYTETEMPB, F
0375   1D03           01054         btfss   STATUS, Z
0376   2B6D           01055         goto    MUL8LOOP
0377   0008           01056         return
                      01057 
                      01058 ;********************************************************************************
                      01059 
0378                  01060 SYSREADSTRING
0378   0872           01061         movf    SYSSTRINGB, W
0379   0084           01062         movwf   FSR
037A   1383           01063         bcf     STATUS, IRP
037B   1873           01064         btfsc   SYSSTRINGB_H, 0
037C   1783           01065         bsf     STATUS, IRP
037D   2394           01066         call    SYSSTRINGTABLES
037E   00F5           01067         movwf   SYSCALCTEMPA
037F   0080           01068         movwf   INDF
0380   07F2           01069         addwf   SYSSTRINGB, F
0381   2B8B           01070         goto    SYSSTRINGREADCHECK
0382                  01071 SYSREADSTRINGPART
0382   0872           01072         movf    SYSSTRINGB, W
0383   0084           01073         movwf   FSR
0384   1383           01074         bcf     STATUS, IRP
0385   1873           01075         btfsc   SYSSTRINGB_H, 0
0386   1783           01076         bsf     STATUS, IRP
0387   2394           01077         call    SYSSTRINGTABLES
0388   00F5           01078         movwf   SYSCALCTEMPA
0389   07F6           01079         addwf   SYSSTRINGLENGTH,F
038A   07F2           01080         addwf   SYSSTRINGB,F
038B                  01081 SYSSTRINGREADCHECK
038B   08F5           01082         movf    SYSCALCTEMPA,F
038C   1903           01083         btfsc   STATUS,Z
038D   0008           01084         return
038E                  01085 SYSSTRINGREAD
038E   2394           01086         call    SYSSTRINGTABLES
038F   0A84           01087         incf    FSR, F
gpasm-1.4.0 #1107 (Apr  3 2018) /media/user/s   2-13-2022  17:56:42         PAGE 31


LOC    OBJECT CODE    LINE  SOURCE TEXT
  VALUE

0390   0080           01088         movwf   INDF
0391   0BF5           01089         decfsz  SYSCALCTEMPA, F
0392   2B8E           01090         goto    SYSSTRINGREAD
0393   0008           01091         return
                      01092 
                      01093 ;********************************************************************************
                      01094 
0394                  01095 SysStringTables
0394   0878           01096         movf    SysStringA_H,W
0395   008A           01097         movwf   PCLATH
0396   0877           01098         movf    SysStringA,W
0397   0AF7           01099         incf    SysStringA,F
0398   1903           01100         btfsc   STATUS,Z
0399   0AF8           01101         incf    SysStringA_H,F
039A   0082           01102         movwf   PCL
                      01103 
039B                  01104 StringTable1
039B   340F           01105         retlw   15
039C   3447           01106         retlw   71      ;G
039D   3472           01107         retlw   114     ;r
039E   3465           01108         retlw   101     ;e
039F   3461           01109         retlw   97      ;a
03A0   3474           01110         retlw   116     ;t
03A1   3420           01111         retlw   32      ; 
03A2   3443           01112         retlw   67      ;C
03A3   346F           01113         retlw   111     ;o
03A4   3477           01114         retlw   119     ;w
03A5   3420           01115         retlw   32      ; 
03A6   3442           01116         retlw   66      ;B
03A7   3461           01117         retlw   97      ;a
03A8   3473           01118         retlw   115     ;s
03A9   3469           01119         retlw   105     ;i
03AA   3463           01120         retlw   99      ;c
                      01121 
                      01122 
03AB                  01123 StringTable2
03AB   340A           01124         retlw   10
03AC   3453           01125         retlw   83      ;S
03AD   3454           01126         retlw   84      ;T
03AE   3441           01127         retlw   65      ;A
03AF   3452           01128         retlw   82      ;R
03B0   3454           01129         retlw   84      ;T
03B1   3420           01130         retlw   32      ; 
03B2   3454           01131         retlw   84      ;T
03B3   3445           01132         retlw   69      ;E
03B4   3453           01133         retlw   83      ;S
03B5   3454           01134         retlw   84      ;T
                      01135 
                      01136 
03B6                  01137 StringTable3
03B6   340A           01138         retlw   10
03B7   3444           01139         retlw   68      ;D
03B8   3449           01140         retlw   73      ;I
gpasm-1.4.0 #1107 (Apr  3 2018) /media/user/s   2-13-2022  17:56:42         PAGE 32


LOC    OBJECT CODE    LINE  SOURCE TEXT
  VALUE

03B9   3453           01141         retlw   83      ;S
03BA   3450           01142         retlw   80      ;P
03BB   344C           01143         retlw   76      ;L
03BC   3441           01144         retlw   65      ;A
03BD   3459           01145         retlw   89      ;Y
03BE   3420           01146         retlw   32      ; 
03BF   344F           01147         retlw   79      ;O
03C0   344E           01148         retlw   78      ;N
                      01149 
                      01150 
03C1                  01151 StringTable4
03C1   3409           01152         retlw   9
03C2   3443           01153         retlw   67      ;C
03C3   3475           01154         retlw   117     ;u
03C4   3472           01155         retlw   114     ;r
03C5   3473           01156         retlw   115     ;s
03C6   346F           01157         retlw   111     ;o
03C7   3472           01158         retlw   114     ;r
03C8   3420           01159         retlw   32      ; 
03C9   344F           01160         retlw   79      ;O
03CA   344E           01161         retlw   78      ;N
                      01162 
                      01163 
03CB                  01164 StringTable5
03CB   340A           01165         retlw   10
03CC   3443           01166         retlw   67      ;C
03CD   3475           01167         retlw   117     ;u
03CE   3472           01168         retlw   114     ;r
03CF   3473           01169         retlw   115     ;s
03D0   346F           01170         retlw   111     ;o
03D1   3472           01171         retlw   114     ;r
03D2   3420           01172         retlw   32      ; 
03D3   344F           01173         retlw   79      ;O
03D4   3446           01174         retlw   70      ;F
03D5   3446           01175         retlw   70      ;F
                      01176 
                      01177 
03D6                  01178 StringTable6
03D6   3408           01179         retlw   8
03D7   3446           01180         retlw   70      ;F
03D8   344C           01181         retlw   76      ;L
03D9   3441           01182         retlw   65      ;A
03DA   3453           01183         retlw   83      ;S
03DB   3448           01184         retlw   72      ;H
03DC   3420           01185         retlw   32      ; 
03DD   344F           01186         retlw   79      ;O
03DE   344E           01187         retlw   78      ;N
                      01188 
                      01189 
03DF                  01190 StringTable7
03DF   3409           01191         retlw   9
03E0   3446           01192         retlw   70      ;F
03E1   344C           01193         retlw   76      ;L
gpasm-1.4.0 #1107 (Apr  3 2018) /media/user/s   2-13-2022  17:56:42         PAGE 33


LOC    OBJECT CODE    LINE  SOURCE TEXT
  VALUE

03E2   3441           01194         retlw   65      ;A
03E3   3453           01195         retlw   83      ;S
03E4   3448           01196         retlw   72      ;H
03E5   3420           01197         retlw   32      ; 
03E6   344F           01198         retlw   79      ;O
03E7   3446           01199         retlw   70      ;F
03E8   3446           01200         retlw   70      ;F
                      01201 
                      01202 
03E9                  01203 StringTable8
03E9   340F           01204         retlw   15
03EA   3443           01205         retlw   67      ;C
03EB   3455           01206         retlw   85      ;U
03EC   3452           01207         retlw   82      ;R
03ED   3453           01208         retlw   83      ;S
03EE   3452           01209         retlw   82      ;R
03EF   3420           01210         retlw   32      ; 
03F0   3426           01211         retlw   38      ;&
03F1   3420           01212         retlw   32      ; 
03F2   3446           01213         retlw   70      ;F
03F3   344C           01214         retlw   76      ;L
03F4   3453           01215         retlw   83      ;S
03F5   3448           01216         retlw   72      ;H
03F6   3420           01217         retlw   32      ; 
03F7   344F           01218         retlw   79      ;O
03F8   344E           01219         retlw   78      ;N
                      01220 
                      01221 
03F9                  01222 StringTable9
03F9   3410           01223         retlw   16
03FA   3443           01224         retlw   67      ;C
03FB   3455           01225         retlw   85      ;U
03FC   3452           01226         retlw   82      ;R
03FD   3453           01227         retlw   83      ;S
03FE   3452           01228         retlw   82      ;R
03FF   3420           01229         retlw   32      ; 
0400   3426           01230         retlw   38      ;&
0401   3420           01231         retlw   32      ; 
0402   3446           01232         retlw   70      ;F
0403   344C           01233         retlw   76      ;L
0404   3453           01234         retlw   83      ;S
0405   3448           01235         retlw   72      ;H
0406   3420           01236         retlw   32      ; 
0407   344F           01237         retlw   79      ;O
0408   3446           01238         retlw   70      ;F
0409   3446           01239         retlw   70      ;F
                      01240 
                      01241 
040A                  01242 StringTable10
040A   3408           01243         retlw   8
040B   3446           01244         retlw   70      ;F
040C   346C           01245         retlw   108     ;l
040D   3461           01246         retlw   97      ;a
gpasm-1.4.0 #1107 (Apr  3 2018) /media/user/s   2-13-2022  17:56:42         PAGE 34


LOC    OBJECT CODE    LINE  SOURCE TEXT
  VALUE

040E   3473           01247         retlw   115     ;s
040F   3468           01248         retlw   104     ;h
0410   3469           01249         retlw   105     ;i
0411   346E           01250         retlw   110     ;n
0412   3467           01251         retlw   103     ;g
                      01252 
                      01253 
0413                  01254 StringTable11
0413   3407           01255         retlw   7
0414   3444           01256         retlw   68      ;D
0415   3469           01257         retlw   105     ;i
0416   3473           01258         retlw   115     ;s
0417   3470           01259         retlw   112     ;p
0418   346C           01260         retlw   108     ;l
0419   3461           01261         retlw   97      ;a
041A   3479           01262         retlw   121     ;y
                      01263 
                      01264 
041B                  01265 StringTable12
041B   3410           01266         retlw   16
041C   3444           01267         retlw   68      ;D
041D   3449           01268         retlw   73      ;I
041E   3453           01269         retlw   83      ;S
041F   3450           01270         retlw   80      ;P
0420   344C           01271         retlw   76      ;L
0421   3441           01272         retlw   65      ;A
0422   3459           01273         retlw   89      ;Y
0423   3420           01274         retlw   32      ; 
0424   3426           01275         retlw   38      ;&
0425   3420           01276         retlw   32      ; 
0426   3442           01277         retlw   66      ;B
0427   3441           01278         retlw   65      ;A
0428   3443           01279         retlw   67      ;C
0429   344B           01280         retlw   75      ;K
042A   344C           01281         retlw   76      ;L
042B   342E           01282         retlw   46      ;.
                      01283 
                      01284 
042C                  01285 StringTable13
042C   3409           01286         retlw   9
042D   3446           01287         retlw   70      ;F
042E   344F           01288         retlw   79      ;O
042F   3452           01289         retlw   82      ;R
0430   3420           01290         retlw   32      ; 
0431   3435           01291         retlw   53      ;5
0432   3420           01292         retlw   32      ; 
0433   3453           01293         retlw   83      ;S
0434   3445           01294         retlw   69      ;E
0435   3443           01295         retlw   67      ;C
                      01296 
                      01297 
0436                  01298 StringTable14
0436   3408           01299         retlw   8
gpasm-1.4.0 #1107 (Apr  3 2018) /media/user/s   2-13-2022  17:56:42         PAGE 35


LOC    OBJECT CODE    LINE  SOURCE TEXT
  VALUE

0437   3445           01300         retlw   69      ;E
0438   344E           01301         retlw   78      ;N
0439   3444           01302         retlw   68      ;D
043A   3420           01303         retlw   32      ; 
043B   3454           01304         retlw   84      ;T
043C   3445           01305         retlw   69      ;E
043D   3453           01306         retlw   83      ;S
043E   3454           01307         retlw   84      ;T
                      01308 
                      01309 
                      01310 ;********************************************************************************
                      01311 
                      01312 ;Start of program memory page 1
0800                  01313         ORG     2048
                      01314 ;Start of program memory page 2
1000                  01315         ORG     4096
                      01316 ;Start of program memory page 3
1800                  01317         ORG     6144
                      01318 
                      01319  END
gpasm-1.4.0 #1107 (Apr  3 2018) /media/user/s   2-13-2022  17:56:42         PAGE 36


SYMBOL TABLE
  LABEL                             VALUE

ACKDT                             00000005
ACKEN                             00000004
ACKSTAT                           00000006
ADCON0                            0000001F
ADCON1                            0000009F
ADCS0                             00000006
ADCS1                             00000007
ADDEN                             00000003
ADFM                              00000007
ADIE                              00000006
ADIF                              00000006
ADON                              00000000
ADRESH                            0000001E
ADRESL                            0000009E
BASPROGRAMEND                     0000016F
BASPROGRAMSTART                   00000005
BCLIE                             00000003
BCLIF                             00000003
BF                                00000000
BRGH                              00000002
C                                 00000000
CCP1CON                           00000017
CCP1IE                            00000002
CCP1IF                            00000002
CCP1M0                            00000000
CCP1M1                            00000001
CCP1M2                            00000002
CCP1M3                            00000003
CCP1X                             00000005
CCP1Y                             00000004
CCP2CON                           0000001D
CCP2IE                            00000000
CCP2IF                            00000000
CCP2M0                            00000000
CCP2M1                            00000001
CCP2M2                            00000002
CCP2M3                            00000003
CCP2X                             00000005
CCP2Y                             00000004
CCPR1                             00000015
CCPR1H                            00000016
CCPR1L                            00000015
CCPR2                             0000001B
CCPR2H                            0000001C
CCPR2L                            0000001B
CHS0                              00000003
CHS1                              00000004
CHS2                              00000005
CKE                               00000006
CKP                               00000004
CLS                               00000171
CREN                              00000004
CSRC                              00000007
gpasm-1.4.0 #1107 (Apr  3 2018) /media/user/s   2-13-2022  17:56:42         PAGE 37


SYMBOL TABLE
  LABEL                             VALUE 

D                                 00000005
D10US_START                       00000182
DATA_ADDRESS                      00000005
DC                                00000001
DELAYTEMP                         00000070
DELAYTEMP2                        00000071
DMS_INNER                         0000018E
DMS_OUTER                         0000018C
DMS_START                         0000018A
DS_START                          00000197
D_A                               00000005
D_NOT_A                           00000005
DelayUS0                          00000184
DelayUS1                          0000017E
DelayUS2                          0000031D
DelayUS3                          000001CE
DelayUS4                          000001F4
Delay_10US                        00000182
Delay_MS                          00000189
Delay_S                           00000197
EEADR                             0000010D
EEADRH                            0000010F
EECON1                            0000018C
EECON2                            0000018D
EEDATA                            0000010C
EEDATH                            0000010E
EEIE                              00000004
EEIF                              00000004
EEPGD                             00000007
ELSE28_1                          000001B0
ELSE29_1                          000001E0
ELSE4_1                           000002E7
ENDIF1                            00000335
ENDIF17                           000002A6
ENDIF18                           000002AD
ENDIF19                           000002B3
ENDIF20                           000002BA
ENDIF21                           000002C1
ENDIF22                           000002C8
ENDIF23                           000002CF
ENDIF24                           000002D6
ENDIF25                           000002DD
ENDIF27                           0000029C
ENDIF28                           000001B6
ENDIF29                           000001E4
ENDIF3                            00000365
ENDIF4                            000002E8
ENDIF5                            0000032B
ENDIF6                            0000032B
ENDIF7                            0000032B
F                                 00000001
FERR                              00000002
FSR                               00000004
gpasm-1.4.0 #1107 (Apr  3 2018) /media/user/s   2-13-2022  17:56:42         PAGE 38


SYMBOL TABLE
  LABEL                             VALUE 

GCEN                              00000007
GIE                               00000007
GO                                00000002
GO_DONE                           00000002
GO_NOT_DONE                       00000002
I2CACK                            00000020
I2CACKPOLLSTATE                   00000021
I2CBYTE                           00000022
I2CMATCH                          00000023
I2CRESTART                        0000019F
I2CSEND                           000001A0
I2CSTART                          000001F8
I2CSTATE                          00000024
I2CSTOP                           0000020B
I2C_DATA                          00000005
I2C_LCD_BYTE                      00000025
I2C_READ                          00000002
I2C_START                         00000003
I2C_STOP                          00000004
INDF                              00000000
INITI2C                           00000224
INITI2CLCD                        0000022C
INITLCD                           00000271
INITSYS                           00000282
INTCON                            0000000B
INTE                              00000004
INTEDG                            00000006
INTF                              00000001
IRP                               00000007
LCDBACKLIGHT                      00000294
LCDBYTE                           00000026
LCDCOLUMN                         00000027
LCDCRSR                           00000028
LCDCURSOR                         0000029F
LCDLINE                           00000029
LCDNORMALWRITEBYTE                000002E3
LCDTEMP                           0000002A
LCD_BACKLIGHT                     0000002B
LCD_I2C_ADDRESS_CURRENT           0000002C
LCD_STATE                         0000002D
LOCATE                            0000032C
MUL8LOOP                          0000036D
NOT_A                             00000005
NOT_ADDRESS                       00000005
NOT_BO                            00000000
NOT_BOR                           00000000
NOT_DONE                          00000002
NOT_PD                            00000003
NOT_POR                           00000001
NOT_RBPU                          00000007
NOT_RC8                           00000006
NOT_T1SYNC                        00000002
NOT_TO                            00000004
gpasm-1.4.0 #1107 (Apr  3 2018) /media/user/s   2-13-2022  17:56:42         PAGE 39


SYMBOL TABLE
  LABEL                             VALUE 

NOT_TX8                           00000006
NOT_W                             00000002
NOT_WRITE                         00000002
OERR                              00000001
OPTION_REG                        00000081
P                                 00000004
PCFG0                             00000000
PCFG1                             00000001
PCFG2                             00000002
PCFG3                             00000003
PCL                               00000002
PCLATH                            0000000A
PCON                              0000008E
PEIE                              00000006
PEN                               00000002
PIE1                              0000008C
PIE2                              0000008D
PIR1                              0000000C
PIR2                              0000000D
PORTA                             00000005
PORTB                             00000006
PORTC                             00000007
PR2                               00000092
PRINT106                          00000344
PRINTLEN                          0000002E
PS0                               00000000
PS1                               00000001
PS2                               00000002
PSA                               00000003
R                                 00000002
RA0                               00000000
RA1                               00000001
RA2                               00000002
RA3                               00000003
RA4                               00000004
RA5                               00000005
RB0                               00000000
RB1                               00000001
RB2                               00000002
RB3                               00000003
RB4                               00000004
RB5                               00000005
RB6                               00000006
RB7                               00000007
RBIE                              00000003
RBIF                              00000000
RC0                               00000000
RC1                               00000001
RC2                               00000002
RC3                               00000003
RC4                               00000004
RC5                               00000005
RC6                               00000006
gpasm-1.4.0 #1107 (Apr  3 2018) /media/user/s   2-13-2022  17:56:42         PAGE 40


SYMBOL TABLE
  LABEL                             VALUE 

RC7                               00000007
RC8_9                             00000006
RC9                               00000006
RCD8                              00000000
RCEN                              00000003
RCIE                              00000005
RCIF                              00000005
RCREG                             0000001A
RCSTA                             00000018
RD                                00000000
READ_WRITE                        00000002
RP0                               00000005
RP1                               00000006
RSEN                              00000001
RX9                               00000006
RX9D                              00000000
R_NOT_W                           00000002
R_W                               00000002
S                                 00000003
SEN                               00000000
SMP                               00000007
SPBRG                             00000099
SPEN                              00000007
SREN                              00000005
SSPADD                            00000093
SSPBUF                            00000013
SSPCON                            00000014
SSPCON2                           00000091
SSPEN                             00000005
SSPIE                             00000003
SSPIF                             00000003
SSPM0                             00000000
SSPM1                             00000001
SSPM2                             00000002
SSPM3                             00000003
SSPOV                             00000006
SSPSTAT                           00000094
STATUS                            00000003
STRINGPOINTER                     0000002F
SYNC                              00000004
SYSBYTETEMPA                      00000075
SYSBYTETEMPB                      00000079
SYSBYTETEMPX                      00000070
SYSCALCTEMPA                      00000075
SYSCOMPEQUAL                      00000366
SYSLCDTEMP                        00000030
SYSMULTSUB                        0000036C
SYSPRINTDATAHANDLER               00000031
SYSPRINTDATAHANDLER_H             00000032
SYSPRINTTEMP                      00000033
SYSREADSTRING                     00000378
SYSREADSTRINGPART                 00000382
SYSREPEATTEMP1                    00000034
gpasm-1.4.0 #1107 (Apr  3 2018) /media/user/s   2-13-2022  17:56:42         PAGE 41


SYMBOL TABLE
  LABEL                             VALUE 

SYSREPEATTEMP2                    00000035
SYSREPEATTEMP3                    00000036
SYSSTRINGA                        00000077
SYSSTRINGA_H                      00000078
SYSSTRINGB                        00000072
SYSSTRINGB_H                      00000073
SYSSTRINGLENGTH                   00000076
SYSSTRINGPARAM1                   000001DF
SYSSTRINGREAD                     0000038E
SYSSTRINGREADCHECK                0000038B
SYSTEMP1                          00000037
SYSTEMP2                          00000038
SYSWAITTEMP10US                   00000075
SYSWAITTEMPMS                     00000072
SYSWAITTEMPMS_H                   00000073
SYSWAITTEMPS                      00000074
SYSWAITTEMPUS                     00000075
SYSWAITTEMPUS_H                   00000076
StringTable1                      0000039B
StringTable10                     0000040A
StringTable11                     00000413
StringTable12                     0000041B
StringTable13                     0000042C
StringTable14                     00000436
StringTable2                      000003AB
StringTable3                      000003B6
StringTable4                      000003C1
StringTable5                      000003CB
StringTable6                      000003D6
StringTable7                      000003DF
StringTable8                      000003E9
StringTable9                      000003F9
SysDoLoop_E1                      0000016E
SysDoLoop_S1                      00000019
SysForLoop1                       00000351
SysForLoopEnd1                    00000365
SysRepeatLoop1                    00000111
SysRepeatLoop2                    0000027A
SysRepeatLoop3                    000001AA
SysRepeatLoopEnd1                 00000123
SysRepeatLoopEnd2                 0000027F
SysRepeatLoopEnd3                 000001CC
SysStringTables                   00000394
SysWaitLoop1                      000001BC
SysWaitLoop2                      000001D7
T0CS                              00000005
T0IE                              00000005
T0IF                              00000002
T0SE                              00000004
T1CKPS0                           00000004
T1CKPS1                           00000005
T1CON                             00000010
T1INSYNC                          00000002
gpasm-1.4.0 #1107 (Apr  3 2018) /media/user/s   2-13-2022  17:56:42         PAGE 42


SYMBOL TABLE
  LABEL                             VALUE 

T1OSCEN                           00000003
T1SYNC                            00000002
T2CKPS0                           00000000
T2CKPS1                           00000001
T2CON                             00000012
TMR0                              00000001
TMR0IE                            00000005
TMR0IF                            00000002
TMR1                              0000000E
TMR1CS                            00000001
TMR1H                             0000000F
TMR1IE                            00000000
TMR1IF                            00000000
TMR1L                             0000000E
TMR1ON                            00000000
TMR2                              00000011
TMR2IE                            00000001
TMR2IF                            00000001
TMR2ON                            00000002
TOUTPS0                           00000003
TOUTPS1                           00000004
TOUTPS2                           00000005
TOUTPS3                           00000006
TRISA                             00000085
TRISA0                            00000000
TRISA1                            00000001
TRISA2                            00000002
TRISA3                            00000003
TRISA4                            00000004
TRISA5                            00000005
TRISB                             00000086
TRISB0                            00000000
TRISB1                            00000001
TRISB2                            00000002
TRISB3                            00000003
TRISB4                            00000004
TRISB5                            00000005
TRISB6                            00000006
TRISB7                            00000007
TRISC                             00000087
TRISC0                            00000000
TRISC1                            00000001
TRISC2                            00000002
TRISC3                            00000003
TRISC4                            00000004
TRISC5                            00000005
TRISC6                            00000006
TRISC7                            00000007
TRMT                              00000001
TX8_9                             00000006
TX9                               00000006
TX9D                              00000000
TXD8                              00000000
gpasm-1.4.0 #1107 (Apr  3 2018) /media/user/s   2-13-2022  17:56:42         PAGE 43


SYMBOL TABLE
  LABEL                             VALUE 

TXEN                              00000005
TXIE                              00000004
TXIF                              00000004
TXREG                             00000019
TXSTA                             00000098
UA                                00000001
W                                 00000000
WCOL                              00000007
WR                                00000001
WREN                              00000002
WRERR                             00000003
Z                                 00000002
_BODEN_OFF                        00003FBF
_BODEN_ON                         00003FFF
_BOREN_OFF                        00003FBF
_BOREN_ON                         00003FFF
_CONFIG                           00002007
_CPD_OFF                          00003FFF
_CPD_ON                           00003EFF
_CP_ALL                           00000FCF
_CP_HALF                          00001FDF
_CP_OFF                           00003FFF
_CP_UPPER_256                     00002FEF
_DEBUG_OFF                        00003FFF
_DEBUG_ON                         000037FF
_DEVID1                           00002006
_FOSC_EXTRC                       00003FFF
_FOSC_HS                          00003FFE
_FOSC_LP                          00003FFC
_FOSC_XT                          00003FFD
_HS_OSC                           00003FFE
_IDLOC0                           00002000
_IDLOC1                           00002001
_IDLOC2                           00002002
_IDLOC3                           00002003
_LP_OSC                           00003FFC
_LVP_OFF                          00003F7F
_LVP_ON                           00003FFF
_PWRTE_OFF                        00003FFF
_PWRTE_ON                         00003FF7
_RC_OSC                           00003FFF
_WDTE_OFF                         00003FFB
_WDTE_ON                          00003FFF
_WDT_OFF                          00003FFB
_WDT_ON                           00003FFF
_WRT_ENABLE_OFF                   00003DFF
_WRT_ENABLE_ON                    00003FFF
_WRT_OFF                          00003DFF
_WRT_ON                           00003FFF
_XT_OSC                           00003FFD
__16F876                          00000001
__CODE_END                        00001FFF
__CODE_START                      00000000
gpasm-1.4.0 #1107 (Apr  3 2018) /media/user/s   2-13-2022  17:56:42         PAGE 44


SYMBOL TABLE
  LABEL                             VALUE 

__COMMON_RAM_END                  0000007F
__COMMON_RAM_START                00000070
__EEPROM_END                      000021FF
__EEPROM_START                    00002100
__VECTOR_INT                      00000004
__VECTOR_RESET                    00000000


MEMORY USAGE MAP ('X' = Used,  '-' = Unused)

0000 : XXX-XXXXXXXXXXXX XXXXXXXXXXXXXXXX XXXXXXXXXXXXXXXX XXXXXXXXXXXXXXXX
0040 : XXXXXXXXXXXXXXXX XXXXXXXXXXXXXXXX XXXXXXXXXXXXXXXX XXXXXXXXXXXXXXXX
0080 : XXXXXXXXXXXXXXXX XXXXXXXXXXXXXXXX XXXXXXXXXXXXXXXX XXXXXXXXXXXXXXXX
00C0 : XXXXXXXXXXXXXXXX XXXXXXXXXXXXXXXX XXXXXXXXXXXXXXXX XXXXXXXXXXXXXXXX
0100 : XXXXXXXXXXXXXXXX XXXXXXXXXXXXXXXX XXXXXXXXXXXXXXXX XXXXXXXXXXXXXXXX
0140 : XXXXXXXXXXXXXXXX XXXXXXXXXXXXXXXX XXXXXXXXXXXXXXXX XXXXXXXXXXXXXXXX
0180 : XXXXXXXXXXXXXXXX XXXXXXXXXXXXXXXX XXXXXXXXXXXXXXXX XXXXXXXXXXXXXXXX
01C0 : XXXXXXXXXXXXXXXX XXXXXXXXXXXXXXXX XXXXXXXXXXXXXXXX XXXXXXXXXXXXXXXX
0200 : XXXXXXXXXXXXXXXX XXXXXXXXXXXXXXXX XXXXXXXXXXXXXXXX XXXXXXXXXXXXXXXX
0240 : XXXXXXXXXXXXXXXX XXXXXXXXXXXXXXXX XXXXXXXXXXXXXXXX XXXXXXXXXXXXXXXX
0280 : XXXXXXXXXXXXXXXX XXXXXXXXXXXXXXXX XXXXXXXXXXXXXXXX XXXXXXXXXXXXXXXX
02C0 : XXXXXXXXXXXXXXXX XXXXXXXXXXXXXXXX XXXXXXXXXXXXXXXX XXXXXXXXXXXXXXXX
0300 : XXXXXXXXXXXXXXXX XXXXXXXXXXXXXXXX XXXXXXXXXXXXXXXX XXXXXXXXXXXXXXXX
0340 : XXXXXXXXXXXXXXXX XXXXXXXXXXXXXXXX XXXXXXXXXXXXXXXX XXXXXXXXXXXXXXXX
0380 : XXXXXXXXXXXXXXXX XXXXXXXXXXXXXXXX XXXXXXXXXXXXXXXX XXXXXXXXXXXXXXXX
03C0 : XXXXXXXXXXXXXXXX XXXXXXXXXXXXXXXX XXXXXXXXXXXXXXXX XXXXXXXXXXXXXXXX
0400 : XXXXXXXXXXXXXXXX XXXXXXXXXXXXXXXX XXXXXXXXXXXXXXXX XXXXXXXXXXXXXXX-
2000 : -------X-------- ---------------- ---------------- ----------------

All other memory blocks unused.

Program Memory Words Used:  1086
Program Memory Words Free:  7106


Errors   :     0
Warnings :     1 reported,     0 suppressed
Messages :     0 reported,    24 suppressed

