

Microchip MPLAB XC8 Assembler V2.32 build 20210201212658 
                                                                                               Tue Dec 14 16:25:51 2021

Microchip MPLAB XC8 C Compiler v2.32 (Free license) build 20210201212658 Og1 
     1                           	processor	16F887
     2                           	pagewidth 120
     3                           	opt	flic
     4                           	psect	idataBANK0,global,class=CODE,delta=2,noexec
     5                           	psect	strings,global,class=STRING,delta=2,noexec
     6                           	psect	cinit,global,class=CODE,merge=1,delta=2
     7                           	psect	bitbssBANK0,global,bit,class=BANK0,space=1,delta=1,noexec
     8                           	psect	dataBANK0,global,class=BANK0,space=1,delta=1,noexec
     9                           	psect	cstackCOMMON,global,class=COMMON,space=1,delta=1,noexec
    10                           	psect	cstackBANK0,global,class=BANK0,space=1,delta=1,noexec
    11                           	psect	maintext,global,class=CODE,split=1,delta=2
    12                           	psect	text1,local,class=CODE,merge=1,delta=2,group=1
    13                           	psect	text2,local,class=CODE,merge=1,delta=2,group=1
    14                           	psect	text3,local,class=CODE,merge=1,delta=2
    15                           	psect	text4,local,class=CODE,merge=1,delta=2
    16                           	psect	text5,local,class=CODE,merge=1,delta=2
    17                           	psect	text6,local,class=CODE,merge=1,delta=2
    18                           	psect	text7,local,class=CODE,merge=1,delta=2
    19                           	psect	text8,local,class=CODE,merge=1,delta=2
    20                           	psect	text9,local,class=CODE,merge=1,delta=2
    21                           	psect	text10,local,class=CODE,merge=1,delta=2,group=1
    22                           	psect	text11,local,class=CODE,merge=1,delta=2,group=1
    23                           	psect	text12,local,class=CODE,merge=1,delta=2,group=1
    24                           	psect	text13,local,class=CODE,merge=1,delta=2,group=1
    25                           	psect	config,global,abs,ovrld,class=CONFIG,space=4,delta=2,noexec
    26                           	dabs	1,0x7E,2
    27  0000                     
    28                           ; Version 2.20
    29                           ; Generated 12/02/2020 GMT
    30                           ; 
    31                           ; Copyright © 2020, Microchip Technology Inc. and its subsidiaries ("Microchip")
    32                           ; All rights reserved.
    33                           ; 
    34                           ; This software is developed by Microchip Technology Inc. and its subsidiaries ("Microch
      +                          ip").
    35                           ; 
    36                           ; Redistribution and use in source and binary forms, with or without modification, are
    37                           ; permitted provided that the following conditions are met:
    38                           ; 
    39                           ;     1. Redistributions of source code must retain the above copyright notice, this lis
      +                          t of
    40                           ;        conditions and the following disclaimer.
    41                           ; 
    42                           ;     2. Redistributions in binary form must reproduce the above copyright notice, this 
      +                          list
    43                           ;        of conditions and the following disclaimer in the documentation and/or other
    44                           ;        materials provided with the distribution.
    45                           ; 
    46                           ;     3. Microchip's name may not be used to endorse or promote products derived from th
      +                          is
    47                           ;        software without specific prior written permission.
    48                           ; 
    49                           ; THIS SOFTWARE IS PROVIDED BY MICROCHIP "AS IS" AND ANY EXPRESS OR IMPLIED WARRANTIES,
    50                           ; INCLUDING, BUT NOT LIMITED TO, THE IMPLIED WARRANTIES OF MERCHANTABILITY AND FITNESS F
      +                          OR
    51                           ; PURPOSE ARE DISCLAIMED.  IN NO EVENT SHALL MICROCHIP BE LIABLE FOR ANY DIRECT, INDIREC
      +                          T,
    52                           ; INCIDENTAL, SPECIAL, EXEMPLARY, OR CONSEQUENTIAL DAMAGES (INCLUDING BUT NOT LIMITED TO
    53                           ; PROCUREMENT OF SUBSTITUTE GOODS OR SERVICES; LOSS OF USE, DATA OR PROFITS; OR BUSINESS
    54                           ; INTERRUPTION) HOWSOEVER CAUSED AND ON ANY THEORY OF LIABILITY, WHETHER IN CONTRACT, ST
      +                          RICT
    55                           ; LIABILITY, OR TORT (INCLUDING NEGLIGENCE OR OTHERWISE) ARISING IN ANY WAY OUT OF THE U
      +                          SE OF
    56                           ; THIS SOFTWARE, EVEN IF ADVISED OF THE POSSIBILITY OF SUCH DAMAGE.
    57                           ; 
    58                           ; 
    59                           ; Code-generator required, PIC16F887 Definitions
    60                           ; 
    61                           ; SFR Addresses
    62  0000                     	;# 
    63  0001                     	;# 
    64  0002                     	;# 
    65  0003                     	;# 
    66  0004                     	;# 
    67  0005                     	;# 
    68  0006                     	;# 
    69  0007                     	;# 
    70  0008                     	;# 
    71  0009                     	;# 
    72  000A                     	;# 
    73  000B                     	;# 
    74  000C                     	;# 
    75  000D                     	;# 
    76  000E                     	;# 
    77  000E                     	;# 
    78  000F                     	;# 
    79  0010                     	;# 
    80  0011                     	;# 
    81  0012                     	;# 
    82  0013                     	;# 
    83  0014                     	;# 
    84  0015                     	;# 
    85  0015                     	;# 
    86  0016                     	;# 
    87  0017                     	;# 
    88  0018                     	;# 
    89  0019                     	;# 
    90  001A                     	;# 
    91  001B                     	;# 
    92  001B                     	;# 
    93  001C                     	;# 
    94  001D                     	;# 
    95  001E                     	;# 
    96  001F                     	;# 
    97  0081                     	;# 
    98  0085                     	;# 
    99  0086                     	;# 
   100  0087                     	;# 
   101  0088                     	;# 
   102  0089                     	;# 
   103  008C                     	;# 
   104  008D                     	;# 
   105  008E                     	;# 
   106  008F                     	;# 
   107  0090                     	;# 
   108  0091                     	;# 
   109  0092                     	;# 
   110  0093                     	;# 
   111  0093                     	;# 
   112  0093                     	;# 
   113  0094                     	;# 
   114  0095                     	;# 
   115  0096                     	;# 
   116  0097                     	;# 
   117  0098                     	;# 
   118  0099                     	;# 
   119  009A                     	;# 
   120  009B                     	;# 
   121  009C                     	;# 
   122  009D                     	;# 
   123  009E                     	;# 
   124  009F                     	;# 
   125  0105                     	;# 
   126  0107                     	;# 
   127  0108                     	;# 
   128  0109                     	;# 
   129  010C                     	;# 
   130  010C                     	;# 
   131  010D                     	;# 
   132  010E                     	;# 
   133  010F                     	;# 
   134  0185                     	;# 
   135  0187                     	;# 
   136  0188                     	;# 
   137  0189                     	;# 
   138  018C                     	;# 
   139  018D                     	;# 
   140  0000                     	;# 
   141  0001                     	;# 
   142  0002                     	;# 
   143  0003                     	;# 
   144  0004                     	;# 
   145  0005                     	;# 
   146  0006                     	;# 
   147  0007                     	;# 
   148  0008                     	;# 
   149  0009                     	;# 
   150  000A                     	;# 
   151  000B                     	;# 
   152  000C                     	;# 
   153  000D                     	;# 
   154  000E                     	;# 
   155  000E                     	;# 
   156  000F                     	;# 
   157  0010                     	;# 
   158  0011                     	;# 
   159  0012                     	;# 
   160  0013                     	;# 
   161  0014                     	;# 
   162  0015                     	;# 
   163  0015                     	;# 
   164  0016                     	;# 
   165  0017                     	;# 
   166  0018                     	;# 
   167  0019                     	;# 
   168  001A                     	;# 
   169  001B                     	;# 
   170  001B                     	;# 
   171  001C                     	;# 
   172  001D                     	;# 
   173  001E                     	;# 
   174  001F                     	;# 
   175  0081                     	;# 
   176  0085                     	;# 
   177  0086                     	;# 
   178  0087                     	;# 
   179  0088                     	;# 
   180  0089                     	;# 
   181  008C                     	;# 
   182  008D                     	;# 
   183  008E                     	;# 
   184  008F                     	;# 
   185  0090                     	;# 
   186  0091                     	;# 
   187  0092                     	;# 
   188  0093                     	;# 
   189  0093                     	;# 
   190  0093                     	;# 
   191  0094                     	;# 
   192  0095                     	;# 
   193  0096                     	;# 
   194  0097                     	;# 
   195  0098                     	;# 
   196  0099                     	;# 
   197  009A                     	;# 
   198  009B                     	;# 
   199  009C                     	;# 
   200  009D                     	;# 
   201  009E                     	;# 
   202  009F                     	;# 
   203  0105                     	;# 
   204  0107                     	;# 
   205  0108                     	;# 
   206  0109                     	;# 
   207  010C                     	;# 
   208  010C                     	;# 
   209  010D                     	;# 
   210  010E                     	;# 
   211  010F                     	;# 
   212  0185                     	;# 
   213  0187                     	;# 
   214  0188                     	;# 
   215  0189                     	;# 
   216  018C                     	;# 
   217  018D                     	;# 
   218                           
   219                           	psect	idataBANK0
   220  000D                     __pidataBANK0:
   221                           
   222                           ;initializer for main@F1360
   223  000D  3431               	retlw	49
   224  000E  342E               	retlw	46
   225  000F  3432               	retlw	50
   226  0010  3433               	retlw	51
   227  0011  3434               	retlw	52
   228  0012  3400               	retlw	0
   229  001E                     _ADRESH	set	30
   230  001F                     _ADCON0bits	set	31
   231  0043                     _RD3	set	67
   232  0047                     _RD7	set	71
   233  0046                     _RD6	set	70
   234  0045                     _RD5	set	69
   235  0044                     _RD4	set	68
   236  0042                     _RD2	set	66
   237  009E                     _ADRESL	set	158
   238  009F                     _ADCON1bits	set	159
   239  0428                     _TRISA0	set	1064
   240  0447                     _TRISD7	set	1095
   241  0446                     _TRISD6	set	1094
   242  0445                     _TRISD5	set	1093
   243  0444                     _TRISD4	set	1092
   244  0443                     _TRISD3	set	1091
   245  0442                     _TRISD2	set	1090
   246  0847                     _C2ON	set	2119
   247  083F                     _C1ON	set	2111
   248  0189                     _ANSELH	set	393
   249  0188                     _ANSEL	set	392
   250                           
   251                           	psect	strings
   252  0800                     __pstrings:
   253  0800                     stringtab:
   254  0800                     __stringtab:
   255                           
   256                           ;	String table - string pointers are 1 byte each
   257  0800  1BFF               	btfsc	btemp+1,7
   258  0801  280A               	ljmp	stringcode
   259  0802  1383               	bcf	3,7
   260  0803  187F               	btfsc	btemp+1,0
   261  0804  1783               	bsf	3,7
   262  0805  0800               	movf	0,w
   263  0806  0A84               	incf	4,f
   264  0807  1903               	skipnz
   265  0808  0AFF               	incf	btemp+1,f
   266  0809  0008               	return
   267  080A                     stringcode:
   268  080A                     stringdir:
   269  080A  3008               	movlw	high stringdir
   270  080B  008A               	movwf	10
   271  080C  0804               	movf	4,w
   272  080D  0A84               	incf	4,f
   273  080E  0782               	addwf	2,f
   274  080F                     __stringbase:
   275  080F  3400               	retlw	0
   276  0810                     __end_of__stringtab:
   277  0810                     STR_2:
   278  0810  3456               	retlw	86	;'V'
   279  0811  346F               	retlw	111	;'o'
   280  0812  346C               	retlw	108	;'l'
   281  0813  3474               	retlw	116	;'t'
   282  0814  3420               	retlw	32	;' '
   283  0815  3420               	retlw	32	;' '
   284  0816  343A               	retlw	58	;':'
   285  0817  3420               	retlw	32	;' '
   286  0818  3400               	retlw	0
   287  0819                     STR_1:
   288  0819  3441               	retlw	65	;'A'
   289  081A  3444               	retlw	68	;'D'
   290  081B  3443               	retlw	67	;'C'
   291  081C  3420               	retlw	32	;' '
   292  081D  3469               	retlw	105	;'i'
   293  081E  346E               	retlw	110	;'n'
   294  081F  343A               	retlw	58	;':'
   295  0820  3420               	retlw	32	;' '
   296  0821  3400               	retlw	0
   297                           
   298                           	psect	cinit
   299  07D7                     start_initialization:	
   300                           ; #config settings
   301                           
   302  07D7                     __initialization:
   303                           
   304                           ; Initialize objects allocated to BANK0
   305  07D7  120A  118A  200D  120A  118A  	fcall	__pidataBANK0	;fetch initializer
   306  07DC  00E4               	movwf	__pdataBANK0& (0+127)
   307  07DD  120A  118A  200E  120A  118A  	fcall	__pidataBANK0+1	;fetch initializer
   308  07E2  00E5               	movwf	(__pdataBANK0+1)& (0+127)
   309  07E3  120A  118A  200F  120A  118A  	fcall	__pidataBANK0+2	;fetch initializer
   310  07E8  00E6               	movwf	(__pdataBANK0+2)& (0+127)
   311  07E9  120A  118A  2010  120A  118A  	fcall	__pidataBANK0+3	;fetch initializer
   312  07EE  00E7               	movwf	(__pdataBANK0+3)& (0+127)
   313  07EF  120A  118A  2011  120A  118A  	fcall	__pidataBANK0+4	;fetch initializer
   314  07F4  00E8               	movwf	(__pdataBANK0+4)& (0+127)
   315  07F5  120A  118A  2012  120A  118A  	fcall	__pidataBANK0+5	;fetch initializer
   316  07FA  00E9               	movwf	(__pdataBANK0+5)& (0+127)
   317                           
   318                           ; Clear objects allocated to BITBANK0
   319  07FB  01EA               	clrf	(__pbitbssBANK0/(0+8))& (0+127)
   320  07FC                     end_of_initialization:	
   321                           ;End of C runtime variable initialization code
   322                           
   323  07FC                     __end_of__initialization:
   324  07FC  0183               	clrf	3
   325  07FD  120A  118A  2979   	ljmp	_main	;jump to C main() function
   326                           
   327                           	psect	bitbssBANK0
   328  0350                     __pbitbssBANK0:
   329  0350                     _RS:
   330  0350                     	ds	1
   331                           
   332                           	psect	dataBANK0
   333  0064                     __pdataBANK0:
   334  0064                     main@F1360:
   335  0064                     	ds	6
   336                           
   337                           	psect	cstackCOMMON
   338  0070                     __pcstackCOMMON:
   339  0070                     ?_Lcd_Write_Nibble:
   340  0070                     ??_Lcd_Write_Nibble:	
   341                           ; 1 bytes @ 0x0
   342                           
   343  0070                     ?_Lcd_Cmd:	
   344                           ; 1 bytes @ 0x0
   345                           
   346  0070                     ?_Lcd_Init:	
   347                           ; 1 bytes @ 0x0
   348                           
   349  0070                     ?_main:	
   350                           ; 1 bytes @ 0x0
   351                           
   352  0070                     ?__Umul8_16:	
   353                           ; 1 bytes @ 0x0
   354                           
   355  0070                     ?___lwmod:	
   356                           ; 2 bytes @ 0x0
   357                           
   358  0070                     ?___xxtofl:	
   359                           ; 2 bytes @ 0x0
   360                           
   361  0070                     __Umul8_16@multiplicand:	
   362                           ; 4 bytes @ 0x0
   363                           
   364  0070                     ___lwmod@divisor:	
   365                           ; 1 bytes @ 0x0
   366                           
   367  0070                     ___xxtofl@val:	
   368                           ; 2 bytes @ 0x0
   369                           
   370                           
   371                           ; 4 bytes @ 0x0
   372  0070                     	ds	1
   373  0071                     Lcd_Write_Nibble@n:
   374                           
   375                           ; 1 bytes @ 0x1
   376  0071                     	ds	1
   377  0072                     ??__Umul8_16:
   378  0072                     ??_Lcd_Cmd:	
   379                           ; 1 bytes @ 0x2
   380                           
   381  0072                     ?_Lcd_Print:	
   382                           ; 1 bytes @ 0x2
   383                           
   384  0072                     Lcd_Print@Dt_Str:	
   385                           ; 1 bytes @ 0x2
   386                           
   387  0072                     ___lwmod@dividend:	
   388                           ; 2 bytes @ 0x2
   389                           
   390                           
   391                           ; 2 bytes @ 0x2
   392  0072                     	ds	2
   393  0074                     ??_Lcd_Print:
   394  0074                     ??___lwmod:	
   395                           ; 1 bytes @ 0x4
   396                           
   397  0074                     ??___xxtofl:	
   398                           ; 1 bytes @ 0x4
   399                           
   400  0074                     Lcd_Cmd@Command:	
   401                           ; 1 bytes @ 0x4
   402                           
   403  0074                     __Umul8_16@product:	
   404                           ; 1 bytes @ 0x4
   405                           
   406                           
   407                           ; 2 bytes @ 0x4
   408  0074                     	ds	1
   409  0075                     ?_Lcd_Goto:
   410  0075                     ??_Lcd_Init:	
   411                           ; 1 bytes @ 0x5
   412                           
   413  0075                     Lcd_Goto@row:	
   414                           ; 1 bytes @ 0x5
   415                           
   416  0075                     Lcd_Print@i:	
   417                           ; 1 bytes @ 0x5
   418                           
   419  0075                     ___lwmod@counter:	
   420                           ; 1 bytes @ 0x5
   421                           
   422                           
   423                           ; 1 bytes @ 0x5
   424  0075                     	ds	1
   425  0076                     ??_Lcd_Goto:
   426  0076                     __Umul8_16@word_mpld:	
   427                           ; 1 bytes @ 0x6
   428                           
   429                           
   430                           ; 2 bytes @ 0x6
   431  0076                     	ds	2
   432  0078                     Lcd_Goto@col:
   433  0078                     __Umul8_16@multiplier:	
   434                           ; 1 bytes @ 0x8
   435                           
   436  0078                     ___xxtofl@sign:	
   437                           ; 1 bytes @ 0x8
   438                           
   439                           
   440                           ; 1 bytes @ 0x8
   441  0078                     	ds	1
   442  0079                     ?_Lcd_Write:
   443  0079                     Lcd_Write@col:	
   444                           ; 1 bytes @ 0x9
   445                           
   446  0079                     ___xxtofl@exp:	
   447                           ; 1 bytes @ 0x9
   448                           
   449                           
   450                           ; 1 bytes @ 0x9
   451  0079                     	ds	1
   452  007A                     Lcd_Write@Dt_Str:
   453  007A                     ___xxtofl@arg:	
   454                           ; 2 bytes @ 0xA
   455                           
   456                           
   457                           ; 4 bytes @ 0xA
   458  007A                     	ds	2
   459  007C                     ??_Lcd_Write:
   460                           
   461                           ; 1 bytes @ 0xC
   462  007C                     	ds	1
   463  007D                     Lcd_Write@row:
   464                           
   465                           ; 1 bytes @ 0xD
   466  007D                     	ds	1
   467                           
   468                           	psect	cstackBANK0
   469  0020                     __pcstackBANK0:
   470  0020                     ?___fldiv:
   471  0020                     ?___flmul:	
   472                           ; 4 bytes @ 0x0
   473                           
   474  0020                     ___fldiv@a:	
   475                           ; 4 bytes @ 0x0
   476                           
   477  0020                     ___flmul@b:	
   478                           ; 4 bytes @ 0x0
   479                           
   480                           
   481                           ; 4 bytes @ 0x0
   482  0020                     	ds	4
   483  0024                     ___fldiv@b:
   484  0024                     ___flmul@a:	
   485                           ; 4 bytes @ 0x4
   486                           
   487                           
   488                           ; 4 bytes @ 0x4
   489  0024                     	ds	4
   490  0028                     ??___fldiv:
   491  0028                     ??___flmul:	
   492                           ; 1 bytes @ 0x8
   493                           
   494                           
   495                           ; 1 bytes @ 0x8
   496  0028                     	ds	5
   497  002D                     ___flmul@sign:
   498  002D                     ___fldiv@rem:	
   499                           ; 1 bytes @ 0xD
   500                           
   501                           
   502                           ; 4 bytes @ 0xD
   503  002D                     	ds	1
   504  002E                     ___flmul@grs:
   505                           
   506                           ; 4 bytes @ 0xE
   507  002E                     	ds	3
   508  0031                     ___fldiv@sign:
   509                           
   510                           ; 1 bytes @ 0x11
   511  0031                     	ds	1
   512  0032                     ___flmul@aexp:
   513  0032                     ___fldiv@new_exp:	
   514                           ; 1 bytes @ 0x12
   515                           
   516                           
   517                           ; 2 bytes @ 0x12
   518  0032                     	ds	1
   519  0033                     ___flmul@bexp:
   520                           
   521                           ; 1 bytes @ 0x13
   522  0033                     	ds	1
   523  0034                     ___fldiv@grs:
   524  0034                     ___flmul@prod:	
   525                           ; 4 bytes @ 0x14
   526                           
   527                           
   528                           ; 4 bytes @ 0x14
   529  0034                     	ds	4
   530  0038                     ___fldiv@bexp:
   531  0038                     ___flmul@temp:	
   532                           ; 1 bytes @ 0x18
   533                           
   534                           
   535                           ; 2 bytes @ 0x18
   536  0038                     	ds	1
   537  0039                     ___fldiv@aexp:
   538                           
   539                           ; 1 bytes @ 0x19
   540  0039                     	ds	1
   541  003A                     ?___fltol:
   542  003A                     ___fltol@f1:	
   543                           ; 4 bytes @ 0x1A
   544                           
   545                           
   546                           ; 4 bytes @ 0x1A
   547  003A                     	ds	4
   548  003E                     ??___fltol:
   549                           
   550                           ; 1 bytes @ 0x1E
   551  003E                     	ds	5
   552  0043                     ___fltol@sign1:
   553                           
   554                           ; 1 bytes @ 0x23
   555  0043                     	ds	1
   556  0044                     ___fltol@exp1:
   557                           
   558                           ; 1 bytes @ 0x24
   559  0044                     	ds	1
   560  0045                     ?_ItoStr:
   561  0045                     ItoStr@valor:	
   562                           ; 1 bytes @ 0x25
   563                           
   564                           
   565                           ; 2 bytes @ 0x25
   566  0045                     	ds	2
   567  0047                     ItoStr@tam:
   568                           
   569                           ; 1 bytes @ 0x27
   570  0047                     	ds	1
   571  0048                     ItoStr@str:
   572                           
   573                           ; 1 bytes @ 0x28
   574  0048                     	ds	1
   575  0049                     ItoStr@volt:
   576                           
   577                           ; 1 bytes @ 0x29
   578  0049                     	ds	1
   579  004A                     ItoStr@dot:
   580                           
   581                           ; 1 bytes @ 0x2A
   582  004A                     	ds	1
   583  004B                     ??_ItoStr:
   584                           
   585                           ; 1 bytes @ 0x2B
   586  004B                     	ds	2
   587  004D                     ItoStr@k:
   588                           
   589                           ; 2 bytes @ 0x2D
   590  004D                     	ds	2
   591  004F                     ItoStr@digito:
   592                           
   593                           ; 1 bytes @ 0x2F
   594  004F                     	ds	1
   595  0050                     ItoStr@termo:
   596                           
   597                           ; 2 bytes @ 0x30
   598  0050                     	ds	2
   599  0052                     ItoStr@pos:
   600                           
   601                           ; 1 bytes @ 0x32
   602  0052                     	ds	1
   603  0053                     ??_main:
   604                           
   605                           ; 1 bytes @ 0x33
   606  0053                     	ds	3
   607  0056                     main@tensao:
   608                           
   609                           ; 4 bytes @ 0x36
   610  0056                     	ds	4
   611  005A                     main@texto:
   612                           
   613                           ; 6 bytes @ 0x3A
   614  005A                     	ds	6
   615  0060                     _main$821:
   616                           
   617                           ; 2 bytes @ 0x40
   618  0060                     	ds	2
   619  0062                     main@num_adc:
   620                           
   621                           ; 2 bytes @ 0x42
   622  0062                     	ds	2
   623                           
   624                           	psect	maintext
   625  0179                     __pmaintext:	
   626 ;;
   627 ;;Main: autosize = 0, tempsize = 3, incstack = 0, save=0
   628 ;;
   629 ;; *************** function _main *****************
   630 ;; Defined at:
   631 ;;		line 75 in file "/home/user/Escritorio/testVref_887/sources_orig/testVref.c"
   632 ;; Parameters:    Size  Location     Type
   633 ;;		None
   634 ;; Auto vars:     Size  Location     Type
   635 ;;  texto           6   58[BANK0 ] unsigned char [6]
   636 ;;  tensao          4   54[BANK0 ] float 
   637 ;;  num_adc         2   66[BANK0 ] unsigned int 
   638 ;; Return value:  Size  Location     Type
   639 ;;                  1    wreg      void 
   640 ;; Registers used:
   641 ;;		wreg, fsr0l, fsr0h, status,2, status,0, btemp+1, pclath, cstack
   642 ;; Tracked objects:
   643 ;;		On entry : B00/0
   644 ;;		On exit  : 0/0
   645 ;;		Unchanged: 0/0
   646 ;; Data sizes:     COMMON   BANK0   BANK1   BANK3   BANK2
   647 ;;      Params:         0       0       0       0       0
   648 ;;      Locals:         0      14       0       0       0
   649 ;;      Temps:          0       3       0       0       0
   650 ;;      Totals:         0      17       0       0       0
   651 ;;Total ram usage:       17 bytes
   652 ;; Hardware stack levels required when called: 4
   653 ;; This function calls:
   654 ;;		_ItoStr
   655 ;;		_Lcd_Init
   656 ;;		_Lcd_Write
   657 ;;		___flmul
   658 ;;		___fltol
   659 ;;		___xxtofl
   660 ;; This function is called by:
   661 ;;		Startup code after reset
   662 ;; This function uses a non-reentrant model
   663 ;;
   664                           
   665                           
   666                           ;psect for function _main
   667  0179                     _main:
   668  0179                     l1868:	
   669                           ;incstack = 0
   670                           ; Regs used in _main: [wreg-fsr0h+status,2+status,0+btemp+1+pclath+cstack]
   671                           
   672                           
   673                           ;/home/user/Escritorio/testVref_887/sources_orig/testVref.c: 78:     unsigned int num_ad
      +                          c;;/home/user/Escritorio/testVref_887/sources_orig/testVref.c: 79:     float tensao;;/ho
      +                          me/user/Escritorio/testVref_887/sources_orig/testVref.c: 80:     char texto[]="1.234";
   674  0179  305A               	movlw	main@texto& (0+255)
   675  017A  0084               	movwf	4
   676  017B  1283               	bcf	3,5	;RP0=0, select bank0
   677  017C  1303               	bcf	3,6	;RP1=0, select bank0
   678  017D  0864               	movf	main@F1360,w
   679  017E  1383               	bcf	3,7	;select IRP bank0
   680  017F  0080               	movwf	0
   681  0180  0A84               	incf	4,f
   682  0181  0865               	movf	main@F1360+1,w
   683  0182  0080               	movwf	0
   684  0183  0A84               	incf	4,f
   685  0184  0866               	movf	main@F1360+2,w
   686  0185  0080               	movwf	0
   687  0186  0A84               	incf	4,f
   688  0187  0867               	movf	main@F1360+3,w
   689  0188  0080               	movwf	0
   690  0189  0A84               	incf	4,f
   691  018A  0868               	movf	main@F1360+4,w
   692  018B  0080               	movwf	0
   693  018C  0A84               	incf	4,f
   694  018D  0869               	movf	main@F1360+5,w
   695  018E  0080               	movwf	0
   696  018F                     l1870:
   697                           
   698                           ;/home/user/Escritorio/testVref_887/sources_orig/testVref.c: 83:     ANSEL = 0x01;
   699  018F  3001               	movlw	1
   700  0190  1683               	bsf	3,5	;RP0=1, select bank3
   701  0191  1703               	bsf	3,6	;RP1=1, select bank3
   702  0192  0088               	movwf	8	;volatile
   703  0193                     l1872:
   704                           
   705                           ;/home/user/Escritorio/testVref_887/sources_orig/testVref.c: 84:     ANSELH = 0x00;
   706  0193  0189               	clrf	9	;volatile
   707  0194                     l1874:
   708                           
   709                           ;/home/user/Escritorio/testVref_887/sources_orig/testVref.c: 85:     C1ON = 0x00;
   710  0194  1283               	bcf	3,5	;RP0=0, select bank2
   711  0195  1703               	bsf	3,6	;RP1=1, select bank2
   712  0196  1387               	bcf	7,7	;volatile
   713  0197                     l1876:
   714                           
   715                           ;/home/user/Escritorio/testVref_887/sources_orig/testVref.c: 86:     C2ON = 0x00;
   716  0197  1388               	bcf	8,7	;volatile
   717  0198                     l1878:
   718                           
   719                           ;/home/user/Escritorio/testVref_887/sources_orig/testVref.c: 87:     TRISA0 = 0x01;
   720  0198  1683               	bsf	3,5	;RP0=1, select bank1
   721  0199  1303               	bcf	3,6	;RP1=0, select bank1
   722  019A  1405               	bsf	5,0	;volatile
   723  019B                     l1880:
   724                           
   725                           ;/home/user/Escritorio/testVref_887/sources_orig/testVref.c: 90:     ADCON0bits.ADCS = 0
      +                          x02;
   726  019B  1283               	bcf	3,5	;RP0=0, select bank0
   727  019C  1303               	bcf	3,6	;RP1=0, select bank0
   728  019D  081F               	movf	31,w	;volatile
   729  019E  393F               	andlw	-193
   730  019F  3880               	iorlw	128
   731  01A0  009F               	movwf	31	;volatile
   732  01A1                     l1882:
   733                           
   734                           ;/home/user/Escritorio/testVref_887/sources_orig/testVref.c: 91:     ADCON1bits.VCFG1 = 
      +                          0x00;
   735  01A1  1683               	bsf	3,5	;RP0=1, select bank1
   736  01A2  1303               	bcf	3,6	;RP1=0, select bank1
   737  01A3  129F               	bcf	31,5	;volatile
   738  01A4                     l1884:
   739                           
   740                           ;/home/user/Escritorio/testVref_887/sources_orig/testVref.c: 92:     ADCON1bits.VCFG0 = 
      +                          0x00;
   741  01A4  121F               	bcf	31,4	;volatile
   742  01A5                     l1886:
   743                           
   744                           ;/home/user/Escritorio/testVref_887/sources_orig/testVref.c: 93:     ADCON0bits.CHS = 0x
      +                          00;
   745  01A5  30C3               	movlw	-61
   746  01A6  1283               	bcf	3,5	;RP0=0, select bank0
   747  01A7  1303               	bcf	3,6	;RP1=0, select bank0
   748  01A8  059F               	andwf	31,f	;volatile
   749  01A9                     l1888:
   750                           
   751                           ;/home/user/Escritorio/testVref_887/sources_orig/testVref.c: 94:     ADCON1bits.ADFM = 0
      +                          x01;
   752  01A9  1683               	bsf	3,5	;RP0=1, select bank1
   753  01AA  1303               	bcf	3,6	;RP1=0, select bank1
   754  01AB  179F               	bsf	31,7	;volatile
   755  01AC                     l1890:
   756                           
   757                           ;/home/user/Escritorio/testVref_887/sources_orig/testVref.c: 95:     ADCON0bits.ADON = 0
      +                          x01;
   758  01AC  1283               	bcf	3,5	;RP0=0, select bank0
   759  01AD  1303               	bcf	3,6	;RP1=0, select bank0
   760  01AE  141F               	bsf	31,0	;volatile
   761  01AF                     l1892:
   762                           
   763                           ;/home/user/Escritorio/testVref_887/sources_orig/testVref.c: 97:     Lcd_Init();
   764  01AF  120A  158A  269F  120A  118A  	fcall	_Lcd_Init
   765  01B4                     l1894:
   766                           
   767                           ;/home/user/Escritorio/testVref_887/sources_orig/testVref.c: 99:     Lcd_Write(1,1,"ADC 
      +                          in: ");
   768  01B4  01F9               	clrf	Lcd_Write@col
   769  01B5  0AF9               	incf	Lcd_Write@col,f
   770  01B6  300A               	movlw	(low ((STR_1-__stringbase)| (0+32768)))& (0+255)
   771  01B7  00FA               	movwf	Lcd_Write@Dt_Str
   772  01B8  3080               	movlw	128
   773  01B9  00FB               	movwf	Lcd_Write@Dt_Str+1
   774  01BA  3001               	movlw	1
   775  01BB  120A  158A  251D  120A  118A  	fcall	_Lcd_Write
   776  01C0                     l1896:
   777                           
   778                           ;/home/user/Escritorio/testVref_887/sources_orig/testVref.c: 100:     Lcd_Write(2,1,"Vol
      +                          t  : ");
   779  01C0  01F9               	clrf	Lcd_Write@col
   780  01C1  0AF9               	incf	Lcd_Write@col,f
   781  01C2  3001               	movlw	(low ((STR_2-__stringbase)| (0+32768)))& (0+255)
   782  01C3  00FA               	movwf	Lcd_Write@Dt_Str
   783  01C4  3080               	movlw	128
   784  01C5  00FB               	movwf	Lcd_Write@Dt_Str+1
   785  01C6  3002               	movlw	2
   786  01C7  120A  158A  251D  120A  118A  	fcall	_Lcd_Write
   787  01CC                     l1898:
   788                           
   789                           ;/home/user/Escritorio/testVref_887/sources_orig/testVref.c: 104:         _delay((unsign
      +                          ed long)((1)*(20000000UL/4000.0)));
   790  01CC  3007               	movlw	7
   791  01CD  1283               	bcf	3,5	;RP0=0, select bank0
   792  01CE  1303               	bcf	3,6	;RP1=0, select bank0
   793  01CF  00D4               	movwf	??_main+1
   794  01D0  307C               	movlw	124
   795  01D1  00D3               	movwf	??_main
   796  01D2                     u2557:
   797  01D2  0BD3               	decfsz	??_main,f
   798  01D3  29D2               	goto	u2557
   799  01D4  0BD4               	decfsz	??_main+1,f
   800  01D5  29D2               	goto	u2557
   801  01D6  0000               	nop
   802  01D7                     l1900:
   803                           
   804                           ;/home/user/Escritorio/testVref_887/sources_orig/testVref.c: 105:         ADCON0bits.GO 
      +                          = 1;
   805  01D7  1283               	bcf	3,5	;RP0=0, select bank0
   806  01D8  1303               	bcf	3,6	;RP1=0, select bank0
   807  01D9  149F               	bsf	31,1	;volatile
   808  01DA                     l104:	
   809                           ;/home/user/Escritorio/testVref_887/sources_orig/testVref.c: 106:         while(ADCON0bi
      +                          ts.GO_DONE);
   810                           
   811  01DA  189F               	btfsc	31,1	;volatile
   812  01DB  29DD               	goto	u2541
   813  01DC  29DE               	goto	u2540
   814  01DD                     u2541:
   815  01DD  29DA               	goto	l104
   816  01DE                     u2540:
   817  01DE                     l1902:
   818                           
   819                           ;/home/user/Escritorio/testVref_887/sources_orig/testVref.c: 107:         num_adc = (uns
      +                          igned int)((ADRESH << 8 ) | (ADRESL));
   820  01DE  081E               	movf	30,w	;volatile
   821  01DF  00E3               	movwf	main@num_adc+1
   822  01E0  1683               	bsf	3,5	;RP0=1, select bank1
   823  01E1  1303               	bcf	3,6	;RP1=0, select bank1
   824  01E2  081E               	movf	30,w	;volatile
   825  01E3  1283               	bcf	3,5	;RP0=0, select bank0
   826  01E4  1303               	bcf	3,6	;RP1=0, select bank0
   827  01E5  00E2               	movwf	main@num_adc
   828  01E6                     l1904:
   829                           
   830                           ;/home/user/Escritorio/testVref_887/sources_orig/testVref.c: 108:         tensao = (floa
      +                          t)(num_adc * 0.004887585533);
   831  01E6  303B               	movlw	59
   832  01E7  00A3               	movwf	___flmul@b+3
   833  01E8  30A0               	movlw	160
   834  01E9  00A2               	movwf	___flmul@b+2
   835  01EA  3028               	movlw	40
   836  01EB  00A1               	movwf	___flmul@b+1
   837  01EC  300A               	movlw	10
   838  01ED  00A0               	movwf	___flmul@b
   839  01EE  0862               	movf	main@num_adc,w
   840  01EF  00F0               	movwf	___xxtofl@val
   841  01F0  0863               	movf	main@num_adc+1,w
   842  01F1  00F1               	movwf	___xxtofl@val+1
   843  01F2  01F2               	clrf	___xxtofl@val+2
   844  01F3  01F3               	clrf	___xxtofl@val+3
   845  01F4  3000               	movlw	0
   846  01F5  120A  158A  2746  120A  118A  	fcall	___xxtofl
   847  01FA  0873               	movf	?___xxtofl+3,w
   848  01FB  1283               	bcf	3,5	;RP0=0, select bank0
   849  01FC  1303               	bcf	3,6	;RP1=0, select bank0
   850  01FD  00A7               	movwf	___flmul@a+3
   851  01FE  0872               	movf	?___xxtofl+2,w
   852  01FF  00A6               	movwf	___flmul@a+2
   853  0200  0871               	movf	?___xxtofl+1,w
   854  0201  00A5               	movwf	___flmul@a+1
   855  0202  0870               	movf	?___xxtofl,w
   856  0203  00A4               	movwf	___flmul@a
   857  0204  120A  118A  2476  120A  118A  	fcall	___flmul
   858  0209  1283               	bcf	3,5	;RP0=0, select bank0
   859  020A  1303               	bcf	3,6	;RP1=0, select bank0
   860  020B  0823               	movf	?___flmul+3,w
   861  020C  00D9               	movwf	main@tensao+3
   862  020D  0822               	movf	?___flmul+2,w
   863  020E  00D8               	movwf	main@tensao+2
   864  020F  0821               	movf	?___flmul+1,w
   865  0210  00D7               	movwf	main@tensao+1
   866  0211  0820               	movf	?___flmul,w
   867  0212  00D6               	movwf	main@tensao
   868  0213                     l1906:
   869                           
   870                           ;/home/user/Escritorio/testVref_887/sources_orig/testVref.c: 109:         ItoStr((unsign
      +                          ed int)(num_adc),4,texto,0,0);
   871  0213  0863               	movf	main@num_adc+1,w
   872  0214  00C6               	movwf	ItoStr@valor+1
   873  0215  0862               	movf	main@num_adc,w
   874  0216  00C5               	movwf	ItoStr@valor
   875  0217  3004               	movlw	4
   876  0218  00D3               	movwf	??_main
   877  0219  0853               	movf	??_main,w
   878  021A  00C7               	movwf	ItoStr@tam
   879  021B  305A               	movlw	(low (main@texto| 0))& (0+255)
   880  021C  00D4               	movwf	??_main+1
   881  021D  0854               	movf	??_main+1,w
   882  021E  00C8               	movwf	ItoStr@str
   883  021F  01C9               	clrf	ItoStr@volt
   884  0220  01CA               	clrf	ItoStr@dot
   885  0221  120A  118A  208F  120A  118A  	fcall	_ItoStr
   886  0226                     l1908:
   887                           
   888                           ;/home/user/Escritorio/testVref_887/sources_orig/testVref.c: 110:         Lcd_Write(1,11
      +                          , texto);
   889  0226  300B               	movlw	11
   890  0227  1283               	bcf	3,5	;RP0=0, select bank0
   891  0228  1303               	bcf	3,6	;RP1=0, select bank0
   892  0229  00D3               	movwf	??_main
   893  022A  0853               	movf	??_main,w
   894  022B  00F9               	movwf	Lcd_Write@col
   895  022C  305A               	movlw	(low (main@texto| 0))& (0+255)
   896  022D  00FA               	movwf	Lcd_Write@Dt_Str
   897  022E  3000               	movlw	0
   898  022F  00FB               	movwf	Lcd_Write@Dt_Str+1
   899  0230  3001               	movlw	1
   900  0231  120A  158A  251D  120A  118A  	fcall	_Lcd_Write
   901  0236                     l1910:
   902                           
   903                           ;/home/user/Escritorio/testVref_887/sources_orig/testVref.c: 111:         ItoStr((unsign
      +                          ed int)(tensao * 10000),6,texto,1,1);
   904  0236  1283               	bcf	3,5	;RP0=0, select bank0
   905  0237  1303               	bcf	3,6	;RP1=0, select bank0
   906  0238  0859               	movf	main@tensao+3,w
   907  0239  00A7               	movwf	___flmul@a+3
   908  023A  0858               	movf	main@tensao+2,w
   909  023B  00A6               	movwf	___flmul@a+2
   910  023C  0857               	movf	main@tensao+1,w
   911  023D  00A5               	movwf	___flmul@a+1
   912  023E  0856               	movf	main@tensao,w
   913  023F  00A4               	movwf	___flmul@a
   914  0240  3046               	movlw	70
   915  0241  00A3               	movwf	___flmul@b+3
   916  0242  301C               	movlw	28
   917  0243  00A2               	movwf	___flmul@b+2
   918  0244  3040               	movlw	64
   919  0245  00A1               	movwf	___flmul@b+1
   920  0246  3000               	movlw	0
   921  0247  00A0               	movwf	___flmul@b
   922  0248  120A  118A  2476  120A  118A  	fcall	___flmul
   923  024D  1283               	bcf	3,5	;RP0=0, select bank0
   924  024E  1303               	bcf	3,6	;RP1=0, select bank0
   925  024F  0823               	movf	?___flmul+3,w
   926  0250  00BD               	movwf	___fltol@f1+3
   927  0251  0822               	movf	?___flmul+2,w
   928  0252  00BC               	movwf	___fltol@f1+2
   929  0253  0821               	movf	?___flmul+1,w
   930  0254  00BB               	movwf	___fltol@f1+1
   931  0255  0820               	movf	?___flmul,w
   932  0256  00BA               	movwf	___fltol@f1
   933  0257  120A  118A  2013  120A  118A  	fcall	___fltol
   934  025C  1283               	bcf	3,5	;RP0=0, select bank0
   935  025D  1303               	bcf	3,6	;RP1=0, select bank0
   936  025E  083B               	movf	?___fltol+1,w
   937  025F  00E1               	movwf	_main$821+1
   938  0260  083A               	movf	?___fltol,w
   939  0261  00E0               	movwf	_main$821
   940  0262                     l1912:
   941                           
   942                           ;/home/user/Escritorio/testVref_887/sources_orig/testVref.c: 111:         ItoStr((unsign
      +                          ed int)(tensao * 10000),6,texto,1,1);
   943  0262  0861               	movf	_main$821+1,w
   944  0263  00C6               	movwf	ItoStr@valor+1
   945  0264  0860               	movf	_main$821,w
   946  0265  00C5               	movwf	ItoStr@valor
   947  0266  3006               	movlw	6
   948  0267  00D3               	movwf	??_main
   949  0268  0853               	movf	??_main,w
   950  0269  00C7               	movwf	ItoStr@tam
   951  026A  305A               	movlw	(low (main@texto| 0))& (0+255)
   952  026B  00D4               	movwf	??_main+1
   953  026C  0854               	movf	??_main+1,w
   954  026D  00C8               	movwf	ItoStr@str
   955  026E  01C9               	clrf	ItoStr@volt
   956  026F  0AC9               	incf	ItoStr@volt,f
   957  0270  01CA               	clrf	ItoStr@dot
   958  0271  0ACA               	incf	ItoStr@dot,f
   959  0272  120A  118A  208F  120A  118A  	fcall	_ItoStr
   960  0277                     l1914:
   961                           
   962                           ;/home/user/Escritorio/testVref_887/sources_orig/testVref.c: 112:         Lcd_Write(2, 9
      +                          , texto);
   963  0277  3009               	movlw	9
   964  0278  1283               	bcf	3,5	;RP0=0, select bank0
   965  0279  1303               	bcf	3,6	;RP1=0, select bank0
   966  027A  00D3               	movwf	??_main
   967  027B  0853               	movf	??_main,w
   968  027C  00F9               	movwf	Lcd_Write@col
   969  027D  305A               	movlw	(low (main@texto| 0))& (0+255)
   970  027E  00FA               	movwf	Lcd_Write@Dt_Str
   971  027F  3000               	movlw	0
   972  0280  00FB               	movwf	Lcd_Write@Dt_Str+1
   973  0281  3002               	movlw	2
   974  0282  120A  158A  251D  120A  118A  	fcall	_Lcd_Write
   975                           
   976                           ;/home/user/Escritorio/testVref_887/sources_orig/testVref.c: 113:         _delay((unsign
      +                          ed long)((100)*(20000000UL/4000.0)));
   977  0287  3003               	movlw	3
   978  0288  1283               	bcf	3,5	;RP0=0, select bank0
   979  0289  1303               	bcf	3,6	;RP1=0, select bank0
   980  028A  00D5               	movwf	??_main+2
   981  028B  308A               	movlw	138
   982  028C  00D4               	movwf	??_main+1
   983  028D  3055               	movlw	85
   984  028E  00D3               	movwf	??_main
   985  028F                     u2567:
   986  028F  0BD3               	decfsz	??_main,f
   987  0290  2A8F               	goto	u2567
   988  0291  0BD4               	decfsz	??_main+1,f
   989  0292  2A8F               	goto	u2567
   990  0293  0BD5               	decfsz	??_main+2,f
   991  0294  2A8F               	goto	u2567
   992  0295  29CC               	goto	l1898
   993  0296  120A  118A  2800   	ljmp	start
   994  0299                     __end_of_main:
   995                           
   996                           	psect	text1
   997  0476                     __ptext1:	
   998 ;; *************** function ___flmul *****************
   999 ;; Defined at:
  1000 ;;		line 8 in file "/opt/microchip/xc8/v2.32/pic/sources/c90/common/sprcmul.c"
  1001 ;; Parameters:    Size  Location     Type
  1002 ;;  b               4    0[BANK0 ] void 
  1003 ;;  a               4    4[BANK0 ] void 
  1004 ;; Auto vars:     Size  Location     Type
  1005 ;;  prod            4   20[BANK0 ] struct .
  1006 ;;  grs             4   14[BANK0 ] unsigned long 
  1007 ;;  temp            2   24[BANK0 ] struct .
  1008 ;;  bexp            1   19[BANK0 ] unsigned char 
  1009 ;;  aexp            1   18[BANK0 ] unsigned char 
  1010 ;;  sign            1   13[BANK0 ] unsigned char 
  1011 ;; Return value:  Size  Location     Type
  1012 ;;                  4    0[BANK0 ] unsigned char 
  1013 ;; Registers used:
  1014 ;;		wreg, status,2, status,0, btemp+1, pclath, cstack
  1015 ;; Tracked objects:
  1016 ;;		On entry : 0/0
  1017 ;;		On exit  : 0/0
  1018 ;;		Unchanged: 0/0
  1019 ;; Data sizes:     COMMON   BANK0   BANK1   BANK3   BANK2
  1020 ;;      Params:         0       8       0       0       0
  1021 ;;      Locals:         0      13       0       0       0
  1022 ;;      Temps:          0       5       0       0       0
  1023 ;;      Totals:         0      26       0       0       0
  1024 ;;Total ram usage:       26 bytes
  1025 ;; Hardware stack levels used: 1
  1026 ;; Hardware stack levels required when called: 1
  1027 ;; This function calls:
  1028 ;;		__Umul8_16
  1029 ;; This function is called by:
  1030 ;;		_main
  1031 ;; This function uses a non-reentrant model
  1032 ;;
  1033                           
  1034                           
  1035                           ;psect for function ___flmul
  1036  0476                     ___flmul:
  1037  0476                     l1708:	
  1038                           ;incstack = 0
  1039                           ; Regs used in ___flmul: [wreg+status,2+status,0+btemp+1+pclath+cstack]
  1040                           
  1041  0476  1283               	bcf	3,5	;RP0=0, select bank0
  1042  0477  1303               	bcf	3,6	;RP1=0, select bank0
  1043  0478  0823               	movf	___flmul@b+3,w
  1044  0479  3980               	andlw	128
  1045  047A  00A8               	movwf	??___flmul
  1046  047B  0828               	movf	??___flmul,w
  1047  047C  00AD               	movwf	___flmul@sign
  1048  047D                     l1710:
  1049  047D  0823               	movf	___flmul@b+3,w
  1050  047E  00A8               	movwf	??___flmul
  1051  047F  0728               	addwf	??___flmul,w
  1052  0480  00A9               	movwf	??___flmul+1
  1053  0481  0829               	movf	??___flmul+1,w
  1054  0482  00B3               	movwf	___flmul@bexp
  1055  0483                     l1712:
  1056  0483  1FA2               	btfss	___flmul@b+2,7
  1057  0484  2C86               	goto	u2151
  1058  0485  2C87               	goto	u2150
  1059  0486                     u2151:
  1060  0486  2C88               	goto	l1716
  1061  0487                     u2150:
  1062  0487                     l1714:
  1063  0487  1433               	bsf	___flmul@bexp,0
  1064  0488                     l1716:
  1065  0488  0833               	movf	___flmul@bexp,w
  1066  0489  1903               	btfsc	3,2
  1067  048A  2C8C               	goto	u2161
  1068  048B  2C8D               	goto	u2160
  1069  048C                     u2161:
  1070  048C  2C9C               	goto	l1724
  1071  048D                     u2160:
  1072  048D                     l1718:
  1073  048D  0A33               	incf	___flmul@bexp,w
  1074  048E  1D03               	btfss	3,2
  1075  048F  2C91               	goto	u2171
  1076  0490  2C92               	goto	u2170
  1077  0491                     u2171:
  1078  0491  2C9A               	goto	l1722
  1079  0492                     u2170:
  1080  0492                     l1720:
  1081  0492  3000               	movlw	0
  1082  0493  00A3               	movwf	___flmul@b+3
  1083  0494  3000               	movlw	0
  1084  0495  00A2               	movwf	___flmul@b+2
  1085  0496  3000               	movlw	0
  1086  0497  00A1               	movwf	___flmul@b+1
  1087  0498  3000               	movlw	0
  1088  0499  00A0               	movwf	___flmul@b
  1089  049A                     l1722:
  1090  049A  17A2               	bsf	___flmul@b+2,7
  1091  049B  2CA4               	goto	l1726
  1092  049C                     l1724:
  1093  049C  3000               	movlw	0
  1094  049D  00A3               	movwf	___flmul@b+3
  1095  049E  3000               	movlw	0
  1096  049F  00A2               	movwf	___flmul@b+2
  1097  04A0  3000               	movlw	0
  1098  04A1  00A1               	movwf	___flmul@b+1
  1099  04A2  3000               	movlw	0
  1100  04A3  00A0               	movwf	___flmul@b
  1101  04A4                     l1726:
  1102  04A4  0827               	movf	___flmul@a+3,w
  1103  04A5  3980               	andlw	128
  1104  04A6  00A8               	movwf	??___flmul
  1105  04A7  0828               	movf	??___flmul,w
  1106  04A8  06AD               	xorwf	___flmul@sign,f
  1107  04A9                     l1728:
  1108  04A9  0827               	movf	___flmul@a+3,w
  1109  04AA  00A8               	movwf	??___flmul
  1110  04AB  0728               	addwf	??___flmul,w
  1111  04AC  00A9               	movwf	??___flmul+1
  1112  04AD  0829               	movf	??___flmul+1,w
  1113  04AE  00B2               	movwf	___flmul@aexp
  1114  04AF                     l1730:
  1115  04AF  1FA6               	btfss	___flmul@a+2,7
  1116  04B0  2CB2               	goto	u2181
  1117  04B1  2CB3               	goto	u2180
  1118  04B2                     u2181:
  1119  04B2  2CB4               	goto	l1734
  1120  04B3                     u2180:
  1121  04B3                     l1732:
  1122  04B3  1432               	bsf	___flmul@aexp,0
  1123  04B4                     l1734:
  1124  04B4  0832               	movf	___flmul@aexp,w
  1125  04B5  1903               	btfsc	3,2
  1126  04B6  2CB8               	goto	u2191
  1127  04B7  2CB9               	goto	u2190
  1128  04B8                     u2191:
  1129  04B8  2CC8               	goto	l1742
  1130  04B9                     u2190:
  1131  04B9                     l1736:
  1132  04B9  0A32               	incf	___flmul@aexp,w
  1133  04BA  1D03               	btfss	3,2
  1134  04BB  2CBD               	goto	u2201
  1135  04BC  2CBE               	goto	u2200
  1136  04BD                     u2201:
  1137  04BD  2CC6               	goto	l1740
  1138  04BE                     u2200:
  1139  04BE                     l1738:
  1140  04BE  3000               	movlw	0
  1141  04BF  00A7               	movwf	___flmul@a+3
  1142  04C0  3000               	movlw	0
  1143  04C1  00A6               	movwf	___flmul@a+2
  1144  04C2  3000               	movlw	0
  1145  04C3  00A5               	movwf	___flmul@a+1
  1146  04C4  3000               	movlw	0
  1147  04C5  00A4               	movwf	___flmul@a
  1148  04C6                     l1740:
  1149  04C6  17A6               	bsf	___flmul@a+2,7
  1150  04C7  2CD0               	goto	l1744
  1151  04C8                     l1742:
  1152  04C8  3000               	movlw	0
  1153  04C9  00A7               	movwf	___flmul@a+3
  1154  04CA  3000               	movlw	0
  1155  04CB  00A6               	movwf	___flmul@a+2
  1156  04CC  3000               	movlw	0
  1157  04CD  00A5               	movwf	___flmul@a+1
  1158  04CE  3000               	movlw	0
  1159  04CF  00A4               	movwf	___flmul@a
  1160  04D0                     l1744:
  1161  04D0  0832               	movf	___flmul@aexp,w
  1162  04D1  1903               	btfsc	3,2
  1163  04D2  2CD4               	goto	u2211
  1164  04D3  2CD5               	goto	u2210
  1165  04D4                     u2211:
  1166  04D4  2CDA               	goto	l1748
  1167  04D5                     u2210:
  1168  04D5                     l1746:
  1169  04D5  0833               	movf	___flmul@bexp,w
  1170  04D6  1D03               	btfss	3,2
  1171  04D7  2CD9               	goto	u2221
  1172  04D8  2CDA               	goto	u2220
  1173  04D9                     u2221:
  1174  04D9  2CE3               	goto	l1752
  1175  04DA                     u2220:
  1176  04DA                     l1748:
  1177  04DA  3000               	movlw	0
  1178  04DB  00A3               	movwf	?___flmul+3
  1179  04DC  3000               	movlw	0
  1180  04DD  00A2               	movwf	?___flmul+2
  1181  04DE  3000               	movlw	0
  1182  04DF  00A1               	movwf	?___flmul+1
  1183  04E0  3000               	movlw	0
  1184  04E1  00A0               	movwf	?___flmul
  1185  04E2  2FD6               	goto	l595
  1186  04E3                     l1752:
  1187  04E3  0820               	movf	___flmul@b,w
  1188  04E4  00A8               	movwf	??___flmul
  1189  04E5  0828               	movf	??___flmul,w
  1190  04E6  00F0               	movwf	__Umul8_16@multiplicand
  1191  04E7  0826               	movf	___flmul@a+2,w
  1192  04E8  120A  158A  2532  120A  118A  	fcall	__Umul8_16
  1193  04ED  0871               	movf	?__Umul8_16+1,w
  1194  04EE  1283               	bcf	3,5	;RP0=0, select bank0
  1195  04EF  1303               	bcf	3,6	;RP1=0, select bank0
  1196  04F0  00B9               	movwf	___flmul@temp+1
  1197  04F1  0870               	movf	?__Umul8_16,w
  1198  04F2  00B8               	movwf	___flmul@temp
  1199  04F3                     l1754:
  1200  04F3  0838               	movf	___flmul@temp,w
  1201  04F4  00A8               	movwf	??___flmul
  1202  04F5  01A9               	clrf	??___flmul+1
  1203  04F6  01AA               	clrf	??___flmul+2
  1204  04F7  01AB               	clrf	??___flmul+3
  1205  04F8  082B               	movf	??___flmul+3,w
  1206  04F9  00B1               	movwf	___flmul@grs+3
  1207  04FA  082A               	movf	??___flmul+2,w
  1208  04FB  00B0               	movwf	___flmul@grs+2
  1209  04FC  0829               	movf	??___flmul+1,w
  1210  04FD  00AF               	movwf	___flmul@grs+1
  1211  04FE  0828               	movf	??___flmul,w
  1212  04FF  00AE               	movwf	___flmul@grs
  1213  0500                     l1756:
  1214  0500  0839               	movf	___flmul@temp+1,w
  1215  0501  00A8               	movwf	??___flmul
  1216  0502  01A9               	clrf	??___flmul+1
  1217  0503  01AA               	clrf	??___flmul+2
  1218  0504  01AB               	clrf	??___flmul+3
  1219  0505  082B               	movf	??___flmul+3,w
  1220  0506  00B7               	movwf	___flmul@prod+3
  1221  0507  082A               	movf	??___flmul+2,w
  1222  0508  00B6               	movwf	___flmul@prod+2
  1223  0509  0829               	movf	??___flmul+1,w
  1224  050A  00B5               	movwf	___flmul@prod+1
  1225  050B  0828               	movf	??___flmul,w
  1226  050C  00B4               	movwf	___flmul@prod
  1227  050D  0821               	movf	___flmul@b+1,w
  1228  050E  00A8               	movwf	??___flmul
  1229  050F  0828               	movf	??___flmul,w
  1230  0510  00F0               	movwf	__Umul8_16@multiplicand
  1231  0511  0825               	movf	___flmul@a+1,w
  1232  0512  120A  158A  2532  120A  118A  	fcall	__Umul8_16
  1233  0517  0871               	movf	?__Umul8_16+1,w
  1234  0518  1283               	bcf	3,5	;RP0=0, select bank0
  1235  0519  1303               	bcf	3,6	;RP1=0, select bank0
  1236  051A  00B9               	movwf	___flmul@temp+1
  1237  051B  0870               	movf	?__Umul8_16,w
  1238  051C  00B8               	movwf	___flmul@temp
  1239  051D                     l1758:
  1240  051D  0838               	movf	___flmul@temp,w
  1241  051E  00A8               	movwf	??___flmul
  1242  051F  01A9               	clrf	??___flmul+1
  1243  0520  01AA               	clrf	??___flmul+2
  1244  0521  01AB               	clrf	??___flmul+3
  1245  0522  0828               	movf	??___flmul,w
  1246  0523  07AE               	addwf	___flmul@grs,f
  1247  0524  0829               	movf	??___flmul+1,w
  1248  0525  1103               	clrz
  1249  0526  1803               	skipnc
  1250  0527  3E01               	addlw	1
  1251  0528  1903               	skipnz
  1252  0529  2D2B               	goto	u2231
  1253  052A  07AF               	addwf	___flmul@grs+1,f
  1254  052B                     u2231:
  1255  052B  082A               	movf	??___flmul+2,w
  1256  052C  1103               	clrz
  1257  052D  1803               	skipnc
  1258  052E  3E01               	addlw	1
  1259  052F  1903               	skipnz
  1260  0530  2D32               	goto	u2232
  1261  0531  07B0               	addwf	___flmul@grs+2,f
  1262  0532                     u2232:
  1263  0532  082B               	movf	??___flmul+3,w
  1264  0533  1103               	clrz
  1265  0534  1803               	skipnc
  1266  0535  3E01               	addlw	1
  1267  0536  1903               	skipnz
  1268  0537  2D39               	goto	u2233
  1269  0538  07B1               	addwf	___flmul@grs+3,f
  1270  0539                     u2233:
  1271  0539                     l1760:
  1272  0539  0839               	movf	___flmul@temp+1,w
  1273  053A  00A8               	movwf	??___flmul
  1274  053B  01A9               	clrf	??___flmul+1
  1275  053C  01AA               	clrf	??___flmul+2
  1276  053D  01AB               	clrf	??___flmul+3
  1277  053E  0828               	movf	??___flmul,w
  1278  053F  07B4               	addwf	___flmul@prod,f
  1279  0540  0829               	movf	??___flmul+1,w
  1280  0541  1103               	clrz
  1281  0542  1803               	skipnc
  1282  0543  3E01               	addlw	1
  1283  0544  1903               	skipnz
  1284  0545  2D47               	goto	u2241
  1285  0546  07B5               	addwf	___flmul@prod+1,f
  1286  0547                     u2241:
  1287  0547  082A               	movf	??___flmul+2,w
  1288  0548  1103               	clrz
  1289  0549  1803               	skipnc
  1290  054A  3E01               	addlw	1
  1291  054B  1903               	skipnz
  1292  054C  2D4E               	goto	u2242
  1293  054D  07B6               	addwf	___flmul@prod+2,f
  1294  054E                     u2242:
  1295  054E  082B               	movf	??___flmul+3,w
  1296  054F  1103               	clrz
  1297  0550  1803               	skipnc
  1298  0551  3E01               	addlw	1
  1299  0552  1903               	skipnz
  1300  0553  2D55               	goto	u2243
  1301  0554  07B7               	addwf	___flmul@prod+3,f
  1302  0555                     u2243:
  1303  0555  0822               	movf	___flmul@b+2,w
  1304  0556  00A8               	movwf	??___flmul
  1305  0557  0828               	movf	??___flmul,w
  1306  0558  00F0               	movwf	__Umul8_16@multiplicand
  1307  0559  0824               	movf	___flmul@a,w
  1308  055A  120A  158A  2532  120A  118A  	fcall	__Umul8_16
  1309  055F  0871               	movf	?__Umul8_16+1,w
  1310  0560  1283               	bcf	3,5	;RP0=0, select bank0
  1311  0561  1303               	bcf	3,6	;RP1=0, select bank0
  1312  0562  00B9               	movwf	___flmul@temp+1
  1313  0563  0870               	movf	?__Umul8_16,w
  1314  0564  00B8               	movwf	___flmul@temp
  1315  0565                     l1762:
  1316  0565  0838               	movf	___flmul@temp,w
  1317  0566  00A8               	movwf	??___flmul
  1318  0567  01A9               	clrf	??___flmul+1
  1319  0568  01AA               	clrf	??___flmul+2
  1320  0569  01AB               	clrf	??___flmul+3
  1321  056A  0828               	movf	??___flmul,w
  1322  056B  07AE               	addwf	___flmul@grs,f
  1323  056C  0829               	movf	??___flmul+1,w
  1324  056D  1103               	clrz
  1325  056E  1803               	skipnc
  1326  056F  3E01               	addlw	1
  1327  0570  1903               	skipnz
  1328  0571  2D73               	goto	u2251
  1329  0572  07AF               	addwf	___flmul@grs+1,f
  1330  0573                     u2251:
  1331  0573  082A               	movf	??___flmul+2,w
  1332  0574  1103               	clrz
  1333  0575  1803               	skipnc
  1334  0576  3E01               	addlw	1
  1335  0577  1903               	skipnz
  1336  0578  2D7A               	goto	u2252
  1337  0579  07B0               	addwf	___flmul@grs+2,f
  1338  057A                     u2252:
  1339  057A  082B               	movf	??___flmul+3,w
  1340  057B  1103               	clrz
  1341  057C  1803               	skipnc
  1342  057D  3E01               	addlw	1
  1343  057E  1903               	skipnz
  1344  057F  2D81               	goto	u2253
  1345  0580  07B1               	addwf	___flmul@grs+3,f
  1346  0581                     u2253:
  1347  0581                     l1764:
  1348  0581  0839               	movf	___flmul@temp+1,w
  1349  0582  00A8               	movwf	??___flmul
  1350  0583  01A9               	clrf	??___flmul+1
  1351  0584  01AA               	clrf	??___flmul+2
  1352  0585  01AB               	clrf	??___flmul+3
  1353  0586  0828               	movf	??___flmul,w
  1354  0587  07B4               	addwf	___flmul@prod,f
  1355  0588  0829               	movf	??___flmul+1,w
  1356  0589  1103               	clrz
  1357  058A  1803               	skipnc
  1358  058B  3E01               	addlw	1
  1359  058C  1903               	skipnz
  1360  058D  2D8F               	goto	u2261
  1361  058E  07B5               	addwf	___flmul@prod+1,f
  1362  058F                     u2261:
  1363  058F  082A               	movf	??___flmul+2,w
  1364  0590  1103               	clrz
  1365  0591  1803               	skipnc
  1366  0592  3E01               	addlw	1
  1367  0593  1903               	skipnz
  1368  0594  2D96               	goto	u2262
  1369  0595  07B6               	addwf	___flmul@prod+2,f
  1370  0596                     u2262:
  1371  0596  082B               	movf	??___flmul+3,w
  1372  0597  1103               	clrz
  1373  0598  1803               	skipnc
  1374  0599  3E01               	addlw	1
  1375  059A  1903               	skipnz
  1376  059B  2D9D               	goto	u2263
  1377  059C  07B7               	addwf	___flmul@prod+3,f
  1378  059D                     u2263:
  1379  059D                     l1766:
  1380  059D  3008               	movlw	8
  1381  059E  00A8               	movwf	??___flmul
  1382  059F                     u2275:
  1383  059F  1003               	clrc
  1384  05A0  0DAE               	rlf	___flmul@grs,f
  1385  05A1  0DAF               	rlf	___flmul@grs+1,f
  1386  05A2  0DB0               	rlf	___flmul@grs+2,f
  1387  05A3  0DB1               	rlf	___flmul@grs+3,f
  1388  05A4  0BA8               	decfsz	??___flmul,f
  1389  05A5  2D9F               	goto	u2275
  1390  05A6                     l1768:
  1391  05A6  0821               	movf	___flmul@b+1,w
  1392  05A7  00A8               	movwf	??___flmul
  1393  05A8  0828               	movf	??___flmul,w
  1394  05A9  00F0               	movwf	__Umul8_16@multiplicand
  1395  05AA  0824               	movf	___flmul@a,w
  1396  05AB  120A  158A  2532  120A  118A  	fcall	__Umul8_16
  1397  05B0  0871               	movf	?__Umul8_16+1,w
  1398  05B1  1283               	bcf	3,5	;RP0=0, select bank0
  1399  05B2  1303               	bcf	3,6	;RP1=0, select bank0
  1400  05B3  00B9               	movwf	___flmul@temp+1
  1401  05B4  0870               	movf	?__Umul8_16,w
  1402  05B5  00B8               	movwf	___flmul@temp
  1403  05B6                     l1770:
  1404  05B6  0838               	movf	___flmul@temp,w
  1405  05B7  00A8               	movwf	??___flmul
  1406  05B8  0839               	movf	___flmul@temp+1,w
  1407  05B9  00A9               	movwf	??___flmul+1
  1408  05BA  01AA               	clrf	??___flmul+2
  1409  05BB  01AB               	clrf	??___flmul+3
  1410  05BC  0828               	movf	??___flmul,w
  1411  05BD  07AE               	addwf	___flmul@grs,f
  1412  05BE  0829               	movf	??___flmul+1,w
  1413  05BF  1103               	clrz
  1414  05C0  1803               	skipnc
  1415  05C1  3E01               	addlw	1
  1416  05C2  1903               	skipnz
  1417  05C3  2DC5               	goto	u2281
  1418  05C4  07AF               	addwf	___flmul@grs+1,f
  1419  05C5                     u2281:
  1420  05C5  082A               	movf	??___flmul+2,w
  1421  05C6  1103               	clrz
  1422  05C7  1803               	skipnc
  1423  05C8  3E01               	addlw	1
  1424  05C9  1903               	skipnz
  1425  05CA  2DCC               	goto	u2282
  1426  05CB  07B0               	addwf	___flmul@grs+2,f
  1427  05CC                     u2282:
  1428  05CC  082B               	movf	??___flmul+3,w
  1429  05CD  1103               	clrz
  1430  05CE  1803               	skipnc
  1431  05CF  3E01               	addlw	1
  1432  05D0  1903               	skipnz
  1433  05D1  2DD3               	goto	u2283
  1434  05D2  07B1               	addwf	___flmul@grs+3,f
  1435  05D3                     u2283:
  1436  05D3                     l1772:
  1437  05D3  0820               	movf	___flmul@b,w
  1438  05D4  00A8               	movwf	??___flmul
  1439  05D5  0828               	movf	??___flmul,w
  1440  05D6  00F0               	movwf	__Umul8_16@multiplicand
  1441  05D7  0825               	movf	___flmul@a+1,w
  1442  05D8  120A  158A  2532  120A  118A  	fcall	__Umul8_16
  1443  05DD  0871               	movf	?__Umul8_16+1,w
  1444  05DE  1283               	bcf	3,5	;RP0=0, select bank0
  1445  05DF  1303               	bcf	3,6	;RP1=0, select bank0
  1446  05E0  00B9               	movwf	___flmul@temp+1
  1447  05E1  0870               	movf	?__Umul8_16,w
  1448  05E2  00B8               	movwf	___flmul@temp
  1449  05E3                     l1774:
  1450  05E3  0838               	movf	___flmul@temp,w
  1451  05E4  00A8               	movwf	??___flmul
  1452  05E5  0839               	movf	___flmul@temp+1,w
  1453  05E6  00A9               	movwf	??___flmul+1
  1454  05E7  01AA               	clrf	??___flmul+2
  1455  05E8  01AB               	clrf	??___flmul+3
  1456  05E9  0828               	movf	??___flmul,w
  1457  05EA  07AE               	addwf	___flmul@grs,f
  1458  05EB  0829               	movf	??___flmul+1,w
  1459  05EC  1103               	clrz
  1460  05ED  1803               	skipnc
  1461  05EE  3E01               	addlw	1
  1462  05EF  1903               	skipnz
  1463  05F0  2DF2               	goto	u2291
  1464  05F1  07AF               	addwf	___flmul@grs+1,f
  1465  05F2                     u2291:
  1466  05F2  082A               	movf	??___flmul+2,w
  1467  05F3  1103               	clrz
  1468  05F4  1803               	skipnc
  1469  05F5  3E01               	addlw	1
  1470  05F6  1903               	skipnz
  1471  05F7  2DF9               	goto	u2292
  1472  05F8  07B0               	addwf	___flmul@grs+2,f
  1473  05F9                     u2292:
  1474  05F9  082B               	movf	??___flmul+3,w
  1475  05FA  1103               	clrz
  1476  05FB  1803               	skipnc
  1477  05FC  3E01               	addlw	1
  1478  05FD  1903               	skipnz
  1479  05FE  2E00               	goto	u2293
  1480  05FF  07B1               	addwf	___flmul@grs+3,f
  1481  0600                     u2293:
  1482  0600                     l1776:
  1483  0600  3008               	movlw	8
  1484  0601  00A8               	movwf	??___flmul
  1485  0602                     u2305:
  1486  0602  1003               	clrc
  1487  0603  0DAE               	rlf	___flmul@grs,f
  1488  0604  0DAF               	rlf	___flmul@grs+1,f
  1489  0605  0DB0               	rlf	___flmul@grs+2,f
  1490  0606  0DB1               	rlf	___flmul@grs+3,f
  1491  0607  0BA8               	decfsz	??___flmul,f
  1492  0608  2E02               	goto	u2305
  1493  0609  0820               	movf	___flmul@b,w
  1494  060A  00A8               	movwf	??___flmul
  1495  060B  0828               	movf	??___flmul,w
  1496  060C  00F0               	movwf	__Umul8_16@multiplicand
  1497  060D  0824               	movf	___flmul@a,w
  1498  060E  120A  158A  2532  120A  118A  	fcall	__Umul8_16
  1499  0613  0871               	movf	?__Umul8_16+1,w
  1500  0614  1283               	bcf	3,5	;RP0=0, select bank0
  1501  0615  1303               	bcf	3,6	;RP1=0, select bank0
  1502  0616  00B9               	movwf	___flmul@temp+1
  1503  0617  0870               	movf	?__Umul8_16,w
  1504  0618  00B8               	movwf	___flmul@temp
  1505  0619                     l1778:
  1506  0619  0838               	movf	___flmul@temp,w
  1507  061A  00A8               	movwf	??___flmul
  1508  061B  0839               	movf	___flmul@temp+1,w
  1509  061C  00A9               	movwf	??___flmul+1
  1510  061D  01AA               	clrf	??___flmul+2
  1511  061E  01AB               	clrf	??___flmul+3
  1512  061F  0828               	movf	??___flmul,w
  1513  0620  07AE               	addwf	___flmul@grs,f
  1514  0621  0829               	movf	??___flmul+1,w
  1515  0622  1103               	clrz
  1516  0623  1803               	skipnc
  1517  0624  3E01               	addlw	1
  1518  0625  1903               	skipnz
  1519  0626  2E28               	goto	u2311
  1520  0627  07AF               	addwf	___flmul@grs+1,f
  1521  0628                     u2311:
  1522  0628  082A               	movf	??___flmul+2,w
  1523  0629  1103               	clrz
  1524  062A  1803               	skipnc
  1525  062B  3E01               	addlw	1
  1526  062C  1903               	skipnz
  1527  062D  2E2F               	goto	u2312
  1528  062E  07B0               	addwf	___flmul@grs+2,f
  1529  062F                     u2312:
  1530  062F  082B               	movf	??___flmul+3,w
  1531  0630  1103               	clrz
  1532  0631  1803               	skipnc
  1533  0632  3E01               	addlw	1
  1534  0633  1903               	skipnz
  1535  0634  2E36               	goto	u2313
  1536  0635  07B1               	addwf	___flmul@grs+3,f
  1537  0636                     u2313:
  1538  0636                     l1780:
  1539  0636  0821               	movf	___flmul@b+1,w
  1540  0637  00A8               	movwf	??___flmul
  1541  0638  0828               	movf	??___flmul,w
  1542  0639  00F0               	movwf	__Umul8_16@multiplicand
  1543  063A  0826               	movf	___flmul@a+2,w
  1544  063B  120A  158A  2532  120A  118A  	fcall	__Umul8_16
  1545  0640  0871               	movf	?__Umul8_16+1,w
  1546  0641  1283               	bcf	3,5	;RP0=0, select bank0
  1547  0642  1303               	bcf	3,6	;RP1=0, select bank0
  1548  0643  00B9               	movwf	___flmul@temp+1
  1549  0644  0870               	movf	?__Umul8_16,w
  1550  0645  00B8               	movwf	___flmul@temp
  1551  0646  0838               	movf	___flmul@temp,w
  1552  0647  00A8               	movwf	??___flmul
  1553  0648  0839               	movf	___flmul@temp+1,w
  1554  0649  00A9               	movwf	??___flmul+1
  1555  064A  01AA               	clrf	??___flmul+2
  1556  064B  01AB               	clrf	??___flmul+3
  1557  064C  0828               	movf	??___flmul,w
  1558  064D  07B4               	addwf	___flmul@prod,f
  1559  064E  0829               	movf	??___flmul+1,w
  1560  064F  1103               	clrz
  1561  0650  1803               	skipnc
  1562  0651  3E01               	addlw	1
  1563  0652  1903               	skipnz
  1564  0653  2E55               	goto	u2321
  1565  0654  07B5               	addwf	___flmul@prod+1,f
  1566  0655                     u2321:
  1567  0655  082A               	movf	??___flmul+2,w
  1568  0656  1103               	clrz
  1569  0657  1803               	skipnc
  1570  0658  3E01               	addlw	1
  1571  0659  1903               	skipnz
  1572  065A  2E5C               	goto	u2322
  1573  065B  07B6               	addwf	___flmul@prod+2,f
  1574  065C                     u2322:
  1575  065C  082B               	movf	??___flmul+3,w
  1576  065D  1103               	clrz
  1577  065E  1803               	skipnc
  1578  065F  3E01               	addlw	1
  1579  0660  1903               	skipnz
  1580  0661  2E63               	goto	u2323
  1581  0662  07B7               	addwf	___flmul@prod+3,f
  1582  0663                     u2323:
  1583  0663                     l1782:
  1584  0663  0822               	movf	___flmul@b+2,w
  1585  0664  00A8               	movwf	??___flmul
  1586  0665  0828               	movf	??___flmul,w
  1587  0666  00F0               	movwf	__Umul8_16@multiplicand
  1588  0667  0825               	movf	___flmul@a+1,w
  1589  0668  120A  158A  2532  120A  118A  	fcall	__Umul8_16
  1590  066D  0871               	movf	?__Umul8_16+1,w
  1591  066E  1283               	bcf	3,5	;RP0=0, select bank0
  1592  066F  1303               	bcf	3,6	;RP1=0, select bank0
  1593  0670  00B9               	movwf	___flmul@temp+1
  1594  0671  0870               	movf	?__Umul8_16,w
  1595  0672  00B8               	movwf	___flmul@temp
  1596  0673                     l1784:
  1597  0673  0838               	movf	___flmul@temp,w
  1598  0674  00A8               	movwf	??___flmul
  1599  0675  0839               	movf	___flmul@temp+1,w
  1600  0676  00A9               	movwf	??___flmul+1
  1601  0677  01AA               	clrf	??___flmul+2
  1602  0678  01AB               	clrf	??___flmul+3
  1603  0679  0828               	movf	??___flmul,w
  1604  067A  07B4               	addwf	___flmul@prod,f
  1605  067B  0829               	movf	??___flmul+1,w
  1606  067C  1103               	clrz
  1607  067D  1803               	skipnc
  1608  067E  3E01               	addlw	1
  1609  067F  1903               	skipnz
  1610  0680  2E82               	goto	u2331
  1611  0681  07B5               	addwf	___flmul@prod+1,f
  1612  0682                     u2331:
  1613  0682  082A               	movf	??___flmul+2,w
  1614  0683  1103               	clrz
  1615  0684  1803               	skipnc
  1616  0685  3E01               	addlw	1
  1617  0686  1903               	skipnz
  1618  0687  2E89               	goto	u2332
  1619  0688  07B6               	addwf	___flmul@prod+2,f
  1620  0689                     u2332:
  1621  0689  082B               	movf	??___flmul+3,w
  1622  068A  1103               	clrz
  1623  068B  1803               	skipnc
  1624  068C  3E01               	addlw	1
  1625  068D  1903               	skipnz
  1626  068E  2E90               	goto	u2333
  1627  068F  07B7               	addwf	___flmul@prod+3,f
  1628  0690                     u2333:
  1629  0690  0822               	movf	___flmul@b+2,w
  1630  0691  00A8               	movwf	??___flmul
  1631  0692  0828               	movf	??___flmul,w
  1632  0693  00F0               	movwf	__Umul8_16@multiplicand
  1633  0694  0826               	movf	___flmul@a+2,w
  1634  0695  120A  158A  2532  120A  118A  	fcall	__Umul8_16
  1635  069A  0871               	movf	?__Umul8_16+1,w
  1636  069B  1283               	bcf	3,5	;RP0=0, select bank0
  1637  069C  1303               	bcf	3,6	;RP1=0, select bank0
  1638  069D  00B9               	movwf	___flmul@temp+1
  1639  069E  0870               	movf	?__Umul8_16,w
  1640  069F  00B8               	movwf	___flmul@temp
  1641  06A0                     l1786:
  1642  06A0  0838               	movf	___flmul@temp,w
  1643  06A1  00A8               	movwf	??___flmul
  1644  06A2  0839               	movf	___flmul@temp+1,w
  1645  06A3  00A9               	movwf	??___flmul+1
  1646  06A4  01AA               	clrf	??___flmul+2
  1647  06A5  01AB               	clrf	??___flmul+3
  1648  06A6  3008               	movlw	8
  1649  06A7                     u2345:
  1650  06A7  1003               	clrc
  1651  06A8  0DA8               	rlf	??___flmul,f
  1652  06A9  0DA9               	rlf	??___flmul+1,f
  1653  06AA  0DAA               	rlf	??___flmul+2,f
  1654  06AB  0DAB               	rlf	??___flmul+3,f
  1655  06AC                     u2340:
  1656  06AC  3EFF               	addlw	-1
  1657  06AD  1D03               	skipz
  1658  06AE  2EA7               	goto	u2345
  1659  06AF  0828               	movf	??___flmul,w
  1660  06B0  07B4               	addwf	___flmul@prod,f
  1661  06B1  0829               	movf	??___flmul+1,w
  1662  06B2  1103               	clrz
  1663  06B3  1803               	skipnc
  1664  06B4  3E01               	addlw	1
  1665  06B5  1903               	skipnz
  1666  06B6  2EB8               	goto	u2351
  1667  06B7  07B5               	addwf	___flmul@prod+1,f
  1668  06B8                     u2351:
  1669  06B8  082A               	movf	??___flmul+2,w
  1670  06B9  1103               	clrz
  1671  06BA  1803               	skipnc
  1672  06BB  3E01               	addlw	1
  1673  06BC  1903               	skipnz
  1674  06BD  2EBF               	goto	u2352
  1675  06BE  07B6               	addwf	___flmul@prod+2,f
  1676  06BF                     u2352:
  1677  06BF  082B               	movf	??___flmul+3,w
  1678  06C0  1103               	clrz
  1679  06C1  1803               	skipnc
  1680  06C2  3E01               	addlw	1
  1681  06C3  1903               	skipnz
  1682  06C4  2EC6               	goto	u2353
  1683  06C5  07B7               	addwf	___flmul@prod+3,f
  1684  06C6                     u2353:
  1685  06C6                     l1788:
  1686  06C6  082E               	movf	___flmul@grs,w
  1687  06C7  00A8               	movwf	??___flmul
  1688  06C8  082F               	movf	___flmul@grs+1,w
  1689  06C9  00A9               	movwf	??___flmul+1
  1690  06CA  0830               	movf	___flmul@grs+2,w
  1691  06CB  00AA               	movwf	??___flmul+2
  1692  06CC  0831               	movf	___flmul@grs+3,w
  1693  06CD  00AB               	movwf	??___flmul+3
  1694  06CE  3018               	movlw	24
  1695  06CF                     u2365:
  1696  06CF  1003               	clrc
  1697  06D0  0CAB               	rrf	??___flmul+3,f
  1698  06D1  0CAA               	rrf	??___flmul+2,f
  1699  06D2  0CA9               	rrf	??___flmul+1,f
  1700  06D3  0CA8               	rrf	??___flmul,f
  1701  06D4                     u2360:
  1702  06D4  3EFF               	addlw	-1
  1703  06D5  1D03               	skipz
  1704  06D6  2ECF               	goto	u2365
  1705  06D7  0828               	movf	??___flmul,w
  1706  06D8  07B4               	addwf	___flmul@prod,f
  1707  06D9  0829               	movf	??___flmul+1,w
  1708  06DA  1103               	clrz
  1709  06DB  1803               	skipnc
  1710  06DC  3E01               	addlw	1
  1711  06DD  1903               	skipnz
  1712  06DE  2EE0               	goto	u2371
  1713  06DF  07B5               	addwf	___flmul@prod+1,f
  1714  06E0                     u2371:
  1715  06E0  082A               	movf	??___flmul+2,w
  1716  06E1  1103               	clrz
  1717  06E2  1803               	skipnc
  1718  06E3  3E01               	addlw	1
  1719  06E4  1903               	skipnz
  1720  06E5  2EE7               	goto	u2372
  1721  06E6  07B6               	addwf	___flmul@prod+2,f
  1722  06E7                     u2372:
  1723  06E7  082B               	movf	??___flmul+3,w
  1724  06E8  1103               	clrz
  1725  06E9  1803               	skipnc
  1726  06EA  3E01               	addlw	1
  1727  06EB  1903               	skipnz
  1728  06EC  2EEE               	goto	u2373
  1729  06ED  07B7               	addwf	___flmul@prod+3,f
  1730  06EE                     u2373:
  1731  06EE                     l1790:
  1732  06EE  3008               	movlw	8
  1733  06EF  00A8               	movwf	??___flmul
  1734  06F0                     u2385:
  1735  06F0  1003               	clrc
  1736  06F1  0DAE               	rlf	___flmul@grs,f
  1737  06F2  0DAF               	rlf	___flmul@grs+1,f
  1738  06F3  0DB0               	rlf	___flmul@grs+2,f
  1739  06F4  0DB1               	rlf	___flmul@grs+3,f
  1740  06F5  0BA8               	decfsz	??___flmul,f
  1741  06F6  2EF0               	goto	u2385
  1742  06F7                     l1792:
  1743  06F7  0833               	movf	___flmul@bexp,w
  1744  06F8  0732               	addwf	___flmul@aexp,w
  1745  06F9  00A8               	movwf	??___flmul
  1746  06FA  01A9               	clrf	??___flmul+1
  1747  06FB  0DA9               	rlf	??___flmul+1,f
  1748  06FC  0828               	movf	??___flmul,w
  1749  06FD  3E82               	addlw	130
  1750  06FE  00B8               	movwf	___flmul@temp
  1751  06FF  0829               	movf	??___flmul+1,w
  1752  0700  1803               	skipnc
  1753  0701  3E01               	addlw	1
  1754  0702  3EFF               	addlw	255
  1755  0703  00B9               	movwf	___flmul@temp+1
  1756  0704  2F22               	goto	l1804
  1757  0705                     l1794:
  1758  0705  3001               	movlw	1
  1759  0706  00A8               	movwf	??___flmul
  1760  0707                     u2395:
  1761  0707  1003               	clrc
  1762  0708  0DB4               	rlf	___flmul@prod,f
  1763  0709  0DB5               	rlf	___flmul@prod+1,f
  1764  070A  0DB6               	rlf	___flmul@prod+2,f
  1765  070B  0DB7               	rlf	___flmul@prod+3,f
  1766  070C  0BA8               	decfsz	??___flmul,f
  1767  070D  2F07               	goto	u2395
  1768  070E                     l1796:
  1769  070E  1FB1               	btfss	___flmul@grs+3,7
  1770  070F  2F11               	goto	u2401
  1771  0710  2F12               	goto	u2400
  1772  0711                     u2401:
  1773  0711  2F13               	goto	l1800
  1774  0712                     u2400:
  1775  0712                     l1798:
  1776  0712  1434               	bsf	___flmul@prod,0
  1777  0713                     l1800:
  1778  0713  3001               	movlw	1
  1779  0714  00A8               	movwf	??___flmul
  1780  0715                     u2415:
  1781  0715  1003               	clrc
  1782  0716  0DAE               	rlf	___flmul@grs,f
  1783  0717  0DAF               	rlf	___flmul@grs+1,f
  1784  0718  0DB0               	rlf	___flmul@grs+2,f
  1785  0719  0DB1               	rlf	___flmul@grs+3,f
  1786  071A  0BA8               	decfsz	??___flmul,f
  1787  071B  2F15               	goto	u2415
  1788  071C                     l1802:
  1789  071C  30FF               	movlw	255
  1790  071D  07B8               	addwf	___flmul@temp,f
  1791  071E  1803               	skipnc
  1792  071F  0AB9               	incf	___flmul@temp+1,f
  1793  0720  30FF               	movlw	255
  1794  0721  07B9               	addwf	___flmul@temp+1,f
  1795  0722                     l1804:
  1796  0722  1FB6               	btfss	___flmul@prod+2,7
  1797  0723  2F25               	goto	u2421
  1798  0724  2F26               	goto	u2420
  1799  0725                     u2421:
  1800  0725  2F05               	goto	l1794
  1801  0726                     u2420:
  1802  0726                     l1806:
  1803  0726  01B2               	clrf	___flmul@aexp
  1804  0727                     l1808:
  1805  0727  1FB1               	btfss	___flmul@grs+3,7
  1806  0728  2F2A               	goto	u2431
  1807  0729  2F2B               	goto	u2430
  1808  072A                     u2431:
  1809  072A  2F47               	goto	l1816
  1810  072B                     u2430:
  1811  072B                     l1810:
  1812  072B  30FF               	movlw	255
  1813  072C  052E               	andwf	___flmul@grs,w
  1814  072D  00A8               	movwf	??___flmul
  1815  072E  30FF               	movlw	255
  1816  072F  052F               	andwf	___flmul@grs+1,w
  1817  0730  00A9               	movwf	??___flmul+1
  1818  0731  30FF               	movlw	255
  1819  0732  0530               	andwf	___flmul@grs+2,w
  1820  0733  00AA               	movwf	??___flmul+2
  1821  0734  307F               	movlw	127
  1822  0735  0531               	andwf	___flmul@grs+3,w
  1823  0736  00AB               	movwf	??___flmul+3
  1824  0737  082B               	movf	??___flmul+3,w
  1825  0738  042A               	iorwf	??___flmul+2,w
  1826  0739  0429               	iorwf	??___flmul+1,w
  1827  073A  0428               	iorwf	??___flmul,w
  1828  073B  1903               	skipnz
  1829  073C  2F3E               	goto	u2441
  1830  073D  2F3F               	goto	u2440
  1831  073E                     u2441:
  1832  073E  2F42               	goto	l601
  1833  073F                     u2440:
  1834  073F                     l1812:
  1835  073F  01B2               	clrf	___flmul@aexp
  1836  0740  0AB2               	incf	___flmul@aexp,f
  1837  0741  2F47               	goto	l1816
  1838  0742                     l601:
  1839  0742  1C34               	btfss	___flmul@prod,0
  1840  0743  2F45               	goto	u2451
  1841  0744  2F46               	goto	u2450
  1842  0745                     u2451:
  1843  0745  2F47               	goto	l1816
  1844  0746                     u2450:
  1845  0746  2F3F               	goto	l1812
  1846  0747                     l1816:
  1847  0747  0832               	movf	___flmul@aexp,w
  1848  0748  1903               	btfsc	3,2
  1849  0749  2F4B               	goto	u2461
  1850  074A  2F4C               	goto	u2460
  1851  074B                     u2461:
  1852  074B  2F7D               	goto	l1826
  1853  074C                     u2460:
  1854  074C                     l1818:
  1855  074C  3001               	movlw	1
  1856  074D  07B4               	addwf	___flmul@prod,f
  1857  074E  3000               	movlw	0
  1858  074F  1803               	skipnc
  1859  0750  3001               	movlw	1
  1860  0751  07B5               	addwf	___flmul@prod+1,f
  1861  0752  3000               	movlw	0
  1862  0753  1803               	skipnc
  1863  0754  3001               	movlw	1
  1864  0755  07B6               	addwf	___flmul@prod+2,f
  1865  0756  3000               	movlw	0
  1866  0757  1803               	skipnc
  1867  0758  3001               	movlw	1
  1868  0759  07B7               	addwf	___flmul@prod+3,f
  1869  075A                     l1820:
  1870  075A  1C37               	btfss	___flmul@prod+3,0
  1871  075B  2F5D               	goto	u2471
  1872  075C  2F5E               	goto	u2470
  1873  075D                     u2471:
  1874  075D  2F7D               	goto	l1826
  1875  075E                     u2470:
  1876  075E                     l1822:
  1877  075E  0834               	movf	___flmul@prod,w
  1878  075F  00A8               	movwf	??___flmul
  1879  0760  0835               	movf	___flmul@prod+1,w
  1880  0761  00A9               	movwf	??___flmul+1
  1881  0762  0836               	movf	___flmul@prod+2,w
  1882  0763  00AA               	movwf	??___flmul+2
  1883  0764  0837               	movf	___flmul@prod+3,w
  1884  0765  00AB               	movwf	??___flmul+3
  1885  0766  3001               	movlw	1
  1886  0767  00AC               	movwf	??___flmul+4
  1887  0768                     u2485:
  1888  0768  0D2B               	rlf	??___flmul+3,w
  1889  0769  0CAB               	rrf	??___flmul+3,f
  1890  076A  0CAA               	rrf	??___flmul+2,f
  1891  076B  0CA9               	rrf	??___flmul+1,f
  1892  076C  0CA8               	rrf	??___flmul,f
  1893  076D                     u2480:
  1894  076D  0BAC               	decfsz	??___flmul+4,f
  1895  076E  2F68               	goto	u2485
  1896  076F  082B               	movf	??___flmul+3,w
  1897  0770  00B7               	movwf	___flmul@prod+3
  1898  0771  082A               	movf	??___flmul+2,w
  1899  0772  00B6               	movwf	___flmul@prod+2
  1900  0773  0829               	movf	??___flmul+1,w
  1901  0774  00B5               	movwf	___flmul@prod+1
  1902  0775  0828               	movf	??___flmul,w
  1903  0776  00B4               	movwf	___flmul@prod
  1904  0777                     l1824:
  1905  0777  3001               	movlw	1
  1906  0778  07B8               	addwf	___flmul@temp,f
  1907  0779  1803               	skipnc
  1908  077A  0AB9               	incf	___flmul@temp+1,f
  1909  077B  3000               	movlw	0
  1910  077C  07B9               	addwf	___flmul@temp+1,f
  1911  077D                     l1826:
  1912  077D  0839               	movf	___flmul@temp+1,w
  1913  077E  3A80               	xorlw	128
  1914  077F  00FF               	movwf	btemp+1
  1915  0780  3080               	movlw	128
  1916  0781  027F               	subwf	btemp+1,w
  1917  0782  1D03               	skipz
  1918  0783  2F86               	goto	u2495
  1919  0784  30FF               	movlw	255
  1920  0785  0238               	subwf	___flmul@temp,w
  1921  0786                     u2495:
  1922  0786  1C03               	skipc
  1923  0787  2F89               	goto	u2491
  1924  0788  2F8A               	goto	u2490
  1925  0789                     u2491:
  1926  0789  2F95               	goto	l1830
  1927  078A                     u2490:
  1928  078A                     l1828:
  1929  078A  307F               	movlw	127
  1930  078B  1283               	bcf	3,5	;RP0=0, select bank0
  1931  078C  1303               	bcf	3,6	;RP1=0, select bank0
  1932  078D  00B7               	movwf	___flmul@prod+3
  1933  078E  3080               	movlw	128
  1934  078F  00B6               	movwf	___flmul@prod+2
  1935  0790  3000               	movlw	0
  1936  0791  00B5               	movwf	___flmul@prod+1
  1937  0792  3000               	movlw	0
  1938  0793  00B4               	movwf	___flmul@prod
  1939  0794  2FCA               	goto	l607
  1940  0795                     l1830:
  1941  0795  1283               	bcf	3,5	;RP0=0, select bank0
  1942  0796  1303               	bcf	3,6	;RP1=0, select bank0
  1943  0797  0839               	movf	___flmul@temp+1,w
  1944  0798  3A80               	xorlw	128
  1945  0799  00FF               	movwf	btemp+1
  1946  079A  3080               	movlw	128
  1947  079B  027F               	subwf	btemp+1,w
  1948  079C  1D03               	skipz
  1949  079D  2FA0               	goto	u2505
  1950  079E  3001               	movlw	1
  1951  079F  0238               	subwf	___flmul@temp,w
  1952  07A0                     u2505:
  1953  07A0  1803               	skipnc
  1954  07A1  2FA3               	goto	u2501
  1955  07A2  2FA4               	goto	u2500
  1956  07A3                     u2501:
  1957  07A3  2FB0               	goto	l1836
  1958  07A4                     u2500:
  1959  07A4                     l1832:
  1960  07A4  3000               	movlw	0
  1961  07A5  1283               	bcf	3,5	;RP0=0, select bank0
  1962  07A6  1303               	bcf	3,6	;RP1=0, select bank0
  1963  07A7  00B7               	movwf	___flmul@prod+3
  1964  07A8  3000               	movlw	0
  1965  07A9  00B6               	movwf	___flmul@prod+2
  1966  07AA  3000               	movlw	0
  1967  07AB  00B5               	movwf	___flmul@prod+1
  1968  07AC  3000               	movlw	0
  1969  07AD  00B4               	movwf	___flmul@prod
  1970  07AE                     l1834:
  1971  07AE  01AD               	clrf	___flmul@sign
  1972  07AF  2FCA               	goto	l607
  1973  07B0                     l1836:
  1974  07B0  1283               	bcf	3,5	;RP0=0, select bank0
  1975  07B1  1303               	bcf	3,6	;RP1=0, select bank0
  1976  07B2  0838               	movf	___flmul@temp,w
  1977  07B3  00A8               	movwf	??___flmul
  1978  07B4  0828               	movf	??___flmul,w
  1979  07B5  00B3               	movwf	___flmul@bexp
  1980  07B6  30FF               	movlw	255
  1981  07B7  05B4               	andwf	___flmul@prod,f
  1982  07B8  30FF               	movlw	255
  1983  07B9  05B5               	andwf	___flmul@prod+1,f
  1984  07BA  307F               	movlw	127
  1985  07BB  05B6               	andwf	___flmul@prod+2,f
  1986  07BC  3000               	movlw	0
  1987  07BD  05B7               	andwf	___flmul@prod+3,f
  1988  07BE                     l1838:
  1989  07BE  1C33               	btfss	___flmul@bexp,0
  1990  07BF  2FC1               	goto	u2511
  1991  07C0  2FC2               	goto	u2510
  1992  07C1                     u2511:
  1993  07C1  2FC3               	goto	l1842
  1994  07C2                     u2510:
  1995  07C2                     l1840:
  1996  07C2  17B6               	bsf	___flmul@prod+2,7
  1997  07C3                     l1842:
  1998  07C3  0833               	movf	___flmul@bexp,w
  1999  07C4  00A8               	movwf	??___flmul
  2000  07C5  1003               	clrc
  2001  07C6  0C28               	rrf	??___flmul,w
  2002  07C7  00A9               	movwf	??___flmul+1
  2003  07C8  0829               	movf	??___flmul+1,w
  2004  07C9  00B7               	movwf	___flmul@prod+3
  2005  07CA                     l607:
  2006  07CA  082D               	movf	___flmul@sign,w
  2007  07CB  00A8               	movwf	??___flmul
  2008  07CC  0828               	movf	??___flmul,w
  2009  07CD  04B7               	iorwf	___flmul@prod+3,f
  2010  07CE                     l1844:
  2011  07CE  0837               	movf	___flmul@prod+3,w
  2012  07CF  00A3               	movwf	?___flmul+3
  2013  07D0  0836               	movf	___flmul@prod+2,w
  2014  07D1  00A2               	movwf	?___flmul+2
  2015  07D2  0835               	movf	___flmul@prod+1,w
  2016  07D3  00A1               	movwf	?___flmul+1
  2017  07D4  0834               	movf	___flmul@prod,w
  2018  07D5  00A0               	movwf	?___flmul
  2019  07D6                     l595:
  2020  07D6  0008               	return
  2021  07D7                     __end_of___flmul:
  2022                           
  2023                           	psect	text2
  2024  0D32                     __ptext2:	
  2025 ;; *************** function __Umul8_16 *****************
  2026 ;; Defined at:
  2027 ;;		line 4 in file "/opt/microchip/xc8/v2.32/pic/sources/c90/common/Umul8_16.c"
  2028 ;; Parameters:    Size  Location     Type
  2029 ;;  multiplier      1    wreg     unsigned char 
  2030 ;;  multiplicand    1    0[COMMON] unsigned char 
  2031 ;; Auto vars:     Size  Location     Type
  2032 ;;  multiplier      1    8[COMMON] unsigned char 
  2033 ;;  word_mpld       2    6[COMMON] unsigned int 
  2034 ;;  product         2    4[COMMON] unsigned int 
  2035 ;; Return value:  Size  Location     Type
  2036 ;;                  2    0[COMMON] unsigned int 
  2037 ;; Registers used:
  2038 ;;		wreg, status,2, status,0
  2039 ;; Tracked objects:
  2040 ;;		On entry : 0/0
  2041 ;;		On exit  : 0/0
  2042 ;;		Unchanged: 0/0
  2043 ;; Data sizes:     COMMON   BANK0   BANK1   BANK3   BANK2
  2044 ;;      Params:         2       0       0       0       0
  2045 ;;      Locals:         5       0       0       0       0
  2046 ;;      Temps:          2       0       0       0       0
  2047 ;;      Totals:         9       0       0       0       0
  2048 ;;Total ram usage:        9 bytes
  2049 ;; Hardware stack levels used: 1
  2050 ;; This function calls:
  2051 ;;		Nothing
  2052 ;; This function is called by:
  2053 ;;		___flmul
  2054 ;; This function uses a non-reentrant model
  2055 ;;
  2056                           
  2057                           
  2058                           ;psect for function __Umul8_16
  2059  0D32                     __Umul8_16:
  2060                           
  2061                           ;incstack = 0
  2062                           ; Regs used in __Umul8_16: [wreg+status,2+status,0]
  2063                           ;__Umul8_16@multiplier stored from wreg
  2064  0D32  00F8               	movwf	__Umul8_16@multiplier
  2065  0D33                     l1576:
  2066  0D33  01F4               	clrf	__Umul8_16@product
  2067  0D34  01F5               	clrf	__Umul8_16@product+1
  2068  0D35                     l1578:
  2069  0D35  0870               	movf	__Umul8_16@multiplicand,w
  2070  0D36  00F2               	movwf	??__Umul8_16
  2071  0D37  01F3               	clrf	??__Umul8_16+1
  2072  0D38  0872               	movf	??__Umul8_16,w
  2073  0D39  00F6               	movwf	__Umul8_16@word_mpld
  2074  0D3A  0873               	movf	??__Umul8_16+1,w
  2075  0D3B  00F7               	movwf	__Umul8_16@word_mpld+1
  2076  0D3C                     l1580:
  2077  0D3C  1C78               	btfss	__Umul8_16@multiplier,0
  2078  0D3D  2D3F               	goto	u1911
  2079  0D3E  2D40               	goto	u1910
  2080  0D3F                     u1911:
  2081  0D3F  2D46               	goto	l614
  2082  0D40                     u1910:
  2083  0D40                     l1582:
  2084  0D40  0876               	movf	__Umul8_16@word_mpld,w
  2085  0D41  07F4               	addwf	__Umul8_16@product,f
  2086  0D42  1803               	skipnc
  2087  0D43  0AF5               	incf	__Umul8_16@product+1,f
  2088  0D44  0877               	movf	__Umul8_16@word_mpld+1,w
  2089  0D45  07F5               	addwf	__Umul8_16@product+1,f
  2090  0D46                     l614:
  2091  0D46  3001               	movlw	1
  2092  0D47                     u1925:
  2093  0D47  1003               	clrc
  2094  0D48  0DF6               	rlf	__Umul8_16@word_mpld,f
  2095  0D49  0DF7               	rlf	__Umul8_16@word_mpld+1,f
  2096  0D4A  3EFF               	addlw	-1
  2097  0D4B  1D03               	skipz
  2098  0D4C  2D47               	goto	u1925
  2099  0D4D  1003               	clrc
  2100  0D4E  0CF8               	rrf	__Umul8_16@multiplier,f
  2101  0D4F                     l1584:
  2102  0D4F  0878               	movf	__Umul8_16@multiplier,w
  2103  0D50  1D03               	btfss	3,2
  2104  0D51  2D53               	goto	u1931
  2105  0D52  2D54               	goto	u1930
  2106  0D53                     u1931:
  2107  0D53  2D3C               	goto	l1580
  2108  0D54                     u1930:
  2109  0D54                     l1586:
  2110  0D54  0875               	movf	__Umul8_16@product+1,w
  2111  0D55  00F1               	movwf	?__Umul8_16+1
  2112  0D56  0874               	movf	__Umul8_16@product,w
  2113  0D57  00F0               	movwf	?__Umul8_16
  2114  0D58                     l616:
  2115  0D58  0008               	return
  2116  0D59                     __end_of__Umul8_16:
  2117                           
  2118                           	psect	text3
  2119  0D1D                     __ptext3:	
  2120 ;; *************** function _Lcd_Write *****************
  2121 ;; Defined at:
  2122 ;;		line 121 in file "/home/user/Escritorio/testVref_887/sources_orig/lcd_sintaxe_mikroc.c"
  2123 ;; Parameters:    Size  Location     Type
  2124 ;;  row             1    wreg     unsigned char 
  2125 ;;  col             1    9[COMMON] unsigned char 
  2126 ;;  Dt_Str          2   10[COMMON] PTR unsigned char 
  2127 ;;		 -> STR_2(9), STR_1(9), main@texto(6), 
  2128 ;; Auto vars:     Size  Location     Type
  2129 ;;  row             1   13[COMMON] unsigned char 
  2130 ;; Return value:  Size  Location     Type
  2131 ;;                  1    wreg      void 
  2132 ;; Registers used:
  2133 ;;		wreg, fsr0l, fsr0h, status,2, status,0, btemp+1, pclath, cstack
  2134 ;; Tracked objects:
  2135 ;;		On entry : 0/0
  2136 ;;		On exit  : 0/0
  2137 ;;		Unchanged: 0/0
  2138 ;; Data sizes:     COMMON   BANK0   BANK1   BANK3   BANK2
  2139 ;;      Params:         3       0       0       0       0
  2140 ;;      Locals:         1       0       0       0       0
  2141 ;;      Temps:          1       0       0       0       0
  2142 ;;      Totals:         5       0       0       0       0
  2143 ;;Total ram usage:        5 bytes
  2144 ;; Hardware stack levels used: 1
  2145 ;; Hardware stack levels required when called: 3
  2146 ;; This function calls:
  2147 ;;		_Lcd_Goto
  2148 ;;		_Lcd_Print
  2149 ;; This function is called by:
  2150 ;;		_main
  2151 ;; This function uses a non-reentrant model
  2152 ;;
  2153                           
  2154                           
  2155                           ;psect for function _Lcd_Write
  2156  0D1D                     _Lcd_Write:
  2157                           
  2158                           ;incstack = 0
  2159                           ; Regs used in _Lcd_Write: [wreg-fsr0h+status,2+status,0+btemp+1+pclath+cstack]
  2160                           ;Lcd_Write@row stored from wreg
  2161  0D1D  00FD               	movwf	Lcd_Write@row
  2162  0D1E                     l1638:
  2163                           
  2164                           ;/home/user/Escritorio/testVref_887/sources_orig/lcd_sintaxe_mikroc.c: 122:     Lcd_Goto
      +                          (col, row);
  2165  0D1E  087D               	movf	Lcd_Write@row,w
  2166  0D1F  00FC               	movwf	??_Lcd_Write
  2167  0D20  087C               	movf	??_Lcd_Write,w
  2168  0D21  00F5               	movwf	Lcd_Goto@row
  2169  0D22  0879               	movf	Lcd_Write@col,w
  2170  0D23  120A  158A  2586  120A  158A  	fcall	_Lcd_Goto
  2171  0D28                     l1640:
  2172                           
  2173                           ;/home/user/Escritorio/testVref_887/sources_orig/lcd_sintaxe_mikroc.c: 123:     Lcd_Prin
      +                          t(Dt_Str);
  2174  0D28  087A               	movf	Lcd_Write@Dt_Str,w
  2175  0D29  00F2               	movwf	Lcd_Print@Dt_Str
  2176  0D2A  087B               	movf	Lcd_Write@Dt_Str+1,w
  2177  0D2B  00F3               	movwf	Lcd_Print@Dt_Str+1
  2178  0D2C  120A  158A  25F6  120A  158A  	fcall	_Lcd_Print
  2179  0D31                     l90:
  2180  0D31  0008               	return
  2181  0D32                     __end_of_Lcd_Write:
  2182                           
  2183                           	psect	text4
  2184  0DF6                     __ptext4:	
  2185 ;; *************** function _Lcd_Print *****************
  2186 ;; Defined at:
  2187 ;;		line 94 in file "/home/user/Escritorio/testVref_887/sources_orig/lcd_sintaxe_mikroc.c"
  2188 ;; Parameters:    Size  Location     Type
  2189 ;;  Dt_Str          2    2[COMMON] PTR unsigned char 
  2190 ;;		 -> STR_2(9), STR_1(9), main@texto(6), 
  2191 ;; Auto vars:     Size  Location     Type
  2192 ;;  i               1    5[COMMON] unsigned char 
  2193 ;; Return value:  Size  Location     Type
  2194 ;;                  1    wreg      void 
  2195 ;; Registers used:
  2196 ;;		wreg, fsr0l, fsr0h, status,2, status,0, btemp+1, pclath, cstack
  2197 ;; Tracked objects:
  2198 ;;		On entry : 0/0
  2199 ;;		On exit  : 0/0
  2200 ;;		Unchanged: 0/0
  2201 ;; Data sizes:     COMMON   BANK0   BANK1   BANK3   BANK2
  2202 ;;      Params:         2       0       0       0       0
  2203 ;;      Locals:         1       0       0       0       0
  2204 ;;      Temps:          1       0       0       0       0
  2205 ;;      Totals:         4       0       0       0       0
  2206 ;;Total ram usage:        4 bytes
  2207 ;; Hardware stack levels used: 1
  2208 ;; Hardware stack levels required when called: 1
  2209 ;; This function calls:
  2210 ;;		_Lcd_Write_Nibble
  2211 ;; This function is called by:
  2212 ;;		_Lcd_Write
  2213 ;;		_Lcd_Out
  2214 ;; This function uses a non-reentrant model
  2215 ;;
  2216                           
  2217                           
  2218                           ;psect for function _Lcd_Print
  2219  0DF6                     _Lcd_Print:
  2220  0DF6                     l1366:	
  2221                           ;incstack = 0
  2222                           ; Regs used in _Lcd_Print: [wreg-fsr0h+status,2+status,0+btemp+1+pclath+cstack]
  2223                           
  2224                           
  2225                           ;/home/user/Escritorio/testVref_887/sources_orig/lcd_sintaxe_mikroc.c: 95:     uint8_t i
      +                           = 0;
  2226  0DF6  01F5               	clrf	Lcd_Print@i
  2227  0DF7                     l1368:
  2228                           
  2229                           ;/home/user/Escritorio/testVref_887/sources_orig/lcd_sintaxe_mikroc.c: 96:     RS = 1;
  2230  0DF7  1283               	bcf	3,5	;RP0=0, select bank0
  2231  0DF8  1303               	bcf	3,6	;RP1=0, select bank0
  2232  0DF9  146A               	bsf	_RS/(0+8),_RS& (0+7)
  2233                           
  2234                           ;/home/user/Escritorio/testVref_887/sources_orig/lcd_sintaxe_mikroc.c: 97:     while (Dt
      +                          _Str[i] != '\0') {
  2235  0DFA  2E2B               	goto	l1374
  2236  0DFB                     l1370:
  2237                           
  2238                           ;/home/user/Escritorio/testVref_887/sources_orig/lcd_sintaxe_mikroc.c: 98:         Lcd_W
      +                          rite_Nibble(Dt_Str[i] >> 4);
  2239  0DFB  0875               	movf	Lcd_Print@i,w
  2240  0DFC  0772               	addwf	Lcd_Print@Dt_Str,w
  2241  0DFD  0084               	movwf	4
  2242  0DFE  0873               	movf	Lcd_Print@Dt_Str+1,w
  2243  0DFF  1803               	skipnc
  2244  0E00  0A73               	incf	Lcd_Print@Dt_Str+1,w
  2245  0E01  00FF               	movwf	btemp+1
  2246  0E02  120A  158A  2000  120A  158A  	fcall	stringtab
  2247  0E07  00F4               	movwf	??_Lcd_Print
  2248  0E08  3004               	movlw	4
  2249  0E09                     u1445:
  2250  0E09  1003               	clrc
  2251  0E0A  0CF4               	rrf	??_Lcd_Print,f
  2252  0E0B  3EFF               	addlw	-1
  2253  0E0C  1D03               	skipz
  2254  0E0D  2E09               	goto	u1445
  2255  0E0E  0874               	movf	??_Lcd_Print,w
  2256  0E0F  120A  158A  263F  120A  158A  	fcall	_Lcd_Write_Nibble
  2257                           
  2258                           ;/home/user/Escritorio/testVref_887/sources_orig/lcd_sintaxe_mikroc.c: 99:         Lcd_W
      +                          rite_Nibble(Dt_Str[i++]);
  2259  0E14  0875               	movf	Lcd_Print@i,w
  2260  0E15  0772               	addwf	Lcd_Print@Dt_Str,w
  2261  0E16  0084               	movwf	4
  2262  0E17  0873               	movf	Lcd_Print@Dt_Str+1,w
  2263  0E18  1803               	skipnc
  2264  0E19  0A73               	incf	Lcd_Print@Dt_Str+1,w
  2265  0E1A  1283               	bcf	3,5	;RP0=0, select bank0
  2266  0E1B  1303               	bcf	3,6	;RP1=0, select bank0
  2267  0E1C  00FF               	movwf	btemp+1
  2268  0E1D  120A  158A  2000  120A  158A  	fcall	stringtab
  2269  0E22  120A  158A  263F  120A  158A  	fcall	_Lcd_Write_Nibble
  2270  0E27                     l1372:
  2271  0E27  3001               	movlw	1
  2272  0E28  00F4               	movwf	??_Lcd_Print
  2273  0E29  0874               	movf	??_Lcd_Print,w
  2274  0E2A  07F5               	addwf	Lcd_Print@i,f
  2275  0E2B                     l1374:
  2276                           
  2277                           ;/home/user/Escritorio/testVref_887/sources_orig/lcd_sintaxe_mikroc.c: 97:     while (Dt
      +                          _Str[i] != '\0') {
  2278  0E2B  0875               	movf	Lcd_Print@i,w
  2279  0E2C  0772               	addwf	Lcd_Print@Dt_Str,w
  2280  0E2D  0084               	movwf	4
  2281  0E2E  0873               	movf	Lcd_Print@Dt_Str+1,w
  2282  0E2F  1803               	skipnc
  2283  0E30  0A73               	incf	Lcd_Print@Dt_Str+1,w
  2284  0E31  1283               	bcf	3,5	;RP0=0, select bank0
  2285  0E32  1303               	bcf	3,6	;RP1=0, select bank0
  2286  0E33  00FF               	movwf	btemp+1
  2287  0E34  120A  158A  2000  120A  158A  	fcall	stringtab
  2288  0E39  3A00               	xorlw	0
  2289  0E3A  1D03               	skipz
  2290  0E3B  2E3D               	goto	u1451
  2291  0E3C  2E3E               	goto	u1450
  2292  0E3D                     u1451:
  2293  0E3D  2DFB               	goto	l1370
  2294  0E3E                     u1450:
  2295  0E3E                     l75:
  2296  0E3E  0008               	return
  2297  0E3F                     __end_of_Lcd_Print:
  2298                           
  2299                           	psect	text5
  2300  0D86                     __ptext5:	
  2301 ;; *************** function _Lcd_Goto *****************
  2302 ;; Defined at:
  2303 ;;		line 72 in file "/home/user/Escritorio/testVref_887/sources_orig/lcd_sintaxe_mikroc.c"
  2304 ;; Parameters:    Size  Location     Type
  2305 ;;  col             1    wreg     unsigned char 
  2306 ;;  row             1    5[COMMON] unsigned char 
  2307 ;; Auto vars:     Size  Location     Type
  2308 ;;  col             1    8[COMMON] unsigned char 
  2309 ;; Return value:  Size  Location     Type
  2310 ;;                  1    wreg      void 
  2311 ;; Registers used:
  2312 ;;		wreg, fsr0l, fsr0h, status,2, status,0, pclath, cstack
  2313 ;; Tracked objects:
  2314 ;;		On entry : 0/0
  2315 ;;		On exit  : 0/0
  2316 ;;		Unchanged: 0/0
  2317 ;; Data sizes:     COMMON   BANK0   BANK1   BANK3   BANK2
  2318 ;;      Params:         1       0       0       0       0
  2319 ;;      Locals:         1       0       0       0       0
  2320 ;;      Temps:          2       0       0       0       0
  2321 ;;      Totals:         4       0       0       0       0
  2322 ;;Total ram usage:        4 bytes
  2323 ;; Hardware stack levels used: 1
  2324 ;; Hardware stack levels required when called: 2
  2325 ;; This function calls:
  2326 ;;		_Lcd_Cmd
  2327 ;; This function is called by:
  2328 ;;		_Lcd_Write
  2329 ;;		_Lcd_Chr
  2330 ;;		_Lcd_Out
  2331 ;; This function uses a non-reentrant model
  2332 ;;
  2333                           
  2334                           
  2335                           ;psect for function _Lcd_Goto
  2336  0D86                     _Lcd_Goto:
  2337                           
  2338                           ;incstack = 0
  2339                           ; Regs used in _Lcd_Goto: [wreg-fsr0h+status,2+status,0+pclath+cstack]
  2340                           ;Lcd_Goto@col stored from wreg
  2341  0D86  00F8               	movwf	Lcd_Goto@col
  2342  0D87                     l1350:
  2343                           
  2344                           ;/home/user/Escritorio/testVref_887/sources_orig/lcd_sintaxe_mikroc.c: 73:     switch (r
      +                          ow) {
  2345  0D87  2DA8               	goto	l1360
  2346  0D88                     l1352:
  2347                           
  2348                           ;/home/user/Escritorio/testVref_887/sources_orig/lcd_sintaxe_mikroc.c: 75:         Lcd_C
      +                          md(0xC0 + col - 1);
  2349  0D88  0878               	movf	Lcd_Goto@col,w
  2350  0D89  3EBF               	addlw	191
  2351  0D8A  120A  158A  2559  120A  158A  	fcall	_Lcd_Cmd
  2352                           
  2353                           ;/home/user/Escritorio/testVref_887/sources_orig/lcd_sintaxe_mikroc.c: 76:         break
      +                          ;
  2354  0D8F  2DBB               	goto	l66
  2355  0D90                     l1354:
  2356                           
  2357                           ;/home/user/Escritorio/testVref_887/sources_orig/lcd_sintaxe_mikroc.c: 78:         Lcd_C
      +                          md(0x94 + col - 1);
  2358  0D90  0878               	movf	Lcd_Goto@col,w
  2359  0D91  3E93               	addlw	147
  2360  0D92  120A  158A  2559  120A  158A  	fcall	_Lcd_Cmd
  2361                           
  2362                           ;/home/user/Escritorio/testVref_887/sources_orig/lcd_sintaxe_mikroc.c: 79:         break
      +                          ;
  2363  0D97  2DBB               	goto	l66
  2364  0D98                     l1356:
  2365                           
  2366                           ;/home/user/Escritorio/testVref_887/sources_orig/lcd_sintaxe_mikroc.c: 81:         Lcd_C
      +                          md(0xD4 + col - 1);
  2367  0D98  0878               	movf	Lcd_Goto@col,w
  2368  0D99  3ED3               	addlw	211
  2369  0D9A  120A  158A  2559  120A  158A  	fcall	_Lcd_Cmd
  2370                           
  2371                           ;/home/user/Escritorio/testVref_887/sources_orig/lcd_sintaxe_mikroc.c: 82:         break
      +                          ;
  2372  0D9F  2DBB               	goto	l66
  2373  0DA0                     l1358:
  2374                           
  2375                           ;/home/user/Escritorio/testVref_887/sources_orig/lcd_sintaxe_mikroc.c: 84:         Lcd_C
      +                          md(0x80 + col - 1);
  2376  0DA0  0878               	movf	Lcd_Goto@col,w
  2377  0DA1  3E7F               	addlw	127
  2378  0DA2  120A  158A  2559  120A  158A  	fcall	_Lcd_Cmd
  2379                           
  2380                           ;/home/user/Escritorio/testVref_887/sources_orig/lcd_sintaxe_mikroc.c: 85:     }
  2381  0DA7  2DBB               	goto	l66
  2382  0DA8                     l1360:
  2383  0DA8  0875               	movf	Lcd_Goto@row,w
  2384  0DA9  00F6               	movwf	??_Lcd_Goto
  2385  0DAA  01F7               	clrf	??_Lcd_Goto+1
  2386                           
  2387                           ; Switch on 2 bytes has been partitioned into a top level switch of size 1, and 1 sub-sw
      +                          itches
  2388                           ; Switch size 1, requested type "simple"
  2389                           ; Number of cases is 1, Range of values is 0 to 0
  2390                           ; switch strategies available:
  2391                           ; Name         Instructions Cycles
  2392                           ; simple_byte            4     3 (average)
  2393                           ; direct_byte           11     8 (fixed)
  2394                           ; jumptable            260     6 (fixed)
  2395                           ;	Chosen strategy is simple_byte
  2396  0DAB  0877               	movf	??_Lcd_Goto+1,w
  2397  0DAC  3A00               	xorlw	0	; case 0
  2398  0DAD  1903               	skipnz
  2399  0DAE  2DB0               	goto	l1936
  2400  0DAF  2DA0               	goto	l1358
  2401  0DB0                     l1936:
  2402                           
  2403                           ; Switch size 1, requested type "simple"
  2404                           ; Number of cases is 3, Range of values is 2 to 4
  2405                           ; switch strategies available:
  2406                           ; Name         Instructions Cycles
  2407                           ; simple_byte           10     6 (average)
  2408                           ; direct_byte           20    11 (fixed)
  2409                           ; jumptable            263     9 (fixed)
  2410                           ;	Chosen strategy is simple_byte
  2411  0DB0  0876               	movf	??_Lcd_Goto,w
  2412  0DB1  3A02               	xorlw	2	; case 2
  2413  0DB2  1903               	skipnz
  2414  0DB3  2D88               	goto	l1352
  2415  0DB4  3A01               	xorlw	1	; case 3
  2416  0DB5  1903               	skipnz
  2417  0DB6  2D90               	goto	l1354
  2418  0DB7  3A07               	xorlw	7	; case 4
  2419  0DB8  1903               	skipnz
  2420  0DB9  2D98               	goto	l1356
  2421  0DBA  2DA0               	goto	l1358
  2422  0DBB                     l66:
  2423  0DBB  0008               	return
  2424  0DBC                     __end_of_Lcd_Goto:
  2425                           
  2426                           	psect	text6
  2427  0E9F                     __ptext6:	
  2428 ;; *************** function _Lcd_Init *****************
  2429 ;; Defined at:
  2430 ;;		line 131 in file "/home/user/Escritorio/testVref_887/sources_orig/lcd_sintaxe_mikroc.c"
  2431 ;; Parameters:    Size  Location     Type
  2432 ;;		None
  2433 ;; Auto vars:     Size  Location     Type
  2434 ;;		None
  2435 ;; Return value:  Size  Location     Type
  2436 ;;                  1    wreg      void 
  2437 ;; Registers used:
  2438 ;;		wreg, status,2, status,0, pclath, cstack
  2439 ;; Tracked objects:
  2440 ;;		On entry : 0/0
  2441 ;;		On exit  : 0/0
  2442 ;;		Unchanged: 0/0
  2443 ;; Data sizes:     COMMON   BANK0   BANK1   BANK3   BANK2
  2444 ;;      Params:         0       0       0       0       0
  2445 ;;      Locals:         0       0       0       0       0
  2446 ;;      Temps:          3       0       0       0       0
  2447 ;;      Totals:         3       0       0       0       0
  2448 ;;Total ram usage:        3 bytes
  2449 ;; Hardware stack levels used: 1
  2450 ;; Hardware stack levels required when called: 2
  2451 ;; This function calls:
  2452 ;;		_Lcd_Cmd
  2453 ;; This function is called by:
  2454 ;;		_main
  2455 ;; This function uses a non-reentrant model
  2456 ;;
  2457                           
  2458                           
  2459                           ;psect for function _Lcd_Init
  2460  0E9F                     _Lcd_Init:
  2461  0E9F                     l1642:	
  2462                           ;incstack = 0
  2463                           ; Regs used in _Lcd_Init: [wreg+status,2+status,0+pclath+cstack]
  2464                           
  2465                           
  2466                           ;/home/user/Escritorio/testVref_887/sources_orig/lcd_sintaxe_mikroc.c: 132:     RS = 0;
  2467  0E9F  1283               	bcf	3,5	;RP0=0, select bank0
  2468  0EA0  1303               	bcf	3,6	;RP1=0, select bank0
  2469  0EA1  106A               	bcf	_RS/(0+8),_RS& (0+7)
  2470                           
  2471                           ;/home/user/Escritorio/testVref_887/sources_orig/lcd_sintaxe_mikroc.c: 134:     RD2 = 0;
  2472  0EA2  1108               	bcf	8,2	;volatile
  2473                           
  2474                           ;/home/user/Escritorio/testVref_887/sources_orig/lcd_sintaxe_mikroc.c: 135:     RD3 = 0;
  2475  0EA3  1188               	bcf	8,3	;volatile
  2476                           
  2477                           ;/home/user/Escritorio/testVref_887/sources_orig/lcd_sintaxe_mikroc.c: 136:     RD4 = 0;
  2478  0EA4  1208               	bcf	8,4	;volatile
  2479                           
  2480                           ;/home/user/Escritorio/testVref_887/sources_orig/lcd_sintaxe_mikroc.c: 137:     RD5 = 0;
  2481  0EA5  1288               	bcf	8,5	;volatile
  2482                           
  2483                           ;/home/user/Escritorio/testVref_887/sources_orig/lcd_sintaxe_mikroc.c: 138:     RD6 = 0;
  2484  0EA6  1308               	bcf	8,6	;volatile
  2485                           
  2486                           ;/home/user/Escritorio/testVref_887/sources_orig/lcd_sintaxe_mikroc.c: 139:     RD7 = 0;
  2487  0EA7  1388               	bcf	8,7	;volatile
  2488                           
  2489                           ;/home/user/Escritorio/testVref_887/sources_orig/lcd_sintaxe_mikroc.c: 140:     TRISD2 =
      +                           0;
  2490  0EA8  1683               	bsf	3,5	;RP0=1, select bank1
  2491  0EA9  1303               	bcf	3,6	;RP1=0, select bank1
  2492  0EAA  1108               	bcf	8,2	;volatile
  2493                           
  2494                           ;/home/user/Escritorio/testVref_887/sources_orig/lcd_sintaxe_mikroc.c: 141:     TRISD3 =
      +                           0;
  2495  0EAB  1188               	bcf	8,3	;volatile
  2496                           
  2497                           ;/home/user/Escritorio/testVref_887/sources_orig/lcd_sintaxe_mikroc.c: 142:     TRISD4 =
      +                           0;
  2498  0EAC  1208               	bcf	8,4	;volatile
  2499                           
  2500                           ;/home/user/Escritorio/testVref_887/sources_orig/lcd_sintaxe_mikroc.c: 143:     TRISD5 =
      +                           0;
  2501  0EAD  1288               	bcf	8,5	;volatile
  2502                           
  2503                           ;/home/user/Escritorio/testVref_887/sources_orig/lcd_sintaxe_mikroc.c: 144:     TRISD6 =
      +                           0;
  2504  0EAE  1308               	bcf	8,6	;volatile
  2505                           
  2506                           ;/home/user/Escritorio/testVref_887/sources_orig/lcd_sintaxe_mikroc.c: 145:     TRISD7 =
      +                           0;
  2507  0EAF  1388               	bcf	8,7	;volatile
  2508  0EB0                     l1644:
  2509                           
  2510                           ;/home/user/Escritorio/testVref_887/sources_orig/lcd_sintaxe_mikroc.c: 147:     _delay((
      +                          unsigned long)((40)*(20000000UL/4000.0)));
  2511  0EB0  3002               	movlw	2
  2512  0EB1  00F7               	movwf	??_Lcd_Init+2
  2513  0EB2  3004               	movlw	4
  2514  0EB3  00F6               	movwf	??_Lcd_Init+1
  2515  0EB4  30BA               	movlw	186
  2516  0EB5  00F5               	movwf	??_Lcd_Init
  2517  0EB6                     u2577:
  2518  0EB6  0BF5               	decfsz	??_Lcd_Init,f
  2519  0EB7  2EB6               	goto	u2577
  2520  0EB8  0BF6               	decfsz	??_Lcd_Init+1,f
  2521  0EB9  2EB6               	goto	u2577
  2522  0EBA  0BF7               	decfsz	??_Lcd_Init+2,f
  2523  0EBB  2EB6               	goto	u2577
  2524  0EBC  0000               	nop
  2525  0EBD                     l1646:
  2526                           
  2527                           ;/home/user/Escritorio/testVref_887/sources_orig/lcd_sintaxe_mikroc.c: 148:     Lcd_Cmd(
      +                          3);
  2528  0EBD  3003               	movlw	3
  2529  0EBE  120A  158A  2559  120A  158A  	fcall	_Lcd_Cmd
  2530  0EC3                     l1648:
  2531                           
  2532                           ;/home/user/Escritorio/testVref_887/sources_orig/lcd_sintaxe_mikroc.c: 149:     _delay((
      +                          unsigned long)((5)*(20000000UL/4000.0)));
  2533  0EC3  3021               	movlw	33
  2534  0EC4  00F6               	movwf	??_Lcd_Init+1
  2535  0EC5  3076               	movlw	118
  2536  0EC6  00F5               	movwf	??_Lcd_Init
  2537  0EC7                     u2587:
  2538  0EC7  0BF5               	decfsz	??_Lcd_Init,f
  2539  0EC8  2EC7               	goto	u2587
  2540  0EC9  0BF6               	decfsz	??_Lcd_Init+1,f
  2541  0ECA  2EC7               	goto	u2587
  2542  0ECB  0000               	nop
  2543                           
  2544                           ;/home/user/Escritorio/testVref_887/sources_orig/lcd_sintaxe_mikroc.c: 150:     Lcd_Cmd(
      +                          3);
  2545  0ECC  3003               	movlw	3
  2546  0ECD  120A  158A  2559  120A  158A  	fcall	_Lcd_Cmd
  2547  0ED2                     l1650:
  2548                           
  2549                           ;/home/user/Escritorio/testVref_887/sources_orig/lcd_sintaxe_mikroc.c: 151:     _delay((
      +                          unsigned long)((5)*(20000000UL/4000.0)));
  2550  0ED2  3021               	movlw	33
  2551  0ED3  00F6               	movwf	??_Lcd_Init+1
  2552  0ED4  3076               	movlw	118
  2553  0ED5  00F5               	movwf	??_Lcd_Init
  2554  0ED6                     u2597:
  2555  0ED6  0BF5               	decfsz	??_Lcd_Init,f
  2556  0ED7  2ED6               	goto	u2597
  2557  0ED8  0BF6               	decfsz	??_Lcd_Init+1,f
  2558  0ED9  2ED6               	goto	u2597
  2559  0EDA  0000               	nop
  2560  0EDB                     l1652:
  2561                           
  2562                           ;/home/user/Escritorio/testVref_887/sources_orig/lcd_sintaxe_mikroc.c: 152:     Lcd_Cmd(
      +                          3);
  2563  0EDB  3003               	movlw	3
  2564  0EDC  120A  158A  2559  120A  158A  	fcall	_Lcd_Cmd
  2565                           
  2566                           ;/home/user/Escritorio/testVref_887/sources_orig/lcd_sintaxe_mikroc.c: 153:     _delay((
      +                          unsigned long)((5)*(20000000UL/4000.0)));
  2567  0EE1  3021               	movlw	33
  2568  0EE2  00F6               	movwf	??_Lcd_Init+1
  2569  0EE3  3076               	movlw	118
  2570  0EE4  00F5               	movwf	??_Lcd_Init
  2571  0EE5                     u2607:
  2572  0EE5  0BF5               	decfsz	??_Lcd_Init,f
  2573  0EE6  2EE5               	goto	u2607
  2574  0EE7  0BF6               	decfsz	??_Lcd_Init+1,f
  2575  0EE8  2EE5               	goto	u2607
  2576  0EE9  0000               	nop
  2577  0EEA                     l1654:
  2578                           
  2579                           ;/home/user/Escritorio/testVref_887/sources_orig/lcd_sintaxe_mikroc.c: 154:     Lcd_Cmd(
      +                          0x02);
  2580  0EEA  3002               	movlw	2
  2581  0EEB  120A  158A  2559  120A  158A  	fcall	_Lcd_Cmd
  2582  0EF0                     l1656:
  2583                           
  2584                           ;/home/user/Escritorio/testVref_887/sources_orig/lcd_sintaxe_mikroc.c: 155:     _delay((
      +                          unsigned long)((5)*(20000000UL/4000.0)));
  2585  0EF0  3021               	movlw	33
  2586  0EF1  00F6               	movwf	??_Lcd_Init+1
  2587  0EF2  3076               	movlw	118
  2588  0EF3  00F5               	movwf	??_Lcd_Init
  2589  0EF4                     u2617:
  2590  0EF4  0BF5               	decfsz	??_Lcd_Init,f
  2591  0EF5  2EF4               	goto	u2617
  2592  0EF6  0BF6               	decfsz	??_Lcd_Init+1,f
  2593  0EF7  2EF4               	goto	u2617
  2594  0EF8  0000               	nop
  2595                           
  2596                           ;/home/user/Escritorio/testVref_887/sources_orig/lcd_sintaxe_mikroc.c: 156:     Lcd_Cmd(
      +                          0x20 | (2 << 2));
  2597  0EF9  3028               	movlw	40
  2598  0EFA  120A  158A  2559  120A  158A  	fcall	_Lcd_Cmd
  2599  0EFF                     l1658:
  2600                           
  2601                           ;/home/user/Escritorio/testVref_887/sources_orig/lcd_sintaxe_mikroc.c: 157:     _delay((
      +                          unsigned long)((50)*(20000000UL/4000.0)));
  2602  0EFF  3002               	movlw	2
  2603  0F00  00F7               	movwf	??_Lcd_Init+2
  2604  0F01  3045               	movlw	69
  2605  0F02  00F6               	movwf	??_Lcd_Init+1
  2606  0F03  30A9               	movlw	169
  2607  0F04  00F5               	movwf	??_Lcd_Init
  2608  0F05                     u2627:
  2609  0F05  0BF5               	decfsz	??_Lcd_Init,f
  2610  0F06  2F05               	goto	u2627
  2611  0F07  0BF6               	decfsz	??_Lcd_Init+1,f
  2612  0F08  2F05               	goto	u2627
  2613  0F09  0BF7               	decfsz	??_Lcd_Init+2,f
  2614  0F0A  2F05               	goto	u2627
  2615  0F0B  2F0C               	nop2
  2616  0F0C                     l1660:
  2617                           
  2618                           ;/home/user/Escritorio/testVref_887/sources_orig/lcd_sintaxe_mikroc.c: 158:     Lcd_Cmd(
      +                          0x0C);
  2619  0F0C  300C               	movlw	12
  2620  0F0D  120A  158A  2559  120A  158A  	fcall	_Lcd_Cmd
  2621                           
  2622                           ;/home/user/Escritorio/testVref_887/sources_orig/lcd_sintaxe_mikroc.c: 159:     _delay((
      +                          unsigned long)((50)*(20000000UL/4000.0)));
  2623  0F12  3002               	movlw	2
  2624  0F13  00F7               	movwf	??_Lcd_Init+2
  2625  0F14  3045               	movlw	69
  2626  0F15  00F6               	movwf	??_Lcd_Init+1
  2627  0F16  30A9               	movlw	169
  2628  0F17  00F5               	movwf	??_Lcd_Init
  2629  0F18                     u2637:
  2630  0F18  0BF5               	decfsz	??_Lcd_Init,f
  2631  0F19  2F18               	goto	u2637
  2632  0F1A  0BF6               	decfsz	??_Lcd_Init+1,f
  2633  0F1B  2F18               	goto	u2637
  2634  0F1C  0BF7               	decfsz	??_Lcd_Init+2,f
  2635  0F1D  2F18               	goto	u2637
  2636  0F1E  2F1F               	nop2
  2637  0F1F                     l1662:
  2638                           
  2639                           ;/home/user/Escritorio/testVref_887/sources_orig/lcd_sintaxe_mikroc.c: 160:     Lcd_Cmd(
      +                          0x01);
  2640  0F1F  3001               	movlw	1
  2641  0F20  120A  158A  2559  120A  158A  	fcall	_Lcd_Cmd
  2642  0F25                     l1664:
  2643                           
  2644                           ;/home/user/Escritorio/testVref_887/sources_orig/lcd_sintaxe_mikroc.c: 161:     _delay((
      +                          unsigned long)((50)*(20000000UL/4000.0)));
  2645  0F25  3002               	movlw	2
  2646  0F26  00F7               	movwf	??_Lcd_Init+2
  2647  0F27  3045               	movlw	69
  2648  0F28  00F6               	movwf	??_Lcd_Init+1
  2649  0F29  30A9               	movlw	169
  2650  0F2A  00F5               	movwf	??_Lcd_Init
  2651  0F2B                     u2647:
  2652  0F2B  0BF5               	decfsz	??_Lcd_Init,f
  2653  0F2C  2F2B               	goto	u2647
  2654  0F2D  0BF6               	decfsz	??_Lcd_Init+1,f
  2655  0F2E  2F2B               	goto	u2647
  2656  0F2F  0BF7               	decfsz	??_Lcd_Init+2,f
  2657  0F30  2F2B               	goto	u2647
  2658  0F31  2F32               	nop2
  2659                           
  2660                           ;/home/user/Escritorio/testVref_887/sources_orig/lcd_sintaxe_mikroc.c: 162:     Lcd_Cmd(
      +                          0x04 | 0x02);
  2661  0F32  3006               	movlw	6
  2662  0F33  120A  158A  2559  120A  158A  	fcall	_Lcd_Cmd
  2663  0F38                     l1666:
  2664                           
  2665                           ;/home/user/Escritorio/testVref_887/sources_orig/lcd_sintaxe_mikroc.c: 163:     _delay((
      +                          unsigned long)((50)*(20000000UL/4000.0)));
  2666  0F38  3002               	movlw	2
  2667  0F39  00F7               	movwf	??_Lcd_Init+2
  2668  0F3A  3045               	movlw	69
  2669  0F3B  00F6               	movwf	??_Lcd_Init+1
  2670  0F3C  30A9               	movlw	169
  2671  0F3D  00F5               	movwf	??_Lcd_Init
  2672  0F3E                     u2657:
  2673  0F3E  0BF5               	decfsz	??_Lcd_Init,f
  2674  0F3F  2F3E               	goto	u2657
  2675  0F40  0BF6               	decfsz	??_Lcd_Init+1,f
  2676  0F41  2F3E               	goto	u2657
  2677  0F42  0BF7               	decfsz	??_Lcd_Init+2,f
  2678  0F43  2F3E               	goto	u2657
  2679  0F44  2F45               	nop2
  2680  0F45                     l96:
  2681  0F45  0008               	return
  2682  0F46                     __end_of_Lcd_Init:
  2683                           
  2684                           	psect	text7
  2685  0D59                     __ptext7:	
  2686 ;; *************** function _Lcd_Cmd *****************
  2687 ;; Defined at:
  2688 ;;		line 64 in file "/home/user/Escritorio/testVref_887/sources_orig/lcd_sintaxe_mikroc.c"
  2689 ;; Parameters:    Size  Location     Type
  2690 ;;  Command         1    wreg     unsigned char 
  2691 ;; Auto vars:     Size  Location     Type
  2692 ;;  Command         1    4[COMMON] unsigned char 
  2693 ;; Return value:  Size  Location     Type
  2694 ;;                  1    wreg      void 
  2695 ;; Registers used:
  2696 ;;		wreg, status,2, status,0, pclath, cstack
  2697 ;; Tracked objects:
  2698 ;;		On entry : 0/0
  2699 ;;		On exit  : 0/0
  2700 ;;		Unchanged: 0/0
  2701 ;; Data sizes:     COMMON   BANK0   BANK1   BANK3   BANK2
  2702 ;;      Params:         0       0       0       0       0
  2703 ;;      Locals:         1       0       0       0       0
  2704 ;;      Temps:          2       0       0       0       0
  2705 ;;      Totals:         3       0       0       0       0
  2706 ;;Total ram usage:        3 bytes
  2707 ;; Hardware stack levels used: 1
  2708 ;; Hardware stack levels required when called: 1
  2709 ;; This function calls:
  2710 ;;		_Lcd_Write_Nibble
  2711 ;; This function is called by:
  2712 ;;		_Lcd_Goto
  2713 ;;		_Lcd_Init
  2714 ;; This function uses a non-reentrant model
  2715 ;;
  2716                           
  2717                           
  2718                           ;psect for function _Lcd_Cmd
  2719  0D59                     _Lcd_Cmd:
  2720                           
  2721                           ;incstack = 0
  2722                           ; Regs used in _Lcd_Cmd: [wreg+status,2+status,0+pclath+cstack]
  2723                           ;Lcd_Cmd@Command stored from wreg
  2724  0D59  00F4               	movwf	Lcd_Cmd@Command
  2725  0D5A                     l1340:
  2726                           
  2727                           ;/home/user/Escritorio/testVref_887/sources_orig/lcd_sintaxe_mikroc.c: 65:     RS = 0;
  2728  0D5A  1283               	bcf	3,5	;RP0=0, select bank0
  2729  0D5B  1303               	bcf	3,6	;RP1=0, select bank0
  2730  0D5C  106A               	bcf	_RS/(0+8),_RS& (0+7)
  2731  0D5D                     l1342:
  2732                           
  2733                           ;/home/user/Escritorio/testVref_887/sources_orig/lcd_sintaxe_mikroc.c: 66:     Lcd_Write
      +                          _Nibble(Command >> 4);
  2734  0D5D  0874               	movf	Lcd_Cmd@Command,w
  2735  0D5E  00F2               	movwf	??_Lcd_Cmd
  2736  0D5F  3004               	movlw	4
  2737  0D60                     u1415:
  2738  0D60  1003               	clrc
  2739  0D61  0CF2               	rrf	??_Lcd_Cmd,f
  2740  0D62  3EFF               	addlw	-1
  2741  0D63  1D03               	skipz
  2742  0D64  2D60               	goto	u1415
  2743  0D65  0872               	movf	??_Lcd_Cmd,w
  2744  0D66  120A  158A  263F  120A  158A  	fcall	_Lcd_Write_Nibble
  2745                           
  2746                           ;/home/user/Escritorio/testVref_887/sources_orig/lcd_sintaxe_mikroc.c: 67:     Lcd_Write
      +                          _Nibble(Command);
  2747  0D6B  0874               	movf	Lcd_Cmd@Command,w
  2748  0D6C  120A  158A  263F  120A  158A  	fcall	_Lcd_Write_Nibble
  2749  0D71                     l1344:
  2750                           
  2751                           ;/home/user/Escritorio/testVref_887/sources_orig/lcd_sintaxe_mikroc.c: 68:     if ((Comm
      +                          and == 0x01) || (Command == 0x02))
  2752  0D71  0374               	decf	Lcd_Cmd@Command,w
  2753  0D72  1903               	btfsc	3,2
  2754  0D73  2D75               	goto	u1421
  2755  0D74  2D76               	goto	u1420
  2756  0D75                     u1421:
  2757  0D75  2D7C               	goto	l1348
  2758  0D76                     u1420:
  2759  0D76                     l1346:
  2760  0D76  3002               	movlw	2
  2761  0D77  0674               	xorwf	Lcd_Cmd@Command,w
  2762  0D78  1D03               	btfss	3,2
  2763  0D79  2D7B               	goto	u1431
  2764  0D7A  2D7C               	goto	u1430
  2765  0D7B                     u1431:
  2766  0D7B  2D85               	goto	l57
  2767  0D7C                     u1430:
  2768  0D7C                     l1348:
  2769                           
  2770                           ;/home/user/Escritorio/testVref_887/sources_orig/lcd_sintaxe_mikroc.c: 69:         _dela
      +                          y((unsigned long)((2)*(20000000UL/4000.0)));
  2771  0D7C  300D               	movlw	13
  2772  0D7D  00F3               	movwf	??_Lcd_Cmd+1
  2773  0D7E  30FB               	movlw	251
  2774  0D7F  00F2               	movwf	??_Lcd_Cmd
  2775  0D80                     u2667:
  2776  0D80  0BF2               	decfsz	??_Lcd_Cmd,f
  2777  0D81  2D80               	goto	u2667
  2778  0D82  0BF3               	decfsz	??_Lcd_Cmd+1,f
  2779  0D83  2D80               	goto	u2667
  2780  0D84  2D85               	nop2
  2781  0D85                     l57:
  2782  0D85  0008               	return
  2783  0D86                     __end_of_Lcd_Cmd:
  2784                           
  2785                           	psect	text8
  2786  0E3F                     __ptext8:	
  2787 ;; *************** function _Lcd_Write_Nibble *****************
  2788 ;; Defined at:
  2789 ;;		line 48 in file "/home/user/Escritorio/testVref_887/sources_orig/lcd_sintaxe_mikroc.c"
  2790 ;; Parameters:    Size  Location     Type
  2791 ;;  n               1    wreg     unsigned char 
  2792 ;; Auto vars:     Size  Location     Type
  2793 ;;  n               1    1[COMMON] unsigned char 
  2794 ;; Return value:  Size  Location     Type
  2795 ;;                  1    wreg      void 
  2796 ;; Registers used:
  2797 ;;		wreg, status,2, status,0
  2798 ;; Tracked objects:
  2799 ;;		On entry : 0/0
  2800 ;;		On exit  : 0/0
  2801 ;;		Unchanged: 0/0
  2802 ;; Data sizes:     COMMON   BANK0   BANK1   BANK3   BANK2
  2803 ;;      Params:         0       0       0       0       0
  2804 ;;      Locals:         1       0       0       0       0
  2805 ;;      Temps:          1       0       0       0       0
  2806 ;;      Totals:         2       0       0       0       0
  2807 ;;Total ram usage:        2 bytes
  2808 ;; Hardware stack levels used: 1
  2809 ;; This function calls:
  2810 ;;		Nothing
  2811 ;; This function is called by:
  2812 ;;		_Lcd_Cmd
  2813 ;;		_Lcd_Print
  2814 ;;		_Lcd_PutC
  2815 ;;		_Lcd_Println
  2816 ;; This function uses a non-reentrant model
  2817 ;;
  2818                           
  2819                           
  2820                           ;psect for function _Lcd_Write_Nibble
  2821  0E3F                     _Lcd_Write_Nibble:
  2822                           
  2823                           ;incstack = 0
  2824                           ; Regs used in _Lcd_Write_Nibble: [wreg+status,2+status,0]
  2825                           ;Lcd_Write_Nibble@n stored from wreg
  2826  0E3F  00F1               	movwf	Lcd_Write_Nibble@n
  2827  0E40                     l1324:
  2828                           
  2829                           ;/home/user/Escritorio/testVref_887/sources_orig/lcd_sintaxe_mikroc.c: 49:     RD2 = RS;
  2830  0E40  1283               	bcf	3,5	;RP0=0, select bank0
  2831  0E41  1303               	bcf	3,6	;RP1=0, select bank0
  2832  0E42  186A               	btfsc	_RS/(0+8),_RS& (0+7)
  2833  0E43  2E45               	goto	u1281
  2834  0E44  2E49               	goto	u1280
  2835  0E45                     u1281:
  2836  0E45  1283               	bcf	3,5	;RP0=0, select bank0
  2837  0E46  1303               	bcf	3,6	;RP1=0, select bank0
  2838  0E47  1508               	bsf	8,2	;volatile
  2839  0E48  2E4C               	goto	u1294
  2840  0E49                     u1280:
  2841  0E49  1283               	bcf	3,5	;RP0=0, select bank0
  2842  0E4A  1303               	bcf	3,6	;RP1=0, select bank0
  2843  0E4B  1108               	bcf	8,2	;volatile
  2844  0E4C                     u1294:
  2845                           
  2846                           ;/home/user/Escritorio/testVref_887/sources_orig/lcd_sintaxe_mikroc.c: 50:     RD4 = n &
      +                           0x01;
  2847  0E4C  1871               	btfsc	Lcd_Write_Nibble@n,0
  2848  0E4D  2E4F               	goto	u1301
  2849  0E4E  2E53               	goto	u1300
  2850  0E4F                     u1301:
  2851  0E4F  1283               	bcf	3,5	;RP0=0, select bank0
  2852  0E50  1303               	bcf	3,6	;RP1=0, select bank0
  2853  0E51  1608               	bsf	8,4	;volatile
  2854  0E52  2E56               	goto	u1314
  2855  0E53                     u1300:
  2856  0E53  1283               	bcf	3,5	;RP0=0, select bank0
  2857  0E54  1303               	bcf	3,6	;RP1=0, select bank0
  2858  0E55  1208               	bcf	8,4	;volatile
  2859  0E56                     u1314:
  2860  0E56                     l1326:
  2861                           
  2862                           ;/home/user/Escritorio/testVref_887/sources_orig/lcd_sintaxe_mikroc.c: 51:     RD5 = (n 
      +                          >> 1) & 0x01;
  2863  0E56  0871               	movf	Lcd_Write_Nibble@n,w
  2864  0E57  00F0               	movwf	??_Lcd_Write_Nibble
  2865  0E58  3001               	movlw	1
  2866  0E59                     u1325:
  2867  0E59  1003               	clrc
  2868  0E5A  0CF0               	rrf	??_Lcd_Write_Nibble,f
  2869  0E5B  3EFF               	addlw	-1
  2870  0E5C  1D03               	skipz
  2871  0E5D  2E59               	goto	u1325
  2872  0E5E  1870               	btfsc	??_Lcd_Write_Nibble,0
  2873  0E5F  2E61               	goto	u1331
  2874  0E60  2E65               	goto	u1330
  2875  0E61                     u1331:
  2876  0E61  1283               	bcf	3,5	;RP0=0, select bank0
  2877  0E62  1303               	bcf	3,6	;RP1=0, select bank0
  2878  0E63  1688               	bsf	8,5	;volatile
  2879  0E64  2E68               	goto	u1344
  2880  0E65                     u1330:
  2881  0E65  1283               	bcf	3,5	;RP0=0, select bank0
  2882  0E66  1303               	bcf	3,6	;RP1=0, select bank0
  2883  0E67  1288               	bcf	8,5	;volatile
  2884  0E68                     u1344:
  2885                           
  2886                           ;/home/user/Escritorio/testVref_887/sources_orig/lcd_sintaxe_mikroc.c: 52:     RD6 = (n 
      +                          >> 2) & 0x01;
  2887  0E68  0871               	movf	Lcd_Write_Nibble@n,w
  2888  0E69  00F0               	movwf	??_Lcd_Write_Nibble
  2889  0E6A  3002               	movlw	2
  2890  0E6B                     u1355:
  2891  0E6B  1003               	clrc
  2892  0E6C  0CF0               	rrf	??_Lcd_Write_Nibble,f
  2893  0E6D  3EFF               	addlw	-1
  2894  0E6E  1D03               	skipz
  2895  0E6F  2E6B               	goto	u1355
  2896  0E70  1870               	btfsc	??_Lcd_Write_Nibble,0
  2897  0E71  2E73               	goto	u1361
  2898  0E72  2E77               	goto	u1360
  2899  0E73                     u1361:
  2900  0E73  1283               	bcf	3,5	;RP0=0, select bank0
  2901  0E74  1303               	bcf	3,6	;RP1=0, select bank0
  2902  0E75  1708               	bsf	8,6	;volatile
  2903  0E76  2E7A               	goto	u1374
  2904  0E77                     u1360:
  2905  0E77  1283               	bcf	3,5	;RP0=0, select bank0
  2906  0E78  1303               	bcf	3,6	;RP1=0, select bank0
  2907  0E79  1308               	bcf	8,6	;volatile
  2908  0E7A                     u1374:
  2909                           
  2910                           ;/home/user/Escritorio/testVref_887/sources_orig/lcd_sintaxe_mikroc.c: 53:     RD7 = (n 
      +                          >> 3) & 0x01;
  2911  0E7A  0871               	movf	Lcd_Write_Nibble@n,w
  2912  0E7B  00F0               	movwf	??_Lcd_Write_Nibble
  2913  0E7C  3003               	movlw	3
  2914  0E7D                     u1385:
  2915  0E7D  1003               	clrc
  2916  0E7E  0CF0               	rrf	??_Lcd_Write_Nibble,f
  2917  0E7F  3EFF               	addlw	-1
  2918  0E80  1D03               	skipz
  2919  0E81  2E7D               	goto	u1385
  2920  0E82  1870               	btfsc	??_Lcd_Write_Nibble,0
  2921  0E83  2E85               	goto	u1391
  2922  0E84  2E89               	goto	u1390
  2923  0E85                     u1391:
  2924  0E85  1283               	bcf	3,5	;RP0=0, select bank0
  2925  0E86  1303               	bcf	3,6	;RP1=0, select bank0
  2926  0E87  1788               	bsf	8,7	;volatile
  2927  0E88  2E8C               	goto	u1404
  2928  0E89                     u1390:
  2929  0E89  1283               	bcf	3,5	;RP0=0, select bank0
  2930  0E8A  1303               	bcf	3,6	;RP1=0, select bank0
  2931  0E8B  1388               	bcf	8,7	;volatile
  2932  0E8C                     u1404:
  2933  0E8C                     l1328:
  2934                           
  2935                           ;/home/user/Escritorio/testVref_887/sources_orig/lcd_sintaxe_mikroc.c: 56:     RD3 = 0;
  2936  0E8C  1188               	bcf	8,3	;volatile
  2937  0E8D                     l1330:
  2938                           
  2939                           ;/home/user/Escritorio/testVref_887/sources_orig/lcd_sintaxe_mikroc.c: 57:     _delay((u
      +                          nsigned long)((1)*(20000000UL/4000000.0)));
  2940  0E8D  2E8E               	nop2	;2 cycle nop
  2941  0E8E  2E8F               	nop2	;2 cycle nop
  2942  0E8F  0000               	nop
  2943  0E90                     l1332:
  2944                           
  2945                           ;/home/user/Escritorio/testVref_887/sources_orig/lcd_sintaxe_mikroc.c: 58:     RD3 = 1;
  2946  0E90  1283               	bcf	3,5	;RP0=0, select bank0
  2947  0E91  1303               	bcf	3,6	;RP1=0, select bank0
  2948  0E92  1588               	bsf	8,3	;volatile
  2949  0E93                     l1334:
  2950                           
  2951                           ;/home/user/Escritorio/testVref_887/sources_orig/lcd_sintaxe_mikroc.c: 59:     _delay((u
      +                          nsigned long)((1)*(20000000UL/4000000.0)));
  2952  0E93  2E94               	nop2	;2 cycle nop
  2953  0E94  2E95               	nop2	;2 cycle nop
  2954  0E95  0000               	nop
  2955  0E96                     l1336:
  2956                           
  2957                           ;/home/user/Escritorio/testVref_887/sources_orig/lcd_sintaxe_mikroc.c: 60:     RD3 = 0;
  2958  0E96  1283               	bcf	3,5	;RP0=0, select bank0
  2959  0E97  1303               	bcf	3,6	;RP1=0, select bank0
  2960  0E98  1188               	bcf	8,3	;volatile
  2961  0E99                     l1338:
  2962                           
  2963                           ;/home/user/Escritorio/testVref_887/sources_orig/lcd_sintaxe_mikroc.c: 61:     _delay((u
      +                          nsigned long)((100)*(20000000UL/4000000.0)));
  2964  0E99  30A6               	movlw	166
  2965  0E9A  00F0               	movwf	??_Lcd_Write_Nibble
  2966  0E9B                     u2677:
  2967  0E9B  0BF0               	decfsz	??_Lcd_Write_Nibble,f
  2968  0E9C  2E9B               	goto	u2677
  2969  0E9D  0000               	nop
  2970  0E9E                     l51:
  2971  0E9E  0008               	return
  2972  0E9F                     __end_of_Lcd_Write_Nibble:
  2973                           
  2974                           	psect	text9
  2975  008F                     __ptext9:	
  2976 ;; *************** function _ItoStr *****************
  2977 ;; Defined at:
  2978 ;;		line 119 in file "/home/user/Escritorio/testVref_887/sources_orig/testVref.c"
  2979 ;; Parameters:    Size  Location     Type
  2980 ;;  valor           2   37[BANK0 ] unsigned int 
  2981 ;;  tam             1   39[BANK0 ] unsigned char 
  2982 ;;  str             1   40[BANK0 ] PTR unsigned char 
  2983 ;;		 -> main@texto(6), 
  2984 ;;  volt            1   41[BANK0 ] unsigned char 
  2985 ;;  dot             1   42[BANK0 ] unsigned char 
  2986 ;; Auto vars:     Size  Location     Type
  2987 ;;  k               2   45[BANK0 ] int 
  2988 ;;  termo           2   48[BANK0 ] unsigned int 
  2989 ;;  pos             1   50[BANK0 ] unsigned char 
  2990 ;;  digito          1   47[BANK0 ] unsigned char 
  2991 ;; Return value:  Size  Location     Type
  2992 ;;                  1    wreg      void 
  2993 ;; Registers used:
  2994 ;;		wreg, fsr0l, fsr0h, status,2, status,0, btemp+1, pclath, cstack
  2995 ;; Tracked objects:
  2996 ;;		On entry : 0/0
  2997 ;;		On exit  : 0/0
  2998 ;;		Unchanged: 0/0
  2999 ;; Data sizes:     COMMON   BANK0   BANK1   BANK3   BANK2
  3000 ;;      Params:         0       6       0       0       0
  3001 ;;      Locals:         0       6       0       0       0
  3002 ;;      Temps:          0       2       0       0       0
  3003 ;;      Totals:         0      14       0       0       0
  3004 ;;Total ram usage:       14 bytes
  3005 ;; Hardware stack levels used: 1
  3006 ;; Hardware stack levels required when called: 1
  3007 ;; This function calls:
  3008 ;;		___fldiv
  3009 ;;		___fltol
  3010 ;;		___lwmod
  3011 ;;		___xxtofl
  3012 ;; This function is called by:
  3013 ;;		_main
  3014 ;; This function uses a non-reentrant model
  3015 ;;
  3016                           
  3017                           
  3018                           ;psect for function _ItoStr
  3019  008F                     _ItoStr:
  3020  008F                     l1668:	
  3021                           ;incstack = 0
  3022                           ; Regs used in _ItoStr: [wreg-fsr0h+status,2+status,0+btemp+1+pclath+cstack]
  3023                           
  3024                           
  3025                           ;/home/user/Escritorio/testVref_887/sources_orig/testVref.c: 120:     unsigned int termo
      +                          ;;/home/user/Escritorio/testVref_887/sources_orig/testVref.c: 121:     unsigned char dig
      +                          ito, pos;;/home/user/Escritorio/testVref_887/sources_orig/testVref.c: 122:     for(int k
      +                          =0;k<tam;k++) str[k] = ' ';
  3026  008F  1283               	bcf	3,5	;RP0=0, select bank0
  3027  0090  1303               	bcf	3,6	;RP1=0, select bank0
  3028  0091  01CD               	clrf	ItoStr@k
  3029  0092  01CE               	clrf	ItoStr@k+1
  3030  0093  28A6               	goto	l1674
  3031  0094                     l1670:
  3032  0094  3020               	movlw	32
  3033  0095  1283               	bcf	3,5	;RP0=0, select bank0
  3034  0096  1303               	bcf	3,6	;RP1=0, select bank0
  3035  0097  00CB               	movwf	??_ItoStr
  3036  0098  084D               	movf	ItoStr@k,w
  3037  0099  0748               	addwf	ItoStr@str,w
  3038  009A  00CC               	movwf	??_ItoStr+1
  3039  009B  084C               	movf	??_ItoStr+1,w
  3040  009C  0084               	movwf	4
  3041  009D  084B               	movf	??_ItoStr,w
  3042  009E  1383               	bcf	3,7	;select IRP bank0
  3043  009F  0080               	movwf	0
  3044  00A0                     l1672:
  3045  00A0  3001               	movlw	1
  3046  00A1  07CD               	addwf	ItoStr@k,f
  3047  00A2  1803               	skipnc
  3048  00A3  0ACE               	incf	ItoStr@k+1,f
  3049  00A4  3000               	movlw	0
  3050  00A5  07CE               	addwf	ItoStr@k+1,f
  3051  00A6                     l1674:
  3052  00A6  084E               	movf	ItoStr@k+1,w
  3053  00A7  3A80               	xorlw	128
  3054  00A8  00CB               	movwf	??_ItoStr
  3055  00A9  3080               	movlw	128
  3056  00AA  024B               	subwf	??_ItoStr,w
  3057  00AB  1D03               	skipz
  3058  00AC  28AF               	goto	u2095
  3059  00AD  0847               	movf	ItoStr@tam,w
  3060  00AE  024D               	subwf	ItoStr@k,w
  3061  00AF                     u2095:
  3062  00AF  1C03               	skipc
  3063  00B0  28B2               	goto	u2091
  3064  00B1  28B3               	goto	u2090
  3065  00B2                     u2091:
  3066  00B2  2894               	goto	l1670
  3067  00B3                     u2090:
  3068  00B3                     l1676:
  3069                           
  3070                           ;/home/user/Escritorio/testVref_887/sources_orig/testVref.c: 123:     pos = (tam - 1);
  3071  00B3  1283               	bcf	3,5	;RP0=0, select bank0
  3072  00B4  1303               	bcf	3,6	;RP1=0, select bank0
  3073  00B5  0847               	movf	ItoStr@tam,w
  3074  00B6  3EFF               	addlw	255
  3075  00B7  00CB               	movwf	??_ItoStr
  3076  00B8  084B               	movf	??_ItoStr,w
  3077  00B9  00D2               	movwf	ItoStr@pos
  3078  00BA                     l1678:
  3079                           
  3080                           ;/home/user/Escritorio/testVref_887/sources_orig/testVref.c: 124:     termo = valor;
  3081  00BA  0846               	movf	ItoStr@valor+1,w
  3082  00BB  00D1               	movwf	ItoStr@termo+1
  3083  00BC  0845               	movf	ItoStr@valor,w
  3084  00BD  00D0               	movwf	ItoStr@termo
  3085                           
  3086                           ;/home/user/Escritorio/testVref_887/sources_orig/testVref.c: 125:     while(termo >= 10)
      +                          {
  3087  00BE  292D               	goto	l1696
  3088  00BF                     l1680:
  3089                           
  3090                           ;/home/user/Escritorio/testVref_887/sources_orig/testVref.c: 126:         digito = (unsi
      +                          gned char) (termo % 10);
  3091  00BF  300A               	movlw	10
  3092  00C0  00F0               	movwf	___lwmod@divisor
  3093  00C1  3000               	movlw	0
  3094  00C2  00F1               	movwf	___lwmod@divisor+1
  3095  00C3  0851               	movf	ItoStr@termo+1,w
  3096  00C4  00F3               	movwf	___lwmod@dividend+1
  3097  00C5  0850               	movf	ItoStr@termo,w
  3098  00C6  00F2               	movwf	___lwmod@dividend
  3099  00C7  120A  158A  25BC  120A  118A  	fcall	___lwmod
  3100  00CC  0870               	movf	?___lwmod,w
  3101  00CD  1283               	bcf	3,5	;RP0=0, select bank0
  3102  00CE  1303               	bcf	3,6	;RP1=0, select bank0
  3103  00CF  00CB               	movwf	??_ItoStr
  3104  00D0  084B               	movf	??_ItoStr,w
  3105  00D1  00CF               	movwf	ItoStr@digito
  3106  00D2                     l1682:
  3107                           
  3108                           ;/home/user/Escritorio/testVref_887/sources_orig/testVref.c: 127:         str[pos] = 48 
      +                          + digito;
  3109  00D2  084F               	movf	ItoStr@digito,w
  3110  00D3  3E30               	addlw	48
  3111  00D4  00CB               	movwf	??_ItoStr
  3112  00D5  0852               	movf	ItoStr@pos,w
  3113  00D6  0748               	addwf	ItoStr@str,w
  3114  00D7  00CC               	movwf	??_ItoStr+1
  3115  00D8  084C               	movf	??_ItoStr+1,w
  3116  00D9  0084               	movwf	4
  3117  00DA  084B               	movf	??_ItoStr,w
  3118  00DB  1383               	bcf	3,7	;select IRP bank0
  3119  00DC  0080               	movwf	0
  3120  00DD                     l1684:
  3121                           
  3122                           ;/home/user/Escritorio/testVref_887/sources_orig/testVref.c: 128:         pos--;
  3123  00DD  3001               	movlw	1
  3124  00DE  02D2               	subwf	ItoStr@pos,f
  3125  00DF                     l1686:
  3126                           
  3127                           ;/home/user/Escritorio/testVref_887/sources_orig/testVref.c: 129:         if(pos==dot &&
      +                           volt){
  3128  00DF  0852               	movf	ItoStr@pos,w
  3129  00E0  064A               	xorwf	ItoStr@dot,w
  3130  00E1  1D03               	skipz
  3131  00E2  28E4               	goto	u2101
  3132  00E3  28E5               	goto	u2100
  3133  00E4                     u2101:
  3134  00E4  28F5               	goto	l1694
  3135  00E5                     u2100:
  3136  00E5                     l1688:
  3137  00E5  0849               	movf	ItoStr@volt,w
  3138  00E6  1903               	btfsc	3,2
  3139  00E7  28E9               	goto	u2111
  3140  00E8  28EA               	goto	u2110
  3141  00E9                     u2111:
  3142  00E9  28F5               	goto	l1694
  3143  00EA                     u2110:
  3144  00EA                     l1690:
  3145                           
  3146                           ;/home/user/Escritorio/testVref_887/sources_orig/testVref.c: 130:             str[pos]='
      +                          ,';
  3147  00EA  302C               	movlw	44
  3148  00EB  00CB               	movwf	??_ItoStr
  3149  00EC  0852               	movf	ItoStr@pos,w
  3150  00ED  0748               	addwf	ItoStr@str,w
  3151  00EE  00CC               	movwf	??_ItoStr+1
  3152  00EF  084C               	movf	??_ItoStr+1,w
  3153  00F0  0084               	movwf	4
  3154  00F1  084B               	movf	??_ItoStr,w
  3155  00F2  0080               	movwf	0
  3156  00F3                     l1692:
  3157                           
  3158                           ;/home/user/Escritorio/testVref_887/sources_orig/testVref.c: 131:             pos--;
  3159  00F3  3001               	movlw	1
  3160  00F4  02D2               	subwf	ItoStr@pos,f
  3161  00F5                     l1694:
  3162                           
  3163                           ;/home/user/Escritorio/testVref_887/sources_orig/testVref.c: 133:         termo = (unsig
      +                          ned int)(termo / 10.0);
  3164  00F5  0850               	movf	ItoStr@termo,w
  3165  00F6  00F0               	movwf	___xxtofl@val
  3166  00F7  0851               	movf	ItoStr@termo+1,w
  3167  00F8  00F1               	movwf	___xxtofl@val+1
  3168  00F9  01F2               	clrf	___xxtofl@val+2
  3169  00FA  01F3               	clrf	___xxtofl@val+3
  3170  00FB  3000               	movlw	0
  3171  00FC  120A  158A  2746  120A  118A  	fcall	___xxtofl
  3172  0101  0873               	movf	?___xxtofl+3,w
  3173  0102  1283               	bcf	3,5	;RP0=0, select bank0
  3174  0103  1303               	bcf	3,6	;RP1=0, select bank0
  3175  0104  00A7               	movwf	___fldiv@b+3
  3176  0105  0872               	movf	?___xxtofl+2,w
  3177  0106  00A6               	movwf	___fldiv@b+2
  3178  0107  0871               	movf	?___xxtofl+1,w
  3179  0108  00A5               	movwf	___fldiv@b+1
  3180  0109  0870               	movf	?___xxtofl,w
  3181  010A  00A4               	movwf	___fldiv@b
  3182  010B  3041               	movlw	65
  3183  010C  00A3               	movwf	___fldiv@a+3
  3184  010D  3020               	movlw	32
  3185  010E  00A2               	movwf	___fldiv@a+2
  3186  010F  3000               	movlw	0
  3187  0110  00A1               	movwf	___fldiv@a+1
  3188  0111  3000               	movlw	0
  3189  0112  00A0               	movwf	___fldiv@a
  3190  0113  120A  118A  2299  120A  118A  	fcall	___fldiv
  3191  0118  1283               	bcf	3,5	;RP0=0, select bank0
  3192  0119  1303               	bcf	3,6	;RP1=0, select bank0
  3193  011A  0823               	movf	?___fldiv+3,w
  3194  011B  00BD               	movwf	___fltol@f1+3
  3195  011C  0822               	movf	?___fldiv+2,w
  3196  011D  00BC               	movwf	___fltol@f1+2
  3197  011E  0821               	movf	?___fldiv+1,w
  3198  011F  00BB               	movwf	___fltol@f1+1
  3199  0120  0820               	movf	?___fldiv,w
  3200  0121  00BA               	movwf	___fltol@f1
  3201  0122  120A  118A  2013  120A  118A  	fcall	___fltol
  3202  0127  1283               	bcf	3,5	;RP0=0, select bank0
  3203  0128  1303               	bcf	3,6	;RP1=0, select bank0
  3204  0129  083B               	movf	?___fltol+1,w
  3205  012A  00D1               	movwf	ItoStr@termo+1
  3206  012B  083A               	movf	?___fltol,w
  3207  012C  00D0               	movwf	ItoStr@termo
  3208  012D                     l1696:
  3209                           
  3210                           ;/home/user/Escritorio/testVref_887/sources_orig/testVref.c: 125:     while(termo >= 10)
      +                          {
  3211  012D  3000               	movlw	0
  3212  012E  0251               	subwf	ItoStr@termo+1,w
  3213  012F  300A               	movlw	10
  3214  0130  1903               	skipnz
  3215  0131  0250               	subwf	ItoStr@termo,w
  3216  0132  1803               	skipnc
  3217  0133  2935               	goto	u2121
  3218  0134  2936               	goto	u2120
  3219  0135                     u2121:
  3220  0135  28BF               	goto	l1680
  3221  0136                     u2120:
  3222  0136                     l1698:
  3223                           
  3224                           ;/home/user/Escritorio/testVref_887/sources_orig/testVref.c: 135:     digito = (unsigned
      +                           char) (termo % 10);
  3225  0136  300A               	movlw	10
  3226  0137  00F0               	movwf	___lwmod@divisor
  3227  0138  3000               	movlw	0
  3228  0139  00F1               	movwf	___lwmod@divisor+1
  3229  013A  0851               	movf	ItoStr@termo+1,w
  3230  013B  00F3               	movwf	___lwmod@dividend+1
  3231  013C  0850               	movf	ItoStr@termo,w
  3232  013D  00F2               	movwf	___lwmod@dividend
  3233  013E  120A  158A  25BC  120A  118A  	fcall	___lwmod
  3234  0143  0870               	movf	?___lwmod,w
  3235  0144  1283               	bcf	3,5	;RP0=0, select bank0
  3236  0145  1303               	bcf	3,6	;RP1=0, select bank0
  3237  0146  00CB               	movwf	??_ItoStr
  3238  0147  084B               	movf	??_ItoStr,w
  3239  0148  00CF               	movwf	ItoStr@digito
  3240  0149                     l1700:
  3241                           
  3242                           ;/home/user/Escritorio/testVref_887/sources_orig/testVref.c: 136:     str[pos] = 48 + di
      +                          gito;
  3243  0149  084F               	movf	ItoStr@digito,w
  3244  014A  3E30               	addlw	48
  3245  014B  00CB               	movwf	??_ItoStr
  3246  014C  0852               	movf	ItoStr@pos,w
  3247  014D  0748               	addwf	ItoStr@str,w
  3248  014E  00CC               	movwf	??_ItoStr+1
  3249  014F  084C               	movf	??_ItoStr+1,w
  3250  0150  0084               	movwf	4
  3251  0151  084B               	movf	??_ItoStr,w
  3252  0152  1383               	bcf	3,7	;select IRP bank0
  3253  0153  0080               	movwf	0
  3254  0154                     l1702:
  3255                           
  3256                           ;/home/user/Escritorio/testVref_887/sources_orig/testVref.c: 137:     if(pos>dot && volt
      +                          ){
  3257  0154  0852               	movf	ItoStr@pos,w
  3258  0155  024A               	subwf	ItoStr@dot,w
  3259  0156  1803               	skipnc
  3260  0157  2959               	goto	u2131
  3261  0158  295A               	goto	u2130
  3262  0159                     u2131:
  3263  0159  2972               	goto	l119
  3264  015A                     u2130:
  3265  015A                     l1704:
  3266  015A  0849               	movf	ItoStr@volt,w
  3267  015B  1903               	btfsc	3,2
  3268  015C  295E               	goto	u2141
  3269  015D  295F               	goto	u2140
  3270  015E                     u2141:
  3271  015E  2972               	goto	l119
  3272  015F                     u2140:
  3273  015F                     l1706:
  3274                           
  3275                           ;/home/user/Escritorio/testVref_887/sources_orig/testVref.c: 138:         str[dot] = ','
      +                          ;
  3276  015F  302C               	movlw	44
  3277  0160  00CB               	movwf	??_ItoStr
  3278  0161  084A               	movf	ItoStr@dot,w
  3279  0162  0748               	addwf	ItoStr@str,w
  3280  0163  00CC               	movwf	??_ItoStr+1
  3281  0164  084C               	movf	??_ItoStr+1,w
  3282  0165  0084               	movwf	4
  3283  0166  084B               	movf	??_ItoStr,w
  3284  0167  0080               	movwf	0
  3285                           
  3286                           ;/home/user/Escritorio/testVref_887/sources_orig/testVref.c: 139:         str[dot-1] = '
      +                          0';
  3287  0168  3030               	movlw	48
  3288  0169  00CB               	movwf	??_ItoStr
  3289  016A  084A               	movf	ItoStr@dot,w
  3290  016B  0748               	addwf	ItoStr@str,w
  3291  016C  00CC               	movwf	??_ItoStr+1
  3292  016D  084C               	movf	??_ItoStr+1,w
  3293  016E  3EFF               	addlw	-1
  3294  016F  0084               	movwf	4
  3295  0170  084B               	movf	??_ItoStr,w
  3296  0171  0080               	movwf	0
  3297  0172                     l119:	
  3298                           ;/home/user/Escritorio/testVref_887/sources_orig/testVref.c: 140:     }
  3299                           
  3300                           
  3301                           ;/home/user/Escritorio/testVref_887/sources_orig/testVref.c: 141:     str[tam] = '\0';
  3302  0172  0847               	movf	ItoStr@tam,w
  3303  0173  0748               	addwf	ItoStr@str,w
  3304  0174  00CB               	movwf	??_ItoStr
  3305  0175  084B               	movf	??_ItoStr,w
  3306  0176  0084               	movwf	4
  3307  0177  0180               	clrf	0
  3308  0178                     l120:
  3309  0178  0008               	return
  3310  0179                     __end_of_ItoStr:
  3311                           
  3312                           	psect	text10
  3313  0F46                     __ptext10:	
  3314 ;; *************** function ___xxtofl *****************
  3315 ;; Defined at:
  3316 ;;		line 10 in file "/opt/microchip/xc8/v2.32/pic/sources/c90/common/xxtofl.c"
  3317 ;; Parameters:    Size  Location     Type
  3318 ;;  sign            1    wreg     unsigned char 
  3319 ;;  val             4    0[COMMON] long 
  3320 ;; Auto vars:     Size  Location     Type
  3321 ;;  sign            1    8[COMMON] unsigned char 
  3322 ;;  arg             4   10[COMMON] unsigned long 
  3323 ;;  exp             1    9[COMMON] unsigned char 
  3324 ;; Return value:  Size  Location     Type
  3325 ;;                  4    0[COMMON] unsigned char 
  3326 ;; Registers used:
  3327 ;;		wreg, status,2, status,0
  3328 ;; Tracked objects:
  3329 ;;		On entry : 0/0
  3330 ;;		On exit  : 0/0
  3331 ;;		Unchanged: 0/0
  3332 ;; Data sizes:     COMMON   BANK0   BANK1   BANK3   BANK2
  3333 ;;      Params:         4       0       0       0       0
  3334 ;;      Locals:         6       0       0       0       0
  3335 ;;      Temps:          4       0       0       0       0
  3336 ;;      Totals:        14       0       0       0       0
  3337 ;;Total ram usage:       14 bytes
  3338 ;; Hardware stack levels used: 1
  3339 ;; This function calls:
  3340 ;;		Nothing
  3341 ;; This function is called by:
  3342 ;;		_main
  3343 ;;		_ItoStr
  3344 ;; This function uses a non-reentrant model
  3345 ;;
  3346                           
  3347                           
  3348                           ;psect for function ___xxtofl
  3349  0F46                     ___xxtofl:
  3350                           
  3351                           ;incstack = 0
  3352                           ; Regs used in ___xxtofl: [wreg+status,2+status,0]
  3353                           ;___xxtofl@sign stored from wreg
  3354  0F46  00F8               	movwf	___xxtofl@sign
  3355  0F47                     l1590:
  3356  0F47  0878               	movf	___xxtofl@sign,w
  3357  0F48  1903               	btfsc	3,2
  3358  0F49  2F4B               	goto	u1941
  3359  0F4A  2F4C               	goto	u1940
  3360  0F4B                     u1941:
  3361  0F4B  2F60               	goto	l1596
  3362  0F4C                     u1940:
  3363  0F4C                     l1592:
  3364  0F4C  1FF3               	btfss	___xxtofl@val+3,7
  3365  0F4D  2F4F               	goto	u1951
  3366  0F4E  2F50               	goto	u1950
  3367  0F4F                     u1951:
  3368  0F4F  2F60               	goto	l1596
  3369  0F50                     u1950:
  3370  0F50                     l1594:
  3371  0F50  0970               	comf	___xxtofl@val,w
  3372  0F51  00FA               	movwf	___xxtofl@arg
  3373  0F52  0971               	comf	___xxtofl@val+1,w
  3374  0F53  00FB               	movwf	___xxtofl@arg+1
  3375  0F54  0972               	comf	___xxtofl@val+2,w
  3376  0F55  00FC               	movwf	___xxtofl@arg+2
  3377  0F56  0973               	comf	___xxtofl@val+3,w
  3378  0F57  00FD               	movwf	___xxtofl@arg+3
  3379  0F58  0AFA               	incf	___xxtofl@arg,f
  3380  0F59  1903               	skipnz
  3381  0F5A  0AFB               	incf	___xxtofl@arg+1,f
  3382  0F5B  1903               	skipnz
  3383  0F5C  0AFC               	incf	___xxtofl@arg+2,f
  3384  0F5D  1903               	skipnz
  3385  0F5E  0AFD               	incf	___xxtofl@arg+3,f
  3386  0F5F  2F68               	goto	l639
  3387  0F60                     l1596:
  3388  0F60  0873               	movf	___xxtofl@val+3,w
  3389  0F61  00FD               	movwf	___xxtofl@arg+3
  3390  0F62  0872               	movf	___xxtofl@val+2,w
  3391  0F63  00FC               	movwf	___xxtofl@arg+2
  3392  0F64  0871               	movf	___xxtofl@val+1,w
  3393  0F65  00FB               	movwf	___xxtofl@arg+1
  3394  0F66  0870               	movf	___xxtofl@val,w
  3395  0F67  00FA               	movwf	___xxtofl@arg
  3396  0F68                     l639:
  3397  0F68  0873               	movf	___xxtofl@val+3,w
  3398  0F69  0472               	iorwf	___xxtofl@val+2,w
  3399  0F6A  0471               	iorwf	___xxtofl@val+1,w
  3400  0F6B  0470               	iorwf	___xxtofl@val,w
  3401  0F6C  1D03               	skipz
  3402  0F6D  2F6F               	goto	u1961
  3403  0F6E  2F70               	goto	u1960
  3404  0F6F                     u1961:
  3405  0F6F  2F79               	goto	l1602
  3406  0F70                     u1960:
  3407  0F70                     l1598:
  3408  0F70  3000               	movlw	0
  3409  0F71  00F3               	movwf	?___xxtofl+3
  3410  0F72  3000               	movlw	0
  3411  0F73  00F2               	movwf	?___xxtofl+2
  3412  0F74  3000               	movlw	0
  3413  0F75  00F1               	movwf	?___xxtofl+1
  3414  0F76  3000               	movlw	0
  3415  0F77  00F0               	movwf	?___xxtofl
  3416  0F78  2FFF               	goto	l641
  3417  0F79                     l1602:
  3418  0F79  3096               	movlw	150
  3419  0F7A  00F4               	movwf	??___xxtofl
  3420  0F7B  0874               	movf	??___xxtofl,w
  3421  0F7C  00F9               	movwf	___xxtofl@exp
  3422  0F7D  2F8B               	goto	l1606
  3423  0F7E                     l1604:
  3424  0F7E  3001               	movlw	1
  3425  0F7F  00F4               	movwf	??___xxtofl
  3426  0F80  0874               	movf	??___xxtofl,w
  3427  0F81  07F9               	addwf	___xxtofl@exp,f
  3428  0F82  3001               	movlw	1
  3429  0F83                     u1975:
  3430  0F83  1003               	clrc
  3431  0F84  0CFD               	rrf	___xxtofl@arg+3,f
  3432  0F85  0CFC               	rrf	___xxtofl@arg+2,f
  3433  0F86  0CFB               	rrf	___xxtofl@arg+1,f
  3434  0F87  0CFA               	rrf	___xxtofl@arg,f
  3435  0F88  3EFF               	addlw	-1
  3436  0F89  1D03               	skipz
  3437  0F8A  2F83               	goto	u1975
  3438  0F8B                     l1606:
  3439  0F8B  30FE               	movlw	254
  3440  0F8C  057D               	andwf	___xxtofl@arg+3,w
  3441  0F8D  1D03               	btfss	3,2
  3442  0F8E  2F90               	goto	u1981
  3443  0F8F  2F91               	goto	u1980
  3444  0F90                     u1981:
  3445  0F90  2F7E               	goto	l1604
  3446  0F91                     u1980:
  3447  0F91  2FAD               	goto	l645
  3448  0F92                     l1608:
  3449  0F92  3001               	movlw	1
  3450  0F93  00F4               	movwf	??___xxtofl
  3451  0F94  0874               	movf	??___xxtofl,w
  3452  0F95  07F9               	addwf	___xxtofl@exp,f
  3453  0F96                     l1610:
  3454  0F96  3001               	movlw	1
  3455  0F97  07FA               	addwf	___xxtofl@arg,f
  3456  0F98  3000               	movlw	0
  3457  0F99  1803               	skipnc
  3458  0F9A  3001               	movlw	1
  3459  0F9B  07FB               	addwf	___xxtofl@arg+1,f
  3460  0F9C  3000               	movlw	0
  3461  0F9D  1803               	skipnc
  3462  0F9E  3001               	movlw	1
  3463  0F9F  07FC               	addwf	___xxtofl@arg+2,f
  3464  0FA0  3000               	movlw	0
  3465  0FA1  1803               	skipnc
  3466  0FA2  3001               	movlw	1
  3467  0FA3  07FD               	addwf	___xxtofl@arg+3,f
  3468  0FA4                     l1612:
  3469  0FA4  3001               	movlw	1
  3470  0FA5                     u1995:
  3471  0FA5  1003               	clrc
  3472  0FA6  0CFD               	rrf	___xxtofl@arg+3,f
  3473  0FA7  0CFC               	rrf	___xxtofl@arg+2,f
  3474  0FA8  0CFB               	rrf	___xxtofl@arg+1,f
  3475  0FA9  0CFA               	rrf	___xxtofl@arg,f
  3476  0FAA  3EFF               	addlw	-1
  3477  0FAB  1D03               	skipz
  3478  0FAC  2FA5               	goto	u1995
  3479  0FAD                     l645:
  3480  0FAD  30FF               	movlw	255
  3481  0FAE  057D               	andwf	___xxtofl@arg+3,w
  3482  0FAF  1D03               	btfss	3,2
  3483  0FB0  2FB2               	goto	u2001
  3484  0FB1  2FB3               	goto	u2000
  3485  0FB2                     u2001:
  3486  0FB2  2F92               	goto	l1608
  3487  0FB3                     u2000:
  3488  0FB3  2FBF               	goto	l1616
  3489  0FB4                     l1614:
  3490  0FB4  3001               	movlw	1
  3491  0FB5  02F9               	subwf	___xxtofl@exp,f
  3492  0FB6  3001               	movlw	1
  3493  0FB7  00F4               	movwf	??___xxtofl
  3494  0FB8                     u2015:
  3495  0FB8  1003               	clrc
  3496  0FB9  0DFA               	rlf	___xxtofl@arg,f
  3497  0FBA  0DFB               	rlf	___xxtofl@arg+1,f
  3498  0FBB  0DFC               	rlf	___xxtofl@arg+2,f
  3499  0FBC  0DFD               	rlf	___xxtofl@arg+3,f
  3500  0FBD  0BF4               	decfsz	??___xxtofl,f
  3501  0FBE  2FB8               	goto	u2015
  3502  0FBF                     l1616:
  3503  0FBF  1BFC               	btfsc	___xxtofl@arg+2,7
  3504  0FC0  2FC2               	goto	u2021
  3505  0FC1  2FC3               	goto	u2020
  3506  0FC2                     u2021:
  3507  0FC2  2FC9               	goto	l652
  3508  0FC3                     u2020:
  3509  0FC3                     l1618:
  3510  0FC3  3002               	movlw	2
  3511  0FC4  0279               	subwf	___xxtofl@exp,w
  3512  0FC5  1803               	skipnc
  3513  0FC6  2FC8               	goto	u2031
  3514  0FC7  2FC9               	goto	u2030
  3515  0FC8                     u2031:
  3516  0FC8  2FB4               	goto	l1614
  3517  0FC9                     u2030:
  3518  0FC9                     l652:
  3519  0FC9  1879               	btfsc	___xxtofl@exp,0
  3520  0FCA  2FCC               	goto	u2041
  3521  0FCB  2FCD               	goto	u2040
  3522  0FCC                     u2041:
  3523  0FCC  2FD5               	goto	l653
  3524  0FCD                     u2040:
  3525  0FCD                     l1620:
  3526  0FCD  30FF               	movlw	255
  3527  0FCE  05FA               	andwf	___xxtofl@arg,f
  3528  0FCF  30FF               	movlw	255
  3529  0FD0  05FB               	andwf	___xxtofl@arg+1,f
  3530  0FD1  307F               	movlw	127
  3531  0FD2  05FC               	andwf	___xxtofl@arg+2,f
  3532  0FD3  30FF               	movlw	255
  3533  0FD4  05FD               	andwf	___xxtofl@arg+3,f
  3534  0FD5                     l653:
  3535  0FD5  1003               	clrc
  3536  0FD6  0CF9               	rrf	___xxtofl@exp,f
  3537  0FD7                     l1622:
  3538  0FD7  0879               	movf	___xxtofl@exp,w
  3539  0FD8  00F4               	movwf	??___xxtofl
  3540  0FD9  01F5               	clrf	??___xxtofl+1
  3541  0FDA  01F6               	clrf	??___xxtofl+2
  3542  0FDB  01F7               	clrf	??___xxtofl+3
  3543  0FDC  3018               	movlw	24
  3544  0FDD                     u2055:
  3545  0FDD  1003               	clrc
  3546  0FDE  0DF4               	rlf	??___xxtofl,f
  3547  0FDF  0DF5               	rlf	??___xxtofl+1,f
  3548  0FE0  0DF6               	rlf	??___xxtofl+2,f
  3549  0FE1  0DF7               	rlf	??___xxtofl+3,f
  3550  0FE2                     u2050:
  3551  0FE2  3EFF               	addlw	-1
  3552  0FE3  1D03               	skipz
  3553  0FE4  2FDD               	goto	u2055
  3554  0FE5  0874               	movf	??___xxtofl,w
  3555  0FE6  04FA               	iorwf	___xxtofl@arg,f
  3556  0FE7  0875               	movf	??___xxtofl+1,w
  3557  0FE8  04FB               	iorwf	___xxtofl@arg+1,f
  3558  0FE9  0876               	movf	??___xxtofl+2,w
  3559  0FEA  04FC               	iorwf	___xxtofl@arg+2,f
  3560  0FEB  0877               	movf	??___xxtofl+3,w
  3561  0FEC  04FD               	iorwf	___xxtofl@arg+3,f
  3562  0FED                     l1624:
  3563  0FED  0878               	movf	___xxtofl@sign,w
  3564  0FEE  1903               	btfsc	3,2
  3565  0FEF  2FF1               	goto	u2061
  3566  0FF0  2FF2               	goto	u2060
  3567  0FF1                     u2061:
  3568  0FF1  2FF7               	goto	l1630
  3569  0FF2                     u2060:
  3570  0FF2                     l1626:
  3571  0FF2  1FF3               	btfss	___xxtofl@val+3,7
  3572  0FF3  2FF5               	goto	u2071
  3573  0FF4  2FF6               	goto	u2070
  3574  0FF5                     u2071:
  3575  0FF5  2FF7               	goto	l1630
  3576  0FF6                     u2070:
  3577  0FF6                     l1628:
  3578  0FF6  17FD               	bsf	___xxtofl@arg+3,7
  3579  0FF7                     l1630:
  3580  0FF7  087D               	movf	___xxtofl@arg+3,w
  3581  0FF8  00F3               	movwf	?___xxtofl+3
  3582  0FF9  087C               	movf	___xxtofl@arg+2,w
  3583  0FFA  00F2               	movwf	?___xxtofl+2
  3584  0FFB  087B               	movf	___xxtofl@arg+1,w
  3585  0FFC  00F1               	movwf	?___xxtofl+1
  3586  0FFD  087A               	movf	___xxtofl@arg,w
  3587  0FFE  00F0               	movwf	?___xxtofl
  3588  0FFF                     l641:
  3589  0FFF  0008               	return
  3590  1000                     __end_of___xxtofl:
  3591                           
  3592                           	psect	text11
  3593  0DBC                     __ptext11:	
  3594 ;; *************** function ___lwmod *****************
  3595 ;; Defined at:
  3596 ;;		line 5 in file "/opt/microchip/xc8/v2.32/pic/sources/c90/common/lwmod.c"
  3597 ;; Parameters:    Size  Location     Type
  3598 ;;  divisor         2    0[COMMON] unsigned int 
  3599 ;;  dividend        2    2[COMMON] unsigned int 
  3600 ;; Auto vars:     Size  Location     Type
  3601 ;;  counter         1    5[COMMON] unsigned char 
  3602 ;; Return value:  Size  Location     Type
  3603 ;;                  2    0[COMMON] unsigned int 
  3604 ;; Registers used:
  3605 ;;		wreg, status,2, status,0
  3606 ;; Tracked objects:
  3607 ;;		On entry : 0/0
  3608 ;;		On exit  : 0/0
  3609 ;;		Unchanged: 0/0
  3610 ;; Data sizes:     COMMON   BANK0   BANK1   BANK3   BANK2
  3611 ;;      Params:         4       0       0       0       0
  3612 ;;      Locals:         1       0       0       0       0
  3613 ;;      Temps:          1       0       0       0       0
  3614 ;;      Totals:         6       0       0       0       0
  3615 ;;Total ram usage:        6 bytes
  3616 ;; Hardware stack levels used: 1
  3617 ;; This function calls:
  3618 ;;		Nothing
  3619 ;; This function is called by:
  3620 ;;		_ItoStr
  3621 ;; This function uses a non-reentrant model
  3622 ;;
  3623                           
  3624                           
  3625                           ;psect for function ___lwmod
  3626  0DBC                     ___lwmod:
  3627  0DBC                     l1412:	
  3628                           ;incstack = 0
  3629                           ; Regs used in ___lwmod: [wreg+status,2+status,0]
  3630                           
  3631  0DBC  0870               	movf	___lwmod@divisor,w
  3632  0DBD  0471               	iorwf	___lwmod@divisor+1,w
  3633  0DBE  1903               	btfsc	3,2
  3634  0DBF  2DC1               	goto	u1561
  3635  0DC0  2DC2               	goto	u1560
  3636  0DC1                     u1561:
  3637  0DC1  2DF1               	goto	l1430
  3638  0DC2                     u1560:
  3639  0DC2                     l1414:
  3640  0DC2  01F5               	clrf	___lwmod@counter
  3641  0DC3  0AF5               	incf	___lwmod@counter,f
  3642  0DC4  2DD0               	goto	l1420
  3643  0DC5                     l1416:
  3644  0DC5  3001               	movlw	1
  3645  0DC6                     u1575:
  3646  0DC6  1003               	clrc
  3647  0DC7  0DF0               	rlf	___lwmod@divisor,f
  3648  0DC8  0DF1               	rlf	___lwmod@divisor+1,f
  3649  0DC9  3EFF               	addlw	-1
  3650  0DCA  1D03               	skipz
  3651  0DCB  2DC6               	goto	u1575
  3652  0DCC                     l1418:
  3653  0DCC  3001               	movlw	1
  3654  0DCD  00F4               	movwf	??___lwmod
  3655  0DCE  0874               	movf	??___lwmod,w
  3656  0DCF  07F5               	addwf	___lwmod@counter,f
  3657  0DD0                     l1420:
  3658  0DD0  1FF1               	btfss	___lwmod@divisor+1,7
  3659  0DD1  2DD3               	goto	u1581
  3660  0DD2  2DD4               	goto	u1580
  3661  0DD3                     u1581:
  3662  0DD3  2DC5               	goto	l1416
  3663  0DD4                     u1580:
  3664  0DD4                     l1422:
  3665  0DD4  0871               	movf	___lwmod@divisor+1,w
  3666  0DD5  0273               	subwf	___lwmod@dividend+1,w
  3667  0DD6  1D03               	skipz
  3668  0DD7  2DDA               	goto	u1595
  3669  0DD8  0870               	movf	___lwmod@divisor,w
  3670  0DD9  0272               	subwf	___lwmod@dividend,w
  3671  0DDA                     u1595:
  3672  0DDA  1C03               	skipc
  3673  0DDB  2DDD               	goto	u1591
  3674  0DDC  2DDE               	goto	u1590
  3675  0DDD                     u1591:
  3676  0DDD  2DE4               	goto	l1426
  3677  0DDE                     u1590:
  3678  0DDE                     l1424:
  3679  0DDE  0870               	movf	___lwmod@divisor,w
  3680  0DDF  02F2               	subwf	___lwmod@dividend,f
  3681  0DE0  0871               	movf	___lwmod@divisor+1,w
  3682  0DE1  1C03               	skipc
  3683  0DE2  03F3               	decf	___lwmod@dividend+1,f
  3684  0DE3  02F3               	subwf	___lwmod@dividend+1,f
  3685  0DE4                     l1426:
  3686  0DE4  3001               	movlw	1
  3687  0DE5                     u1605:
  3688  0DE5  1003               	clrc
  3689  0DE6  0CF1               	rrf	___lwmod@divisor+1,f
  3690  0DE7  0CF0               	rrf	___lwmod@divisor,f
  3691  0DE8  3EFF               	addlw	-1
  3692  0DE9  1D03               	skipz
  3693  0DEA  2DE5               	goto	u1605
  3694  0DEB                     l1428:
  3695  0DEB  3001               	movlw	1
  3696  0DEC  02F5               	subwf	___lwmod@counter,f
  3697  0DED  1D03               	btfss	3,2
  3698  0DEE  2DF0               	goto	u1611
  3699  0DEF  2DF1               	goto	u1610
  3700  0DF0                     u1611:
  3701  0DF0  2DD4               	goto	l1422
  3702  0DF1                     u1610:
  3703  0DF1                     l1430:
  3704  0DF1  0873               	movf	___lwmod@dividend+1,w
  3705  0DF2  00F1               	movwf	?___lwmod+1
  3706  0DF3  0872               	movf	___lwmod@dividend,w
  3707  0DF4  00F0               	movwf	?___lwmod
  3708  0DF5                     l488:
  3709  0DF5  0008               	return
  3710  0DF6                     __end_of___lwmod:
  3711                           
  3712                           	psect	text12
  3713  0013                     __ptext12:	
  3714 ;; *************** function ___fltol *****************
  3715 ;; Defined at:
  3716 ;;		line 43 in file "/opt/microchip/xc8/v2.32/pic/sources/c90/common/fltol.c"
  3717 ;; Parameters:    Size  Location     Type
  3718 ;;  f1              4   26[BANK0 ] unsigned int 
  3719 ;; Auto vars:     Size  Location     Type
  3720 ;;  exp1            1   36[BANK0 ] unsigned char 
  3721 ;;  sign1           1   35[BANK0 ] unsigned char 
  3722 ;; Return value:  Size  Location     Type
  3723 ;;                  4   26[BANK0 ] long 
  3724 ;; Registers used:
  3725 ;;		wreg, status,2, status,0
  3726 ;; Tracked objects:
  3727 ;;		On entry : 0/0
  3728 ;;		On exit  : 0/0
  3729 ;;		Unchanged: 0/0
  3730 ;; Data sizes:     COMMON   BANK0   BANK1   BANK3   BANK2
  3731 ;;      Params:         0       4       0       0       0
  3732 ;;      Locals:         0       2       0       0       0
  3733 ;;      Temps:          0       5       0       0       0
  3734 ;;      Totals:         0      11       0       0       0
  3735 ;;Total ram usage:       11 bytes
  3736 ;; Hardware stack levels used: 1
  3737 ;; This function calls:
  3738 ;;		Nothing
  3739 ;; This function is called by:
  3740 ;;		_main
  3741 ;;		_ItoStr
  3742 ;; This function uses a non-reentrant model
  3743 ;;
  3744                           
  3745                           
  3746                           ;psect for function ___fltol
  3747  0013                     ___fltol:
  3748  0013                     l1376:	
  3749                           ;incstack = 0
  3750                           ; Regs used in ___fltol: [wreg+status,2+status,0]
  3751                           
  3752  0013  1003               	clrc
  3753  0014  1283               	bcf	3,5	;RP0=0, select bank0
  3754  0015  1303               	bcf	3,6	;RP1=0, select bank0
  3755  0016  0D3C               	rlf	___fltol@f1+2,w
  3756  0017  0D3D               	rlf	___fltol@f1+3,w
  3757  0018  00BE               	movwf	??___fltol
  3758  0019  083E               	movf	??___fltol,w
  3759  001A  00C4               	movwf	___fltol@exp1
  3760  001B  0844               	movf	___fltol@exp1,w
  3761  001C  1D03               	btfss	3,2
  3762  001D  281F               	goto	u1461
  3763  001E  2820               	goto	u1460
  3764  001F                     u1461:
  3765  001F  2829               	goto	l1382
  3766  0020                     u1460:
  3767  0020                     l1378:
  3768  0020  3000               	movlw	0
  3769  0021  00BD               	movwf	?___fltol+3
  3770  0022  3000               	movlw	0
  3771  0023  00BC               	movwf	?___fltol+2
  3772  0024  3000               	movlw	0
  3773  0025  00BB               	movwf	?___fltol+1
  3774  0026  3000               	movlw	0
  3775  0027  00BA               	movwf	?___fltol
  3776  0028  288E               	goto	l392
  3777  0029                     l1382:
  3778  0029  083A               	movf	___fltol@f1,w
  3779  002A  00BE               	movwf	??___fltol
  3780  002B  083B               	movf	___fltol@f1+1,w
  3781  002C  00BF               	movwf	??___fltol+1
  3782  002D  083C               	movf	___fltol@f1+2,w
  3783  002E  00C0               	movwf	??___fltol+2
  3784  002F  083D               	movf	___fltol@f1+3,w
  3785  0030  00C1               	movwf	??___fltol+3
  3786  0031  301F               	movlw	31
  3787  0032                     u1475:
  3788  0032  1003               	clrc
  3789  0033  0CC1               	rrf	??___fltol+3,f
  3790  0034  0CC0               	rrf	??___fltol+2,f
  3791  0035  0CBF               	rrf	??___fltol+1,f
  3792  0036  0CBE               	rrf	??___fltol,f
  3793  0037                     u1470:
  3794  0037  3EFF               	addlw	-1
  3795  0038  1D03               	skipz
  3796  0039  2832               	goto	u1475
  3797  003A  083E               	movf	??___fltol,w
  3798  003B  00C2               	movwf	??___fltol+4
  3799  003C  0842               	movf	??___fltol+4,w
  3800  003D  00C3               	movwf	___fltol@sign1
  3801  003E                     l1384:
  3802  003E  17BC               	bsf	___fltol@f1+2,7
  3803  003F                     l1386:
  3804  003F  30FF               	movlw	255
  3805  0040  05BA               	andwf	___fltol@f1,f
  3806  0041  30FF               	movlw	255
  3807  0042  05BB               	andwf	___fltol@f1+1,f
  3808  0043  30FF               	movlw	255
  3809  0044  05BC               	andwf	___fltol@f1+2,f
  3810  0045  3000               	movlw	0
  3811  0046  05BD               	andwf	___fltol@f1+3,f
  3812  0047                     l1388:
  3813  0047  3096               	movlw	150
  3814  0048  02C4               	subwf	___fltol@exp1,f
  3815  0049                     l1390:
  3816  0049  1FC4               	btfss	___fltol@exp1,7
  3817  004A  284C               	goto	u1481
  3818  004B  284D               	goto	u1480
  3819  004C                     u1481:
  3820  004C  2867               	goto	l1400
  3821  004D                     u1480:
  3822  004D                     l1392:
  3823  004D  0844               	movf	___fltol@exp1,w
  3824  004E  3A80               	xorlw	128
  3825  004F  3E97               	addlw	151
  3826  0050  1803               	skipnc
  3827  0051  2853               	goto	u1491
  3828  0052  2854               	goto	u1490
  3829  0053                     u1491:
  3830  0053  2855               	goto	l1398
  3831  0054                     u1490:
  3832  0054  2820               	goto	l1378
  3833  0055                     l1398:
  3834  0055  3001               	movlw	1
  3835  0056                     u1505:
  3836  0056  1003               	clrc
  3837  0057  0CBD               	rrf	___fltol@f1+3,f
  3838  0058  0CBC               	rrf	___fltol@f1+2,f
  3839  0059  0CBB               	rrf	___fltol@f1+1,f
  3840  005A  0CBA               	rrf	___fltol@f1,f
  3841  005B  3EFF               	addlw	-1
  3842  005C  1D03               	skipz
  3843  005D  2856               	goto	u1505
  3844  005E  3001               	movlw	1
  3845  005F  00BE               	movwf	??___fltol
  3846  0060  083E               	movf	??___fltol,w
  3847  0061  07C4               	addwf	___fltol@exp1,f
  3848  0062  1D03               	btfss	3,2
  3849  0063  2865               	goto	u1511
  3850  0064  2866               	goto	u1510
  3851  0065                     u1511:
  3852  0065  2855               	goto	l1398
  3853  0066                     u1510:
  3854  0066  287E               	goto	l1408
  3855  0067                     l1400:
  3856  0067  3020               	movlw	32
  3857  0068  0244               	subwf	___fltol@exp1,w
  3858  0069  1C03               	skipc
  3859  006A  286C               	goto	u1521
  3860  006B  286D               	goto	u1520
  3861  006C                     u1521:
  3862  006C  2879               	goto	l399
  3863  006D                     u1520:
  3864  006D  2820               	goto	l1378
  3865  006E                     l1406:
  3866  006E  3001               	movlw	1
  3867  006F  00BE               	movwf	??___fltol
  3868  0070                     u1535:
  3869  0070  1003               	clrc
  3870  0071  0DBA               	rlf	___fltol@f1,f
  3871  0072  0DBB               	rlf	___fltol@f1+1,f
  3872  0073  0DBC               	rlf	___fltol@f1+2,f
  3873  0074  0DBD               	rlf	___fltol@f1+3,f
  3874  0075  0BBE               	decfsz	??___fltol,f
  3875  0076  2870               	goto	u1535
  3876  0077  3001               	movlw	1
  3877  0078  02C4               	subwf	___fltol@exp1,f
  3878  0079                     l399:
  3879  0079  0844               	movf	___fltol@exp1,w
  3880  007A  1D03               	btfss	3,2
  3881  007B  287D               	goto	u1541
  3882  007C  287E               	goto	u1540
  3883  007D                     u1541:
  3884  007D  286E               	goto	l1406
  3885  007E                     u1540:
  3886  007E                     l1408:
  3887  007E  0843               	movf	___fltol@sign1,w
  3888  007F  1903               	btfsc	3,2
  3889  0080  2882               	goto	u1551
  3890  0081  2883               	goto	u1550
  3891  0082                     u1551:
  3892  0082  288E               	goto	l402
  3893  0083                     u1550:
  3894  0083                     l1410:
  3895  0083  09BA               	comf	___fltol@f1,f
  3896  0084  09BB               	comf	___fltol@f1+1,f
  3897  0085  09BC               	comf	___fltol@f1+2,f
  3898  0086  09BD               	comf	___fltol@f1+3,f
  3899  0087  0ABA               	incf	___fltol@f1,f
  3900  0088  1903               	skipnz
  3901  0089  0ABB               	incf	___fltol@f1+1,f
  3902  008A  1903               	skipnz
  3903  008B  0ABC               	incf	___fltol@f1+2,f
  3904  008C  1903               	skipnz
  3905  008D  0ABD               	incf	___fltol@f1+3,f
  3906  008E                     l402:
  3907  008E                     l392:
  3908  008E  0008               	return
  3909  008F                     __end_of___fltol:
  3910                           
  3911                           	psect	text13
  3912  0299                     __ptext13:	
  3913 ;; *************** function ___fldiv *****************
  3914 ;; Defined at:
  3915 ;;		line 8 in file "/opt/microchip/xc8/v2.32/pic/sources/c90/common/sprcdiv.c"
  3916 ;; Parameters:    Size  Location     Type
  3917 ;;  a               4    0[BANK0 ] long 
  3918 ;;  b               4    4[BANK0 ] long 
  3919 ;; Auto vars:     Size  Location     Type
  3920 ;;  grs             4   20[BANK0 ] unsigned long 
  3921 ;;  rem             4   13[BANK0 ] unsigned long 
  3922 ;;  new_exp         2   18[BANK0 ] int 
  3923 ;;  aexp            1   25[BANK0 ] unsigned char 
  3924 ;;  bexp            1   24[BANK0 ] unsigned char 
  3925 ;;  sign            1   17[BANK0 ] unsigned char 
  3926 ;; Return value:  Size  Location     Type
  3927 ;;                  4    0[BANK0 ] unsigned char 
  3928 ;; Registers used:
  3929 ;;		wreg, status,2, status,0, btemp+1
  3930 ;; Tracked objects:
  3931 ;;		On entry : 0/0
  3932 ;;		On exit  : 0/0
  3933 ;;		Unchanged: 0/0
  3934 ;; Data sizes:     COMMON   BANK0   BANK1   BANK3   BANK2
  3935 ;;      Params:         0       8       0       0       0
  3936 ;;      Locals:         0      13       0       0       0
  3937 ;;      Temps:          0       5       0       0       0
  3938 ;;      Totals:         0      26       0       0       0
  3939 ;;Total ram usage:       26 bytes
  3940 ;; Hardware stack levels used: 1
  3941 ;; This function calls:
  3942 ;;		Nothing
  3943 ;; This function is called by:
  3944 ;;		_ItoStr
  3945 ;; This function uses a non-reentrant model
  3946 ;;
  3947                           
  3948                           
  3949                           ;psect for function ___fldiv
  3950  0299                     ___fldiv:
  3951  0299                     l1434:	
  3952                           ;incstack = 0
  3953                           ; Regs used in ___fldiv: [wreg+status,2+status,0+btemp+1]
  3954                           
  3955  0299  1283               	bcf	3,5	;RP0=0, select bank0
  3956  029A  1303               	bcf	3,6	;RP1=0, select bank0
  3957  029B  0827               	movf	___fldiv@b+3,w
  3958  029C  3980               	andlw	128
  3959  029D  00A8               	movwf	??___fldiv
  3960  029E  0828               	movf	??___fldiv,w
  3961  029F  00B1               	movwf	___fldiv@sign
  3962  02A0                     l1436:
  3963  02A0  0827               	movf	___fldiv@b+3,w
  3964  02A1  00A8               	movwf	??___fldiv
  3965  02A2  0728               	addwf	??___fldiv,w
  3966  02A3  00A9               	movwf	??___fldiv+1
  3967  02A4  0829               	movf	??___fldiv+1,w
  3968  02A5  00B8               	movwf	___fldiv@bexp
  3969  02A6                     l1438:
  3970  02A6  1FA6               	btfss	___fldiv@b+2,7
  3971  02A7  2AA9               	goto	u1621
  3972  02A8  2AAA               	goto	u1620
  3973  02A9                     u1621:
  3974  02A9  2AAB               	goto	l1442
  3975  02AA                     u1620:
  3976  02AA                     l1440:
  3977  02AA  1438               	bsf	___fldiv@bexp,0
  3978  02AB                     l1442:
  3979  02AB  0838               	movf	___fldiv@bexp,w
  3980  02AC  1903               	btfsc	3,2
  3981  02AD  2AAF               	goto	u1631
  3982  02AE  2AB0               	goto	u1630
  3983  02AF                     u1631:
  3984  02AF  2AC0               	goto	l1452
  3985  02B0                     u1630:
  3986  02B0                     l1444:
  3987  02B0  0A38               	incf	___fldiv@bexp,w
  3988  02B1  1D03               	btfss	3,2
  3989  02B2  2AB4               	goto	u1641
  3990  02B3  2AB5               	goto	u1640
  3991  02B4                     u1641:
  3992  02B4  2ABD               	goto	l1448
  3993  02B5                     u1640:
  3994  02B5                     l1446:
  3995  02B5  3000               	movlw	0
  3996  02B6  00A7               	movwf	___fldiv@b+3
  3997  02B7  3000               	movlw	0
  3998  02B8  00A6               	movwf	___fldiv@b+2
  3999  02B9  3000               	movlw	0
  4000  02BA  00A5               	movwf	___fldiv@b+1
  4001  02BB  3000               	movlw	0
  4002  02BC  00A4               	movwf	___fldiv@b
  4003  02BD                     l1448:
  4004  02BD  17A6               	bsf	___fldiv@b+2,7
  4005  02BE                     l1450:
  4006  02BE  01A7               	clrf	___fldiv@b+3
  4007  02BF  2AC8               	goto	l1454
  4008  02C0                     l1452:
  4009  02C0  3000               	movlw	0
  4010  02C1  00A7               	movwf	___fldiv@b+3
  4011  02C2  3000               	movlw	0
  4012  02C3  00A6               	movwf	___fldiv@b+2
  4013  02C4  3000               	movlw	0
  4014  02C5  00A5               	movwf	___fldiv@b+1
  4015  02C6  3000               	movlw	0
  4016  02C7  00A4               	movwf	___fldiv@b
  4017  02C8                     l1454:
  4018  02C8  0823               	movf	___fldiv@a+3,w
  4019  02C9  3980               	andlw	128
  4020  02CA  00A8               	movwf	??___fldiv
  4021  02CB  0828               	movf	??___fldiv,w
  4022  02CC  06B1               	xorwf	___fldiv@sign,f
  4023  02CD                     l1456:
  4024  02CD  0823               	movf	___fldiv@a+3,w
  4025  02CE  00A8               	movwf	??___fldiv
  4026  02CF  0728               	addwf	??___fldiv,w
  4027  02D0  00A9               	movwf	??___fldiv+1
  4028  02D1  0829               	movf	??___fldiv+1,w
  4029  02D2  00B9               	movwf	___fldiv@aexp
  4030  02D3                     l1458:
  4031  02D3  1FA2               	btfss	___fldiv@a+2,7
  4032  02D4  2AD6               	goto	u1651
  4033  02D5  2AD7               	goto	u1650
  4034  02D6                     u1651:
  4035  02D6  2AD8               	goto	l1462
  4036  02D7                     u1650:
  4037  02D7                     l1460:
  4038  02D7  1439               	bsf	___fldiv@aexp,0
  4039  02D8                     l1462:
  4040  02D8  0839               	movf	___fldiv@aexp,w
  4041  02D9  1903               	btfsc	3,2
  4042  02DA  2ADC               	goto	u1661
  4043  02DB  2ADD               	goto	u1660
  4044  02DC                     u1661:
  4045  02DC  2AED               	goto	l1472
  4046  02DD                     u1660:
  4047  02DD                     l1464:
  4048  02DD  0A39               	incf	___fldiv@aexp,w
  4049  02DE  1D03               	btfss	3,2
  4050  02DF  2AE1               	goto	u1671
  4051  02E0  2AE2               	goto	u1670
  4052  02E1                     u1671:
  4053  02E1  2AEA               	goto	l1468
  4054  02E2                     u1670:
  4055  02E2                     l1466:
  4056  02E2  3000               	movlw	0
  4057  02E3  00A3               	movwf	___fldiv@a+3
  4058  02E4  3000               	movlw	0
  4059  02E5  00A2               	movwf	___fldiv@a+2
  4060  02E6  3000               	movlw	0
  4061  02E7  00A1               	movwf	___fldiv@a+1
  4062  02E8  3000               	movlw	0
  4063  02E9  00A0               	movwf	___fldiv@a
  4064  02EA                     l1468:
  4065  02EA  17A2               	bsf	___fldiv@a+2,7
  4066  02EB                     l1470:
  4067  02EB  01A3               	clrf	___fldiv@a+3
  4068  02EC  2AF5               	goto	l555
  4069  02ED                     l1472:
  4070  02ED  3000               	movlw	0
  4071  02EE  00A3               	movwf	___fldiv@a+3
  4072  02EF  3000               	movlw	0
  4073  02F0  00A2               	movwf	___fldiv@a+2
  4074  02F1  3000               	movlw	0
  4075  02F2  00A1               	movwf	___fldiv@a+1
  4076  02F3  3000               	movlw	0
  4077  02F4  00A0               	movwf	___fldiv@a
  4078  02F5                     l555:
  4079  02F5  0823               	movf	___fldiv@a+3,w
  4080  02F6  0422               	iorwf	___fldiv@a+2,w
  4081  02F7  0421               	iorwf	___fldiv@a+1,w
  4082  02F8  0420               	iorwf	___fldiv@a,w
  4083  02F9  1D03               	skipz
  4084  02FA  2AFC               	goto	u1681
  4085  02FB  2AFD               	goto	u1680
  4086  02FC                     u1681:
  4087  02FC  2B16               	goto	l1482
  4088  02FD                     u1680:
  4089  02FD                     l1474:
  4090  02FD  3000               	movlw	0
  4091  02FE  00A7               	movwf	___fldiv@b+3
  4092  02FF  3000               	movlw	0
  4093  0300  00A6               	movwf	___fldiv@b+2
  4094  0301  3000               	movlw	0
  4095  0302  00A5               	movwf	___fldiv@b+1
  4096  0303  3000               	movlw	0
  4097  0304  00A4               	movwf	___fldiv@b
  4098  0305  3080               	movlw	128
  4099  0306  04A6               	iorwf	___fldiv@b+2,f
  4100  0307  307F               	movlw	127
  4101  0308  04A7               	iorwf	___fldiv@b+3,f
  4102  0309                     l1476:
  4103  0309  0831               	movf	___fldiv@sign,w
  4104  030A  00A8               	movwf	??___fldiv
  4105  030B  0828               	movf	??___fldiv,w
  4106  030C  04A7               	iorwf	___fldiv@b+3,f
  4107  030D                     l1478:
  4108  030D  0827               	movf	___fldiv@b+3,w
  4109  030E  00A3               	movwf	?___fldiv+3
  4110  030F  0826               	movf	___fldiv@b+2,w
  4111  0310  00A2               	movwf	?___fldiv+2
  4112  0311  0825               	movf	___fldiv@b+1,w
  4113  0312  00A1               	movwf	?___fldiv+1
  4114  0313  0824               	movf	___fldiv@b,w
  4115  0314  00A0               	movwf	?___fldiv
  4116  0315  2C75               	goto	l557
  4117  0316                     l1482:
  4118  0316  0838               	movf	___fldiv@bexp,w
  4119  0317  1D03               	btfss	3,2
  4120  0318  2B1A               	goto	u1691
  4121  0319  2B1B               	goto	u1690
  4122  031A                     u1691:
  4123  031A  2B24               	goto	l1488
  4124  031B                     u1690:
  4125  031B                     l1484:
  4126  031B  3000               	movlw	0
  4127  031C  00A3               	movwf	?___fldiv+3
  4128  031D  3000               	movlw	0
  4129  031E  00A2               	movwf	?___fldiv+2
  4130  031F  3000               	movlw	0
  4131  0320  00A1               	movwf	?___fldiv+1
  4132  0321  3000               	movlw	0
  4133  0322  00A0               	movwf	?___fldiv
  4134  0323  2C75               	goto	l557
  4135  0324                     l1488:
  4136  0324  0838               	movf	___fldiv@bexp,w
  4137  0325  00A8               	movwf	??___fldiv
  4138  0326  01A9               	clrf	??___fldiv+1
  4139  0327  0829               	movf	??___fldiv+1,w
  4140  0328  00AB               	movwf	??___fldiv+3
  4141  0329  0839               	movf	___fldiv@aexp,w
  4142  032A  0228               	subwf	??___fldiv,w
  4143  032B  00AA               	movwf	??___fldiv+2
  4144  032C  1C03               	skipc
  4145  032D  03AB               	decf	??___fldiv+3,f
  4146  032E  082A               	movf	??___fldiv+2,w
  4147  032F  3E7F               	addlw	127
  4148  0330  00B2               	movwf	___fldiv@new_exp
  4149  0331  082B               	movf	??___fldiv+3,w
  4150  0332  1803               	skipnc
  4151  0333  3E01               	addlw	1
  4152  0334  3E00               	addlw	0
  4153  0335  00B3               	movwf	___fldiv@new_exp+1
  4154  0336                     l1490:
  4155  0336  0827               	movf	___fldiv@b+3,w
  4156  0337  00B0               	movwf	___fldiv@rem+3
  4157  0338  0826               	movf	___fldiv@b+2,w
  4158  0339  00AF               	movwf	___fldiv@rem+2
  4159  033A  0825               	movf	___fldiv@b+1,w
  4160  033B  00AE               	movwf	___fldiv@rem+1
  4161  033C  0824               	movf	___fldiv@b,w
  4162  033D  00AD               	movwf	___fldiv@rem
  4163  033E                     l1492:
  4164  033E  3000               	movlw	0
  4165  033F  00A7               	movwf	___fldiv@b+3
  4166  0340  3000               	movlw	0
  4167  0341  00A6               	movwf	___fldiv@b+2
  4168  0342  3000               	movlw	0
  4169  0343  00A5               	movwf	___fldiv@b+1
  4170  0344  3000               	movlw	0
  4171  0345  00A4               	movwf	___fldiv@b
  4172  0346                     l1494:
  4173  0346  3000               	movlw	0
  4174  0347  00B7               	movwf	___fldiv@grs+3
  4175  0348  3000               	movlw	0
  4176  0349  00B6               	movwf	___fldiv@grs+2
  4177  034A  3000               	movlw	0
  4178  034B  00B5               	movwf	___fldiv@grs+1
  4179  034C  3000               	movlw	0
  4180  034D  00B4               	movwf	___fldiv@grs
  4181  034E                     l1496:
  4182  034E  01B9               	clrf	___fldiv@aexp
  4183  034F  2B9A               	goto	l1516
  4184  0350                     l1498:
  4185  0350  0839               	movf	___fldiv@aexp,w
  4186  0351  1903               	btfsc	3,2
  4187  0352  2B54               	goto	u1701
  4188  0353  2B55               	goto	u1700
  4189  0354                     u1701:
  4190  0354  2B75               	goto	l1508
  4191  0355                     u1700:
  4192  0355                     l1500:
  4193  0355  3001               	movlw	1
  4194  0356  00A8               	movwf	??___fldiv
  4195  0357                     u1715:
  4196  0357  1003               	clrc
  4197  0358  0DAD               	rlf	___fldiv@rem,f
  4198  0359  0DAE               	rlf	___fldiv@rem+1,f
  4199  035A  0DAF               	rlf	___fldiv@rem+2,f
  4200  035B  0DB0               	rlf	___fldiv@rem+3,f
  4201  035C  0BA8               	decfsz	??___fldiv,f
  4202  035D  2B57               	goto	u1715
  4203  035E  3001               	movlw	1
  4204  035F  00A8               	movwf	??___fldiv
  4205  0360                     u1725:
  4206  0360  1003               	clrc
  4207  0361  0DA4               	rlf	___fldiv@b,f
  4208  0362  0DA5               	rlf	___fldiv@b+1,f
  4209  0363  0DA6               	rlf	___fldiv@b+2,f
  4210  0364  0DA7               	rlf	___fldiv@b+3,f
  4211  0365  0BA8               	decfsz	??___fldiv,f
  4212  0366  2B60               	goto	u1725
  4213  0367                     l1502:
  4214  0367  1FB7               	btfss	___fldiv@grs+3,7
  4215  0368  2B6A               	goto	u1731
  4216  0369  2B6B               	goto	u1730
  4217  036A                     u1731:
  4218  036A  2B6C               	goto	l1506
  4219  036B                     u1730:
  4220  036B                     l1504:
  4221  036B  1424               	bsf	___fldiv@b,0
  4222  036C                     l1506:
  4223  036C  3001               	movlw	1
  4224  036D  00A8               	movwf	??___fldiv
  4225  036E                     u1745:
  4226  036E  1003               	clrc
  4227  036F  0DB4               	rlf	___fldiv@grs,f
  4228  0370  0DB5               	rlf	___fldiv@grs+1,f
  4229  0371  0DB6               	rlf	___fldiv@grs+2,f
  4230  0372  0DB7               	rlf	___fldiv@grs+3,f
  4231  0373  0BA8               	decfsz	??___fldiv,f
  4232  0374  2B6E               	goto	u1745
  4233  0375                     l1508:
  4234  0375  0823               	movf	___fldiv@a+3,w
  4235  0376  0230               	subwf	___fldiv@rem+3,w
  4236  0377  1D03               	skipz
  4237  0378  2B83               	goto	u1755
  4238  0379  0822               	movf	___fldiv@a+2,w
  4239  037A  022F               	subwf	___fldiv@rem+2,w
  4240  037B  1D03               	skipz
  4241  037C  2B83               	goto	u1755
  4242  037D  0821               	movf	___fldiv@a+1,w
  4243  037E  022E               	subwf	___fldiv@rem+1,w
  4244  037F  1D03               	skipz
  4245  0380  2B83               	goto	u1755
  4246  0381  0820               	movf	___fldiv@a,w
  4247  0382  022D               	subwf	___fldiv@rem,w
  4248  0383                     u1755:
  4249  0383  1C03               	skipc
  4250  0384  2B86               	goto	u1751
  4251  0385  2B87               	goto	u1750
  4252  0386                     u1751:
  4253  0386  2B96               	goto	l1514
  4254  0387                     u1750:
  4255  0387                     l1510:
  4256  0387  1737               	bsf	___fldiv@grs+3,6
  4257  0388                     l1512:
  4258  0388  0820               	movf	___fldiv@a,w
  4259  0389  02AD               	subwf	___fldiv@rem,f
  4260  038A  0821               	movf	___fldiv@a+1,w
  4261  038B  1C03               	skipc
  4262  038C  0F21               	incfsz	___fldiv@a+1,w
  4263  038D  02AE               	subwf	___fldiv@rem+1,f
  4264  038E  0822               	movf	___fldiv@a+2,w
  4265  038F  1C03               	skipc
  4266  0390  0F22               	incfsz	___fldiv@a+2,w
  4267  0391  02AF               	subwf	___fldiv@rem+2,f
  4268  0392  0823               	movf	___fldiv@a+3,w
  4269  0393  1C03               	skipc
  4270  0394  0F23               	incfsz	___fldiv@a+3,w
  4271  0395  02B0               	subwf	___fldiv@rem+3,f
  4272  0396                     l1514:
  4273  0396  3001               	movlw	1
  4274  0397  00A8               	movwf	??___fldiv
  4275  0398  0828               	movf	??___fldiv,w
  4276  0399  07B9               	addwf	___fldiv@aexp,f
  4277  039A                     l1516:
  4278  039A  301A               	movlw	26
  4279  039B  0239               	subwf	___fldiv@aexp,w
  4280  039C  1C03               	skipc
  4281  039D  2B9F               	goto	u1761
  4282  039E  2BA0               	goto	u1760
  4283  039F                     u1761:
  4284  039F  2B50               	goto	l1498
  4285  03A0                     u1760:
  4286  03A0                     l1518:
  4287  03A0  0830               	movf	___fldiv@rem+3,w
  4288  03A1  042F               	iorwf	___fldiv@rem+2,w
  4289  03A2  042E               	iorwf	___fldiv@rem+1,w
  4290  03A3  042D               	iorwf	___fldiv@rem,w
  4291  03A4  1903               	skipnz
  4292  03A5  2BA7               	goto	u1771
  4293  03A6  2BA8               	goto	u1770
  4294  03A7                     u1771:
  4295  03A7  2BC7               	goto	l1532
  4296  03A8                     u1770:
  4297  03A8                     l1520:
  4298  03A8  1434               	bsf	___fldiv@grs,0
  4299  03A9  2BC7               	goto	l1532
  4300  03AA                     l1522:---------------------------------938
  4301  03AA  3001               	movlw	1
  4302  03AB  00A8               	movwf	??___fldiv               40
  4303  03AC                     u1785:---------------------------------940
  4304  03AC  1003               	clrc
  4305  03AD  0DA4               	rlf	___fldiv@b,f                 36
  4306  03AE  0DA5               	rlf	___fldiv@b+1,f
  4307  03AF  0DA6               	rlf	___fldiv@b+2,f
  4308  03B0  0DA7               	rlf	___fldiv@b+3,f
  4309  03B1  0BA8               	decfsz	??___fldiv,f
  4310  03B2  2BAC               	goto	u1785
  4311  03B3                     l1524:---------------------------------947
  4312  03B3  1FB7               	btfss	___fldiv@grs+3,7
  4313  03B4  2BB6               	goto	u1791
  4314  03B5  2BB7               	goto	u1790
  4315  03B6                     u1791:
  4316  03B6  2BB8               	goto	l1528
  4317  03B7                     u1790:
  4318  03B7                     l1526:
  4319  03B7  1424               	bsf	___fldiv@b,0
  4320  03B8                     l1528:---------------------------------952
  4321  03B8  3001               	movlw	1
  4322  03B9  00A8               	movwf	??___fldiv
  4323  03BA                     u1805:
  4324  03BA  1003               	clrc
  4325  03BB  0DB4               	rlf	___fldiv@grs,f
  4326  03BC  0DB5               	rlf	___fldiv@grs+1,f
  4327  03BD  0DB6               	rlf	___fldiv@grs+2,f
  4328  03BE  0DB7               	rlf	___fldiv@grs+3,f
  4329  03BF  0BA8               	decfsz	??___fldiv,f
  4330  03C0  2BBA               	goto	u1805
  4331  03C1                     l1530:---------------------------------961
  4332  03C1  30FF               	movlw	255
  4333  03C2  07B2               	addwf	___fldiv@new_exp,f        50 -= 1
  4334  03C3  1803               	skipnc
  4335  03C4  0AB3               	incf	___fldiv@new_exp+1,f
  4336  03C5  30FF               	movlw	255
  4337  03C6  07B3               	addwf	___fldiv@new_exp+1,f
  4338  03C7                     l1532:---------------------------------967
  4339  03C7  1FA6               	btfss	___fldiv@b+2,7
  4340  03C8  2BCA               	goto	u1811
  4341  03C9  2BCB               	goto	u1810
  4342  03CA                     u1811: --------------------------------970
  4343  03CA  2BAA               	goto	l1522
  4344  03CB                     u1810:
  4345  03CB                     l1534:
  4346  03CB  01B9               	clrf	___fldiv@aexp
  4347  03CC                     l1536:
  4348  03CC  1FB7               	btfss	___fldiv@grs+3,7
  4349  03CD  2BCF               	goto	u1821
  4350  03CE  2BD0               	goto	u1820
  4351  03CF                     u1821:
  4352  03CF  2BEC               	goto	l1544
  4353  03D0                     u1820:
  4354  03D0                     l1538:
  4355  03D0  30FF               	movlw	255
  4356  03D1  0534               	andwf	___fldiv@grs,w
  4357  03D2  00A8               	movwf	??___fldiv
  4358  03D3  30FF               	movlw	255
  4359  03D4  0535               	andwf	___fldiv@grs+1,w
  4360  03D5  00A9               	movwf	??___fldiv+1
  4361  03D6  30FF               	movlw	255
  4362  03D7  0536               	andwf	___fldiv@grs+2,w
  4363  03D8  00AA               	movwf	??___fldiv+2
  4364  03D9  307F               	movlw	127
  4365  03DA  0537               	andwf	___fldiv@grs+3,w
  4366  03DB  00AB               	movwf	??___fldiv+3
  4367  03DC  082B               	movf	??___fldiv+3,w
  4368  03DD  042A               	iorwf	??___fldiv+2,w
  4369  03DE  0429               	iorwf	??___fldiv+1,w
  4370  03DF  0428               	iorwf	??___fldiv,w
  4371  03E0  1903               	skipnz
  4372  03E1  2BE3               	goto	u1831
  4373  03E2  2BE4               	goto	u1830
  4374  03E3                     u1831:
  4375  03E3  2BE7               	goto	l571
  4376  03E4                     u1830:
  4377  03E4                     l1540:
  4378  03E4  01B9               	clrf	___fldiv@aexp
  4379  03E5  0AB9               	incf	___fldiv@aexp,f
  4380  03E6  2BEC               	goto	l1544
  4381  03E7                     l571:
  4382  03E7  1C24               	btfss	___fldiv@b,0
  4383  03E8  2BEA               	goto	u1841
  4384  03E9  2BEB               	goto	u1840
  4385  03EA                     u1841:
  4386  03EA  2BEC               	goto	l1544
  4387  03EB                     u1840:
  4388  03EB  2BE4               	goto	l1540
  4389  03EC                     l1544:
  4390  03EC  0839               	movf	___fldiv@aexp,w
  4391  03ED  1903               	btfsc	3,2
  4392  03EE  2BF0               	goto	u1851
  4393  03EF  2BF1               	goto	u1850
  4394  03F0                     u1851:
  4395  03F0  2C22               	goto	l1554
  4396  03F1                     u1850:
  4397  03F1                     l1546:
  4398  03F1  3001               	movlw	1
  4399  03F2  07A4               	addwf	___fldiv@b,f
  4400  03F3  3000               	movlw	0
  4401  03F4  1803               	skipnc
  4402  03F5  3001               	movlw	1
  4403  03F6  07A5               	addwf	___fldiv@b+1,f
  4404  03F7  3000               	movlw	0
  4405  03F8  1803               	skipnc
  4406  03F9  3001               	movlw	1
  4407  03FA  07A6               	addwf	___fldiv@b+2,f
  4408  03FB  3000               	movlw	0
  4409  03FC  1803               	skipnc
  4410  03FD  3001               	movlw	1
  4411  03FE  07A7               	addwf	___fldiv@b+3,f
  4412  03FF                     l1548:
  4413  03FF  1C27               	btfss	___fldiv@b+3,0
  4414  0400  2C02               	goto	u1861
  4415  0401  2C03               	goto	u1860
  4416  0402                     u1861:
  4417  0402  2C22               	goto	l1554
  4418  0403                     u1860:
  4419  0403                     l1550:
  4420  0403  0824               	movf	___fldiv@b,w
  4421  0404  00A8               	movwf	??___fldiv
  4422  0405  0825               	movf	___fldiv@b+1,w
  4423  0406  00A9               	movwf	??___fldiv+1
  4424  0407  0826               	movf	___fldiv@b+2,w
  4425  0408  00AA               	movwf	??___fldiv+2
  4426  0409  0827               	movf	___fldiv@b+3,w
  4427  040A  00AB               	movwf	??___fldiv+3
  4428  040B  3001               	movlw	1
  4429  040C  00AC               	movwf	??___fldiv+4
  4430  040D                     u1875:
  4431  040D  0D2B               	rlf	??___fldiv+3,w
  4432  040E  0CAB               	rrf	??___fldiv+3,f
  4433  040F  0CAA               	rrf	??___fldiv+2,f
  4434  0410  0CA9               	rrf	??___fldiv+1,f
  4435  0411  0CA8               	rrf	??___fldiv,f
  4436  0412                     u1870:
  4437  0412  0BAC               	decfsz	??___fldiv+4,f
  4438  0413  2C0D               	goto	u1875
  4439  0414  082B               	movf	??___fldiv+3,w
  4440  0415  00A7               	movwf	___fldiv@b+3
  4441  0416  082A               	movf	??___fldiv+2,w
  4442  0417  00A6               	movwf	___fldiv@b+2
  4443  0418  0829               	movf	??___fldiv+1,w
  4444  0419  00A5               	movwf	___fldiv@b+1
  4445  041A  0828               	movf	??___fldiv,w
  4446  041B  00A4               	movwf	___fldiv@b
  4447  041C                     l1552:
  4448  041C  3001               	movlw	1
  4449  041D  07B2               	addwf	___fldiv@new_exp,f
  4450  041E  1803               	skipnc
  4451  041F  0AB3               	incf	___fldiv@new_exp+1,f
  4452  0420  3000               	movlw	0
  4453  0421  07B3               	addwf	___fldiv@new_exp+1,f
  4454  0422                     l1554:
  4455  0422  0833               	movf	___fldiv@new_exp+1,w
  4456  0423  3A80               	xorlw	128
  4457  0424  00FF               	movwf	btemp+1
  4458  0425  3080               	movlw	128
  4459  0426  027F               	subwf	btemp+1,w
  4460  0427  1D03               	skipz
  4461  0428  2C2B               	goto	u1885
  4462  0429  30FF               	movlw	255
  4463  042A  0232               	subwf	___fldiv@new_exp,w
  4464  042B                     u1885:
  4465  042B  1C03               	skipc
  4466  042C  2C2E               	goto	u1881
  4467  042D  2C2F               	goto	u1880
  4468  042E                     u1881:
  4469  042E  2C3D               	goto	l1558
  4470  042F                     u1880:
  4471  042F                     l1556:
  4472  042F  30FF               	movlw	255
  4473  0430  1283               	bcf	3,5	;RP0=0, select bank0
  4474  0431  1303               	bcf	3,6	;RP1=0, select bank0
  4475  0432  00B2               	movwf	___fldiv@new_exp
  4476  0433  3000               	movlw	0
  4477  0434  00B3               	movwf	___fldiv@new_exp+1
  4478  0435  3000               	movlw	0
  4479  0436  00A7               	movwf	___fldiv@b+3
  4480  0437  3000               	movlw	0
  4481  0438  00A6               	movwf	___fldiv@b+2
  4482  0439  3000               	movlw	0
  4483  043A  00A5               	movwf	___fldiv@b+1
  4484  043B  3000               	movlw	0
  4485  043C  00A4               	movwf	___fldiv@b
  4486  043D                     l1558:
  4487  043D  1283               	bcf	3,5	;RP0=0, select bank0
  4488  043E  1303               	bcf	3,6	;RP1=0, select bank0
  4489  043F  0833               	movf	___fldiv@new_exp+1,w
  4490  0440  3A80               	xorlw	128
  4491  0441  00FF               	movwf	btemp+1
  4492  0442  3080               	movlw	128
  4493  0443  027F               	subwf	btemp+1,w
  4494  0444  1D03               	skipz
  4495  0445  2C48               	goto	u1895
  4496  0446  3001               	movlw	1
  4497  0447  0232               	subwf	___fldiv@new_exp,w
  4498  0448                     u1895:
  4499  0448  1803               	skipnc
  4500  0449  2C4B               	goto	u1891
  4501  044A  2C4C               	goto	u1890
  4502  044B                     u1891:
  4503  044B  2C59               	goto	l577
  4504  044C                     u1890:
  4505  044C                     l1560:
  4506  044C  1283               	bcf	3,5	;RP0=0, select bank0
  4507  044D  1303               	bcf	3,6	;RP1=0, select bank0
  4508  044E  01B2               	clrf	___fldiv@new_exp
  4509  044F  01B3               	clrf	___fldiv@new_exp+1
  4510  0450                     l1562:
  4511  0450  3000               	movlw	0
  4512  0451  00A7               	movwf	___fldiv@b+3
  4513  0452  3000               	movlw	0
  4514  0453  00A6               	movwf	___fldiv@b+2
  4515  0454  3000               	movlw	0
  4516  0455  00A5               	movwf	___fldiv@b+1
  4517  0456  3000               	movlw	0
  4518  0457  00A4               	movwf	___fldiv@b
  4519  0458                     l1564:
  4520  0458  01B1               	clrf	___fldiv@sign
  4521  0459                     l577:
  4522  0459  1283               	bcf	3,5	;RP0=0, select bank0
  4523  045A  1303               	bcf	3,6	;RP1=0, select bank0
  4524  045B  0832               	movf	___fldiv@new_exp,w
  4525  045C  00A8               	movwf	??___fldiv
  4526  045D  0828               	movf	??___fldiv,w
  4527  045E  00B8               	movwf	___fldiv@bexp
  4528  045F                     l1566:
  4529  045F  1C38               	btfss	___fldiv@bexp,0
  4530  0460  2C62               	goto	u1901
  4531  0461  2C63               	goto	u1900
  4532  0462                     u1901:
  4533  0462  2C65               	goto	l1570
  4534  0463                     u1900:
  4535  0463                     l1568:
  4536  0463  17A6               	bsf	___fldiv@b+2,7
  4537  0464  2C69               	goto	l579
  4538  0465                     l1570:
  4539  0465  307F               	movlw	127
  4540  0466  00A8               	movwf	??___fldiv
  4541  0467  0828               	movf	??___fldiv,w
  4542  0468  05A6               	andwf	___fldiv@b+2,f
  4543  0469                     l579:
  4544  0469  0838               	movf	___fldiv@bexp,w
  4545  046A  00A8               	movwf	??___fldiv
  4546  046B  1003               	clrc
  4547  046C  0C28               	rrf	??___fldiv,w
  4548  046D  00A9               	movwf	??___fldiv+1
  4549  046E  0829               	movf	??___fldiv+1,w
  4550  046F  00A7               	movwf	___fldiv@b+3
  4551  0470  0831               	movf	___fldiv@sign,w
  4552  0471  00A8               	movwf	??___fldiv
  4553  0472  0828               	movf	??___fldiv,w
  4554  0473  04A7               	iorwf	___fldiv@b+3,f
  4555  0474  2B0D               	goto	l1478
  4556  0475                     l557:
  4557  0475  0008               	return
  4558  0476                     __end_of___fldiv:
  4559  007E                     btemp	set	126	;btemp
  4560  007E                     wtemp0	set	126
  4561                           
  4562                           	psect	config
  4563                           
  4564                           ;Config register CONFIG1 @ 0x2007
  4565                           ;	Oscillator Selection bits
  4566                           ;	FOSC = HS, HS oscillator: High-speed crystal/resonator on RA6/OSC2/CLKOUT and RA7/OSC1
      +                          /CLKIN
  4567                           ;	Watchdog Timer Enable bit
  4568                           ;	WDTE = OFF, WDT disabled and can be enabled by SWDTEN bit of the WDTCON register
  4569                           ;	Power-up Timer Enable bit
  4570                           ;	PWRTE = ON, PWRT enabled
  4571                           ;	RE3/MCLR pin function select bit
  4572                           ;	MCLRE = ON, RE3/MCLR pin function is MCLR
  4573                           ;	Code Protection bit
  4574                           ;	CP = OFF, Program memory code protection is disabled
  4575                           ;	Data Code Protection bit
  4576                           ;	CPD = OFF, Data memory code protection is disabled
  4577                           ;	Brown Out Reset Selection bits
  4578                           ;	BOREN = OFF, BOR disabled
  4579                           ;	Internal External Switchover bit
  4580                           ;	IESO = OFF, Internal/External Switchover mode is disabled
  4581                           ;	Fail-Safe Clock Monitor Enabled bit
  4582                           ;	FCMEN = OFF, Fail-Safe Clock Monitor is disabled
  4583                           ;	Low Voltage Programming Enable bit
  4584                           ;	LVP = OFF, RB3 pin has digital I/O, HV on MCLR must be used for programming
  4585                           ;	In-Circuit Debugger Mode bit
  4586                           ;	DEBUG = 0x1, unprogrammed default
  4587  2007                     	org	8199
  4588  2007  20E2               	dw	8418
  4589                           
  4590                           ;Config register CONFIG2 @ 0x2008
  4591                           ;	Brown-out Reset Selection bit
  4592                           ;	BOR4V = BOR40V, Brown-out Reset set to 4.0V
  4593                           ;	Flash Program Memory Self Write Enable bits
  4594                           ;	WRT = OFF, Write protection off
  4595  2008                     	org	8200
  4596  2008  3FFF               	dw	16383

Data Sizes:
    Strings     18
    Constant    0
    Data        6
    BSS         0
    Persistent  0
    Stack       0

Auto Spaces:
    Space          Size  Autos    Used
    COMMON           14     14      14
    BANK0            80     68      75
    BANK1            80      0       0
    BANK3            96      0       0
    BANK2            96      0       0

Pointer List with Targets:

    ItoStr@str	PTR unsigned char  size(1) Largest target is 6
		 -> main@texto(BANK0[6]), 

    Lcd_Write@Dt_Str	PTR unsigned char  size(2) Largest target is 9
		 -> STR_2(CODE[9]), STR_1(CODE[9]), main@texto(BANK0[6]), 

    Lcd_Print@Dt_Str	PTR unsigned char  size(2) Largest target is 9
		 -> STR_2(CODE[9]), STR_1(CODE[9]), main@texto(BANK0[6]), 


Critical Paths under _main in COMMON

    _main->_Lcd_Write
    _main->___xxtofl
    ___flmul->___xxtofl
    _Lcd_Write->_Lcd_Goto
    _Lcd_Print->_Lcd_Write_Nibble
    _Lcd_Goto->_Lcd_Cmd
    _Lcd_Init->_Lcd_Cmd
    _Lcd_Cmd->_Lcd_Write_Nibble
    _ItoStr->___xxtofl
    ___fltol->___xxtofl
    ___fldiv->___xxtofl

Critical Paths under _main in BANK0

    _main->_ItoStr
    _ItoStr->___fltol
    ___fltol->___fldiv
    ___fltol->___flmul

Critical Paths under _main in BANK1

    None.

Critical Paths under _main in BANK3

    None.

Critical Paths under _main in BANK2

    None.

Call Graph Tables:

 ---------------------------------------------------------------------------------
 (Depth) Function   	        Calls       Base Space   Used Autos Params    Refs
 ---------------------------------------------------------------------------------
 (0) _main                                                17    17      0    9379
                                             51 BANK0     17    17      0
                             _ItoStr
                           _Lcd_Init
                          _Lcd_Write
                            ___flmul
                            ___fltol
                           ___xxtofl
 ---------------------------------------------------------------------------------
 (1) ___flmul                                             26    18      8    2569
                                              0 BANK0     26    18      8
                          __Umul8_16
                           ___xxtofl (ARG)
 ---------------------------------------------------------------------------------
 (2) __Umul8_16                                            9     7      2     799
                                              0 COMMON     9     7      2
 ---------------------------------------------------------------------------------
 (1) _Lcd_Write                                            5     2      3    1562
                                              9 COMMON     5     2      3
                           _Lcd_Goto
                          _Lcd_Print
 ---------------------------------------------------------------------------------
 (2) _Lcd_Print                                            4     2      2     374
                                              2 COMMON     4     2      2
                   _Lcd_Write_Nibble
 ---------------------------------------------------------------------------------
 (2) _Lcd_Goto                                             4     3      1     514
                                              5 COMMON     4     3      1
                            _Lcd_Cmd
 ---------------------------------------------------------------------------------
 (1) _Lcd_Init                                             3     3      0     176
                                              5 COMMON     3     3      0
                            _Lcd_Cmd
 ---------------------------------------------------------------------------------
 (3) _Lcd_Cmd                                              3     3      0     176
                                              2 COMMON     3     3      0
                   _Lcd_Write_Nibble
 ---------------------------------------------------------------------------------
 (3) _Lcd_Write_Nibble                                     2     2      0      88
                                              0 COMMON     2     2      0
 ---------------------------------------------------------------------------------
 (1) _ItoStr                                              14     8      6    4020
                                             37 BANK0     14     8      6
                            ___fldiv
                            ___flmul (ARG)
                            ___fltol
                            ___lwmod
                           ___xxtofl
 ---------------------------------------------------------------------------------
 (1) ___xxtofl                                            14    10      4     474
                                              0 COMMON    14    10      4
 ---------------------------------------------------------------------------------
 (2) ___lwmod                                              6     2      4     463
                                              0 COMMON     6     2      4
 ---------------------------------------------------------------------------------
 (1) ___fltol                                             11     7      4     381
                                             26 BANK0     11     7      4
                            ___fldiv (ARG)
                            ___flmul (ARG)
                           ___xxtofl (ARG)
 ---------------------------------------------------------------------------------
 (2) ___fldiv                                             26    18      8    1273
                                              0 BANK0     26    18      8
                           ___xxtofl (ARG)
 ---------------------------------------------------------------------------------
 Estimated maximum stack depth 3
 ---------------------------------------------------------------------------------

 Call Graph Graphs:

 _main (ROOT)
   _ItoStr
     ___fldiv
       ___xxtofl (ARG)
     ___flmul (ARG)
       __Umul8_16
       ___xxtofl (ARG)
     ___fltol (ARG)
       ___fldiv (ARG)
       ___flmul (ARG)
       ___xxtofl (ARG)
     ___lwmod (ARG)
     ___xxtofl (ARG)
   _Lcd_Init
     _Lcd_Cmd
       _Lcd_Write_Nibble
   _Lcd_Write
     _Lcd_Goto
       _Lcd_Cmd
     _Lcd_Print
       _Lcd_Write_Nibble
   ___flmul
   ___fltol
   ___xxtofl

 Address spaces:
Name               Size   Autos  Total    Cost      Usage
BANK3               60      0       0       9        0.0%
BITBANK3            60      0       0       8        0.0%
SFR3                 0      0       0       4        0.0%
BITSFR3              0      0       0       4        0.0%
BANK2               60      0       0      11        0.0%
BITBANK2            60      0       0      10        0.0%
SFR2                 0      0       0       5        0.0%
BITSFR2              0      0       0       5        0.0%
BANK1               50      0       0       7        0.0%
BITBANK1            50      0       0       6        0.0%
SFR1                 0      0       0       2        0.0%
BITSFR1              0      0       0       2        0.0%
BANK0               50     44      4B       5       93.8%
BITBANK0            50      0       1       4        1.2%
SFR0                 0      0       0       1        0.0%
BITSFR0              0      0       0       1        0.0%
COMMON               E      E       E       1      100.0%
BITCOMMON            E      0       0       0        0.0%
CODE                 0      0       0       0        0.0%
DATA                 0      0      59      12        0.0%
ABS                  0      0      59       3        0.0%
NULL                 0      0       0       0        0.0%
STACK                0      0       0       2        0.0%
EEDATA             100      0       0       0        0.0%


Microchip Technology PIC Macro Assembler V2.32 build 20210201212658 
Symbol Table                                                                                   Tue Dec 14 16:25:51 2021

             ___fldiv@aexp 0039               ___fldiv@bexp 0038                          pc 0002  
             ___fldiv@sign 0031                         l51 0E9E                         l57 0D85  
                       l66 0DBB                         l90 0D31                         l75 0E3E  
                       l96 0F45                         _RS 0350                         fsr 0004  
      __Umul8_16@word_mpld 0076                        l120 0178                        l104 01DA  
                      l119 0172                        l402 008E                        l601 0742  
                      l614 0D46                        l607 07CA                        l392 008E  
                      l616 0D58                        l641 0FFF                        l571 03E7  
                      l555 02F5                        l652 0FC9                        l557 0475  
                      l653 0FD5                        l645 0FAD                        l399 0079  
                      l639 0F68                        l488 0DF5                        l577 0459  
                      l579 0469                        l595 07D6                        _RD2 0042  
                      _RD3 0043                        _RD4 0044                        _RD5 0045  
                      _RD6 0046                        _RD7 0047                        fsr0 0004  
                      indf 0000               ___flmul@aexp 0032               ___flmul@bexp 0033  
             ___flmul@sign 002D               ___flmul@temp 0038               ___flmul@prod 0034  
             ___fltol@exp1 0044                       l1400 0067                       l1410 0083  
                     l1330 0E8D                       l1500 0355                       l1420 0DD0  
                     l1412 0DBC                       l1332 0E90                       l1324 0E40  
                     l1340 0D5A                       l1510 0387                       l1502 0367  
                     l1406 006E                       l1422 0DD4                       l1414 0DC2  
                     l1430 0DF1                       l1334 0E93                       l1326 0E56  
                     l1342 0D5D                       l1350 0D87                       l1520 03A8  
                     l1512 0388                       l1504 036B                       l1440 02AA  
                     l1408 007E                       l1424 0DDE                       l1416 0DC5  
                     l1336 0E96                       l1328 0E8C                       l1344 0D71  
                     l1352 0D88                       l1360 0DA8                       l1530 03C1  
                     l1522 03AA                       l1514 0396                       l1506 036C  
                     l1450 02BE                       l1442 02AB                       l1434 0299  
                     l1426 0DE4                       l1418 0DCC                       l1610 0F96  
                     l1602 0F79                       l1338 0E99                       l1346 0D76  
                     l1354 0D90                       l1370 0DFB                       l1540 03E4  
                     l1524 03B3                       l1532 03C7                       l1508 0375  
                     l1516 039A                       l1460 02D7                       l1444 02B0  
                     l1452 02C0                       l1436 02A0                       l1428 0DEB  
                     l1620 0FCD                       l1612 0FA4                       l1604 0F7E  
                     l1700 0149                       l1348 0D7C                       l1356 0D98  
                     l1372 0E27                       l1550 0403                       l1534 03CB  
                     l1526 03B7                       l1518 03A0                       l1470 02EB  
                     l1462 02D8                       l1454 02C8                       l1446 02B5  
                     l1438 02A6                       l1390 0049                       l1382 0029  
                     l1630 0FF7                       l1622 0FD7                       l1614 0FB4  
                     l1606 0F8B                       l1702 0154                       l1358 0DA0  
                     l1374 0E2B                       l1366 0DF6                       l1710 047D  
                     l1560 044C                       l1552 041C                       l1544 03EC  
                     l1536 03CC                       l1528 03B8                       l1464 02DD  
                     l1472 02ED                       l1456 02CD                       l1448 02BD  
                     l1392 004D                       l1384 003E                       l1376 0013  
                     l1624 0FED                       l1616 0FBF                       l1608 0F92  
                     l1704 015A                       l1368 0DF7                       l1640 0D28  
                     l1800 0713                       l1720 0492                       l1712 0483  
                     _C1ON 083F                       l1570 0465                       l1562 0450  
                     l1546 03F1                       l1554 0422                       l1538 03D0  
                     l1490 0336                       l1474 02FD                       l1482 0316  
                     l1466 02E2                       l1458 02D3                       l1386 003F  
                     l1378 0020                       l1626 0FF2                       l1618 0FC3  
                     l1706 015F                       l1650 0ED2                       l1642 0E9F  
                     l1810 072B                       l1802 071C                       l1730 04AF  
                     l1722 049A                       l1714 0487                       l1564 0458  
                     l1556 042F                       l1548 03FF                       l1492 033E  
                     l1484 031B                       l1476 0309                       l1468 02EA  
                     l1388 0047                       l1628 0FF6                       l1660 0F0C  
                     l1652 0EDB                       l1644 0EB0                       l1580 0D3C  
                     l1820 075A                       l1812 073F                       l1804 0722  
                     l1740 04C6                       l1732 04B3                       l1724 049C  
                     l1716 0488                       l1708 0476                       l1900 01D7  
                     _C2ON 0847                       l1566 045F                       l1558 043D  
                     l1494 0346                       l1478 030D                       l1398 0055  
                     l1590 0F47                       l1670 0094                       l1662 0F1F  
                     l1654 0EEA                       l1646 0EBD                       l1638 0D1E  
                     l1582 0D40                       l1830 0795                       l1822 075E  
                     l1806 0726                       l1742 04C8                       l1734 04B4  
                     l1726 04A4                       l1718 048D                       l1910 0236  
                     l1902 01DE                       l1568 0463                       l1496 034E  
                     l1488 0324                       l1592 0F4C                       l1680 00BF  
                     l1672 00A0                       l1664 0F25                       l1656 0EF0  
                     l1648 0EC3                       l1584 0D4F                       l1576 0D33  
                     l1840 07C2                       l1832 07A4                       l1824 0777  
                     l1816 0747                       l1808 0727                       l1760 0539  
                     l1752 04E3                       l1744 04D0                       l1736 04B9  
                     l1728 04A9                       l1912 0262                       l1904 01E6  
                     l1498 0350                       l1594 0F50                       l1690 00EA  
                     l1682 00D2                       l1674 00A6                       l1666 0F38  
                     l1658 0EFF                       l1586 0D54                       l1578 0D35  
                     l1842 07C3                       l1834 07AE                       l1818 074C  
                     l1826 077D                       l1770 05B6                       l1762 0565  
                     l1754 04F3                       l1746 04D5                       l1738 04BE  
                     l1914 0277                       l1906 0213                       l1596 0F60  
                     l1692 00F3                       l1684 00DD                       l1676 00B3  
                     l1668 008F                       l1844 07CE                       l1836 07B0  
                     l1828 078A                       l1780 0636                       l1772 05D3  
                     l1764 0581                       l1756 0500                       l1748 04DA  
                     l1908 0226                       l1598 0F70                       l1694 00F5  
                     l1686 00DF                       l1678 00BA                       l1838 07BE  
                     l1790 06EE                       l1782 0663                       l1774 05E3  
                     l1766 059D                       l1758 051D                       l1870 018F  
                     l1688 00E5                       l1696 012D                       l1936 0DB0  
                     l1792 06F7                       l1784 0673                       l1776 0600  
                     l1768 05A6                       l1880 019B                       l1872 0193  
                     l1698 0136                       l1794 0705                       l1786 06A0  
                     l1778 0619                       l1890 01AC                       l1882 01A1  
                     l1874 0194                       l1796 070E                       l1788 06C6  
                     l1892 01AF                       l1884 01A4                       l1876 0197  
                     l1868 0179                       l1798 0712                       l1894 01B4  
                     l1886 01A5                       l1878 0198                       l1896 01C0  
                     l1888 01A9                       l1898 01CC          ?_Lcd_Write_Nibble 0070  
                     STR_1 0819                       STR_2 0810                       u2000 0FB3  
                     u2001 0FB2                       u2020 0FC3                       u2100 00E5  
                     u1300 0E53                       u2021 0FC2                       u2101 00E4  
                     u1301 0E4F                       u2030 0FC9                       u2110 00EA  
                     u2031 0FC8                       u2015 0FB8                       u2111 00E9  
                     u2040 0FCD                       u2120 0136                       u2200 04BE  
                     u2041 0FCC                       u2121 0135                       u2201 04BD  
                     u2050 0FE2                       u2130 015A                       u1330 0E65  
                     u1314 0E56                       u2210 04D5                       u2131 0159  
                     u1331 0E61                       u2211 04D4                       u2060 0FF2  
                     u2140 015F                       u1404 0E8C                       u1420 0D76  
                     u2220 04DA                       u2061 0FF1                       u2141 015E  
                     u1325 0E59                       u1421 0D75                       u2221 04D9  
                     u1510 0066                       u2070 0FF6                       u1430 0D7C  
                     u2150 0487                       u1511 0065                       u2071 0FF5  
                     u2055 0FDD                       u1431 0D7B                       u1415 0D60  
                     u2311 0628                       u2231 052B                       u2151 0486  
                     u1520 006D                       u1360 0E77                       u1344 0E68  
                     u1280 0E49                       u2400 0712                       u2312 062F  
                     u2232 0532                       u2160 048D                       u1521 006C  
                     u1505 0056                       u1361 0E73                       u1281 0E45  
                     u2401 0711                       u2321 0655                       u2313 0636  
                     u2305 0602                       u2241 0547                       u2233 0539  
                     u2161 048C                       u1610 0DF1                       u2090 00B3  
                     u1450 0E3E                       u2322 065C                       u2242 054E  
                     u2170 0492                       u1611 0DF0                       u2091 00B2  
                     u1355 0E6B                       u1451 0E3D                       u2331 0682  
                     u2323 0663                       u2251 0573                       u2243 0555  
                     u2171 0491                       u1700 0355                       u1620 02AA  
                     u1540 007E                       u1460 0020                       u2500 07A4  
                     u2420 0726                       u2340 06AC                       u2332 0689  
                     u2252 057A                       u2180 04B3                       u1701 0354  
                     u1621 02A9                       u1541 007D                       u1461 001F  
                     u1605 0DE5                       u1445 0E09                       u2501 07A3  
                     u2421 0725                       u2333 0690                       u2261 058F  
                     u2253 0581                       u2181 04B2                       u1630 02B0  
                     u1550 0083                       u1470 0037                       u1390 0E89  
                     u1374 0E7A                       u1294 0E4C                       u2510 07C2  
                     u2430 072B                       u2262 0596                       u2190 04B9  
                     u1631 02AF                       u1551 0082                       u1535 0070  
                     u2095 00AF                       u1391 0E85                       u2511 07C1  
                     u2431 072A                       u2415 0715                       u2351 06B8  
                     u2263 059D                       u2191 04B8                       u1640 02B5  
                     u1480 004D                       u1560 0DC2                       u2440 073F  
                     u2360 06D4                       u2352 06BF                       u1641 02B4  
                     u1481 004C                       u1561 0DC1                       u1385 0E7D  
                     u2505 07A0                       u2441 073E                       u2353 06C6  
                     u2345 06A7                       u2281 05C5                       u1810 03CB  
                     u1730 036B                       u1650 02D7                       u1490 0054  
                     u2450 0746                       u2282 05CC                       u1811 03CA  
                     u1731 036A                       u1715 0357                       u1651 02D6  
                     u1491 0053                       u1475 0032                       u2451 0745  
                     u2371 06E0                       u2291 05F2                       u2283 05D3  
                     u2275 059F                       u1900 0463                       u1820 03D0  
                     u1660 02DD                       u1580 0DD4                       u2460 074C  
                     u2372 06E7                       u2292 05F9                       u2540 01DE  
                     u1901 0462                       u1821 03CF                       u1805 03BA  
                     u1725 0360                       u1661 02DC                       u1581 0DD3  
                     u2461 074B                       u2373 06EE                       u2365 06CF  
                     u2293 0600                       u2541 01DD                       u1830 03E4  
                     u1750 0387                       u1670 02E2                       u1590 0DDE  
                     u1910 0D40                       u2470 075E                       u1831 03E3  
                     u1751 0386                       u1671 02E1                       u1591 0DDD  
                     u1575 0DC6                       u2607 0EE5                       u1911 0D3F  
                     u2471 075D                       u1840 03EB                       u1760 03A0  
                     u1680 02FD                       u2480 076D                       u1841 03EA  
                     u1761 039F                       u1745 036E                       u1681 02FC  
                     u2617 0EF4                       u2385 06F0                       u1850 03F1  
                     u1770 03A8                       u1690 031B                       u1930 0D54  
                     u2490 078A                       u1851 03F0                       u1771 03A7  
                     u1755 0383                       u1691 031A                       u1595 0DDA  
                     u2627 0F05                       u1931 0D53                       u2491 0789  
                     u2395 0707                       u1860 0403                       u1940 0F4C  
                     u1861 0402                       u1941 0F4B                       u2637 0F18  
                     u1925 0D47                       u2485 0768                       u2557 01D2  
                     u1870 0412                       u1790 03B7                       u1950 0F50  
                     u1791 03B6                       u1951 0F4F                       u2647 0F2B  
                     u2495 0786                       u2567 028F                       u1880 042F  
                     u1960 0F70                       u1881 042E                       u1785 03AC  
                     u1961 0F6F                       u2657 0F3E                       u2577 0EB6  
                     u1890 044C                       u1891 044B                       u1875 040D  
                     u2667 0D80                       u2587 0EC7                       u1980 0F91  
                     u1885 042B                       u1981 0F90                       u2677 0E9B  
                     u2597 0ED6                       u1895 0448                       u1975 0F83  
                     u1995 0FA5         ??_Lcd_Write_Nibble 0070                       _main 0179  
              main@num_adc 0062                       btemp 007E                       start 0000  
          ___fldiv@new_exp 0032            __end_of_Lcd_Cmd 0D86              ___fltol@sign1 0043  
                    ?_main 0070            __end_of___fldiv 0476            __end_of___flmul 07D7  
          __end_of___fltol 008F                      _ANSEL 0188            __end_of___lwmod 0DF6  
               ItoStr@volt 0049                      pclath 000A                      status 0003  
                    wtemp0 007E           __end_of_Lcd_Init 0F46           __end_of_Lcd_Goto 0DBC  
          __initialization 07D7               __end_of_main 0299                     ??_main 0053  
       __size_of_Lcd_Print 0049         __size_of_Lcd_Write 0015                     _ADRESH 001E  
                   _ADRESL 009E                     _ANSELH 0189                  ??_Lcd_Cmd 0072  
              ItoStr@valor 0045                ItoStr@termo 0050                     _TRISA0 0428  
                   _TRISD2 0442                     _TRISD3 0443                     _TRISD4 0444  
                   _TRISD5 0445                     _TRISD6 0446                     _TRISD7 0447  
         __end_of___xxtofl 1000                     _ItoStr 008F                  ??___fldiv 0028  
                ??___flmul 0028                  ??___fltol 003E                  ??___lwmod 0074  
       __size_of__Umul8_16 0027               ___xxtofl@arg 007A               ___xxtofl@exp 0079  
             ___xxtofl@val 0070    __end_of__initialization 07FC                 ___fltol@f1 003A  
        __end_of_Lcd_Print 0E3F          __end_of_Lcd_Write 0D32             __pcstackCOMMON 0070  
             __pidataBANK0 000D                  ?_Lcd_Init 0070                  ?_Lcd_Goto 0075  
        __end_of__Umul8_16 0D59                    ?_ItoStr 0045                 __pmaintext 0179  
__size_of_Lcd_Write_Nibble 0060            Lcd_Print@Dt_Str 0072               ItoStr@digito 004F  
                ?___xxtofl 0070                 ??_Lcd_Init 0075                 ??_Lcd_Goto 0076  
               __stringtab 0800                    _Lcd_Cmd 0D59                    ItoStr@k 004D  
          __size_of_ItoStr 00EA                    ___fldiv 0299                    ___flmul 0476  
                  ___fltol 0013                    ___lwmod 0DBC                    __ptext1 0476  
                  __ptext2 0D32                    __ptext3 0D1D                    __ptext4 0DF6  
                  __ptext5 0D86                    __ptext6 0E9F                    __ptext7 0D59  
                  __ptext8 0E3F                    __ptext9 008F                 ??___xxtofl 0074  
     end_of_initialization 07FC          Lcd_Write_Nibble@n 0071              ___xxtofl@sign 0078  
              ___fldiv@grs 0034                ___fldiv@rem 002D                ___flmul@grs 002E  
               main@tensao 0056             __end_of_ItoStr 0179           _Lcd_Write_Nibble 0E3F  
                _Lcd_Print 0DF6                  _Lcd_Write 0D1D                  ItoStr@dot 004A  
                ItoStr@tam 0047                  ItoStr@pos 0052                  ItoStr@str 0048  
            __pbitbssBANK0 0350        start_initialization 07D7          __size_of_Lcd_Init 00A7  
        __size_of_Lcd_Goto 0036            Lcd_Write@Dt_Str 007A                   ??_ItoStr 004B  
               ?_Lcd_Print 0072                  __Umul8_16 0D32                 ?_Lcd_Write 0079  
              __pdataBANK0 0064                  ___fldiv@a 0020                  ___fldiv@b 0024  
                ___flmul@a 0024                  ___flmul@b 0020                  ___latbits 0002  
            __pcstackBANK0 0020          __size_of___xxtofl 00BA                   ?_Lcd_Cmd 0070  
                 ?___fldiv 0020                   ?___flmul 0020                   ?___fltol 003A  
               ?__Umul8_16 0070                   ?___lwmod 0070                  __pstrings 0800  
                main@F1360 0064                ??_Lcd_Print 0074                ??_Lcd_Write 007C  
               _ADCON0bits 001F                __stringbase 080F                 _ADCON1bits 009F  
                main@texto 005A                   _Lcd_Init 0E9F                   _Lcd_Goto 0D86  
 __end_of_Lcd_Write_Nibble 0E9F             Lcd_Cmd@Command 0074           __size_of_Lcd_Cmd 002D  
              ??__Umul8_16 0072           __size_of___fldiv 01DD           __size_of___flmul 0361  
         __size_of___fltol 007C           __size_of___lwmod 003A         __end_of__stringtab 0810  
             Lcd_Write@col 0079               Lcd_Write@row 007D                   ___xxtofl 0F46  
                 _main$821 0060                   __ptext10 0F46                   __ptext11 0DBC  
                 __ptext12 0013                   __ptext13 0299              __size_of_main 0120  
              Lcd_Goto@col 0078                Lcd_Goto@row 0075           ___lwmod@dividend 0072  
                stringcode 080A                 Lcd_Print@i 0075     __Umul8_16@multiplicand 0070  
          ___lwmod@divisor 0070            ___lwmod@counter 0075                   stringdir 080A  
                 stringtab 0800       __Umul8_16@multiplier 0078          __Umul8_16@product 0074  
