gpasm-1.4.0 #1107 (Apr  3 2018) /media/user/s   1-9-2022  19:09:34          PAGE  1


LOC    OBJECT CODE    LINE  SOURCE TEXT
  VALUE

                      00001 ;Program compiled by Great Cow BASIC (0.98.<<>> 2021-<<>>-24 (Linux 64 bit) : Build 1005) for Microchip 
                            MPASM
                      00002 ;Need help? See the GCBASIC forums at http://sourceforge.net/projects/gcbasic/forums,
                      00003 ;check the documentation or email w_cholmondeley at users dot sourceforge dot net.
                      00004 
                      00005 ;********************************************************************************
                      00006 
                      00007 ;Set up the assembler options (Chip type, clock source, other bits and pieces)
                      00008  LIST p=16F1826, r=DEC
                      00009 #include <P16F1826.inc>
Warning[231]: Found lower case match for include filename.
                      00001         LIST
                      00002 
                      00003 ;==========================================================================
                      00004 ;  MPASM PIC16F1826 processor include
                      00005 ; 
                      00006 ;  (c) Copyright 1999-2014 Microchip Technology, All rights reserved
                      00007 ;==========================================================================
                      00008 
                      00009         NOLIST
                      00010 
                      00011 ;==========================================================================
                      00012 ;  This header file defines configurations, registers, and other useful
                      00013 ;  bits of information for the PIC16F1826 microcontroller.  These names
                      00014 ;  are taken to match the data sheets as closely as possible.
                      00015 ;
                      00016 ;  Note that the processor must be selected before this file is included.
                      00017 ;  The processor may be selected the following ways:
                      00018 ;
                      00019 ;       1. Command line switch:
                      00020 ;               C:\MPASM MYFILE.ASM /PIC16F1826
                      00021 ;       2. LIST directive in the source file
                      00022 ;               LIST   P=PIC16F1826
                      00023 ;       3. Processor Type entry in the MPASM full-screen interface
                      00024 ;       4. Setting the processor in the MPLAB Project Dialog
                      00025 ;==========================================================================
                      00026 ;;;; Begin: Added in gputils
                      00027 
                      00028 ;==========================================================================
                      00029 ;
                      00030 ;       Gputils Specific Revision History
                      00031 ;
                      00032 ;==========================================================================
                      00033 
                      00034 ;       12 Jul 2014  Added the _DEBUG_ON and _DEBUG_OFF config options.
                      00035 ;;;; End: Added in gputils
                      00036 
                      00037 ;==========================================================================
                      00038 ;
                      00039 ;       Verify Processor
                      00040 ;
                      00041 ;==========================================================================
                      00042         IFNDEF __16F1826
gpasm-1.4.0 #1107 (Apr  3 2018) /media/user/s   1-9-2022  19:09:34          PAGE  2


LOC    OBJECT CODE    LINE  SOURCE TEXT
  VALUE

                      00043            MESSG "Processor-header file mismatch.  Verify selected processor."
                      00044         ENDIF
                      00045 
                      00046 
                      00047 
                      00048 ;==========================================================================
                      00049 ;
                      00050 ;       Register Definitions
                      00051 ;
                      00052 ;==========================================================================
                      00053 
  00000000            00054 W                EQU  H'0000'
  00000001            00055 F                EQU  H'0001'
                      00056 
                      00057 ;----- Register Files -----------------------------------------------------
                      00058 
                      00059 ;-----Bank0------------------
  00000000            00060 INDF0            EQU  H'0000'
  00000001            00061 INDF1            EQU  H'0001'
  00000002            00062 PCL              EQU  H'0002'
  00000003            00063 STATUS           EQU  H'0003'
  00000004            00064 FSR0             EQU  H'0004'
  00000004            00065 FSR0L            EQU  H'0004'
  00000005            00066 FSR0H            EQU  H'0005'
  00000006            00067 FSR1             EQU  H'0006'
  00000006            00068 FSR1L            EQU  H'0006'
  00000007            00069 FSR1H            EQU  H'0007'
  00000008            00070 BSR              EQU  H'0008'
  00000009            00071 WREG             EQU  H'0009'
  0000000A            00072 PCLATH           EQU  H'000A'
  0000000B            00073 INTCON           EQU  H'000B'
  0000000C            00074 PORTA            EQU  H'000C'
  0000000D            00075 PORTB            EQU  H'000D'
  00000011            00076 PIR1             EQU  H'0011'
  00000012            00077 PIR2             EQU  H'0012'
  00000015            00078 TMR0             EQU  H'0015'
  00000016            00079 TMR1             EQU  H'0016'
  00000016            00080 TMR1L            EQU  H'0016'
  00000017            00081 TMR1H            EQU  H'0017'
  00000018            00082 T1CON            EQU  H'0018'
  00000019            00083 T1GCON           EQU  H'0019'
  0000001A            00084 TMR2             EQU  H'001A'
  0000001B            00085 PR2              EQU  H'001B'
  0000001C            00086 T2CON            EQU  H'001C'
  0000001E            00087 CPSCON0          EQU  H'001E'
  0000001F            00088 CPSCON1          EQU  H'001F'
                      00089 
                      00090 ;-----Bank1------------------
  0000008C            00091 TRISA            EQU  H'008C'
  0000008D            00092 TRISB            EQU  H'008D'
  00000091            00093 PIE1             EQU  H'0091'
  00000092            00094 PIE2             EQU  H'0092'
  00000095            00095 OPTION_REG       EQU  H'0095'
gpasm-1.4.0 #1107 (Apr  3 2018) /media/user/s   1-9-2022  19:09:34          PAGE  3


LOC    OBJECT CODE    LINE  SOURCE TEXT
  VALUE

  00000096            00096 PCON             EQU  H'0096'
  00000097            00097 WDTCON           EQU  H'0097'
  00000098            00098 OSCTUNE          EQU  H'0098'
  00000099            00099 OSCCON           EQU  H'0099'
  0000009A            00100 OSCSTAT          EQU  H'009A'
  0000009B            00101 ADRES            EQU  H'009B'
  0000009B            00102 ADRESL           EQU  H'009B'
  0000009C            00103 ADRESH           EQU  H'009C'
  0000009D            00104 ADCON0           EQU  H'009D'
  0000009E            00105 ADCON1           EQU  H'009E'
                      00106 
                      00107 ;-----Bank2------------------
  0000010C            00108 LATA             EQU  H'010C'
  0000010D            00109 LATB             EQU  H'010D'
  00000111            00110 CM1CON0          EQU  H'0111'
  00000112            00111 CM1CON1          EQU  H'0112'
  00000113            00112 CM2CON0          EQU  H'0113'
  00000114            00113 CM2CON1          EQU  H'0114'
  00000115            00114 CMOUT            EQU  H'0115'
  00000116            00115 BORCON           EQU  H'0116'
  00000117            00116 FVRCON           EQU  H'0117'
  00000118            00117 DACCON0          EQU  H'0118'
  00000119            00118 DACCON1          EQU  H'0119'
  0000011A            00119 SRCON0           EQU  H'011A'
  0000011B            00120 SRCON1           EQU  H'011B'
  0000011D            00121 APFCON0          EQU  H'011D'
  0000011E            00122 APFCON1          EQU  H'011E'
                      00123 
                      00124 ;-----Bank3------------------
  0000018C            00125 ANSELA           EQU  H'018C'
  0000018D            00126 ANSELB           EQU  H'018D'
  00000191            00127 EEADR            EQU  H'0191'
  00000191            00128 EEADRL           EQU  H'0191'
  00000192            00129 EEADRH           EQU  H'0192'
  00000193            00130 EEDAT            EQU  H'0193'
  00000193            00131 EEDATL           EQU  H'0193'
  00000194            00132 EEDATH           EQU  H'0194'
  00000195            00133 EECON1           EQU  H'0195'
  00000196            00134 EECON2           EQU  H'0196'
  00000199            00135 RCREG            EQU  H'0199'
  0000019A            00136 TXREG            EQU  H'019A'
  0000019B            00137 SP1BRG           EQU  H'019B'
  0000019B            00138 SP1BRGL          EQU  H'019B'
  0000019B            00139 SPBRG            EQU  H'019B'
  0000019B            00140 SPBRGL           EQU  H'019B'
  0000019C            00141 SP1BRGH          EQU  H'019C'
  0000019C            00142 SPBRGH           EQU  H'019C'
  0000019D            00143 RCSTA            EQU  H'019D'
  0000019E            00144 TXSTA            EQU  H'019E'
  0000019F            00145 BAUDCON          EQU  H'019F'
                      00146 
                      00147 ;-----Bank4------------------
  0000020C            00148 WPUA             EQU  H'020C'
gpasm-1.4.0 #1107 (Apr  3 2018) /media/user/s   1-9-2022  19:09:34          PAGE  4


LOC    OBJECT CODE    LINE  SOURCE TEXT
  VALUE

  0000020D            00149 WPUB             EQU  H'020D'
  00000211            00150 SSP1BUF          EQU  H'0211'
  00000211            00151 SSPBUF           EQU  H'0211'
  00000212            00152 SSP1ADD          EQU  H'0212'
  00000212            00153 SSPADD           EQU  H'0212'
  00000213            00154 SSP1MSK          EQU  H'0213'
  00000213            00155 SSPMSK           EQU  H'0213'
  00000214            00156 SSP1STAT         EQU  H'0214'
  00000214            00157 SSPSTAT          EQU  H'0214'
  00000215            00158 SSP1CON1         EQU  H'0215'
  00000215            00159 SSPCON           EQU  H'0215'
  00000215            00160 SSPCON1          EQU  H'0215'
  00000216            00161 SSP1CON2         EQU  H'0216'
  00000216            00162 SSPCON2          EQU  H'0216'
  00000217            00163 SSP1CON3         EQU  H'0217'
  00000217            00164 SSPCON3          EQU  H'0217'
                      00165 
                      00166 ;-----Bank5------------------
  00000291            00167 CCPR1            EQU  H'0291'
  00000291            00168 CCPR1L           EQU  H'0291'
  00000292            00169 CCPR1H           EQU  H'0292'
  00000293            00170 CCP1CON          EQU  H'0293'
  00000294            00171 PWM1CON          EQU  H'0294'
  00000295            00172 CCP1AS           EQU  H'0295'
  00000295            00173 ECCP1AS          EQU  H'0295'
  00000296            00174 PSTR1CON         EQU  H'0296'
                      00175 
                      00176 ;-----Bank7------------------
  00000394            00177 IOCBP            EQU  H'0394'
  00000395            00178 IOCBN            EQU  H'0395'
  00000396            00179 IOCBF            EQU  H'0396'
  0000039A            00180 CLKRCON          EQU  H'039A'
  0000039C            00181 MDCON            EQU  H'039C'
  0000039D            00182 MDSRC            EQU  H'039D'
  0000039E            00183 MDCARL           EQU  H'039E'
  0000039F            00184 MDCARH           EQU  H'039F'
                      00185 
                      00186 ;-----Bank31------------------
  00000FE4            00187 STATUS_SHAD      EQU  H'0FE4'
  00000FE5            00188 WREG_SHAD        EQU  H'0FE5'
  00000FE6            00189 BSR_SHAD         EQU  H'0FE6'
  00000FE7            00190 PCLATH_SHAD      EQU  H'0FE7'
  00000FE8            00191 FSR0L_SHAD       EQU  H'0FE8'
  00000FE9            00192 FSR0H_SHAD       EQU  H'0FE9'
  00000FEA            00193 FSR1L_SHAD       EQU  H'0FEA'
  00000FEB            00194 FSR1H_SHAD       EQU  H'0FEB'
  00000FED            00195 STKPTR           EQU  H'0FED'
  00000FEE            00196 TOSL             EQU  H'0FEE'
  00000FEF            00197 TOSH             EQU  H'0FEF'
                      00198 
                      00199 ;----- STATUS Bits -----------------------------------------------------
  00000000            00200 C                EQU  H'0000'
  00000001            00201 DC               EQU  H'0001'
gpasm-1.4.0 #1107 (Apr  3 2018) /media/user/s   1-9-2022  19:09:34          PAGE  5


LOC    OBJECT CODE    LINE  SOURCE TEXT
  VALUE

  00000002            00202 Z                EQU  H'0002'
  00000003            00203 NOT_PD           EQU  H'0003'
  00000004            00204 NOT_TO           EQU  H'0004'
                      00205 
                      00206 
                      00207 ;----- BSR Bits -----------------------------------------------------
  00000000            00208 BSR0             EQU  H'0000'
  00000001            00209 BSR1             EQU  H'0001'
  00000002            00210 BSR2             EQU  H'0002'
  00000003            00211 BSR3             EQU  H'0003'
  00000004            00212 BSR4             EQU  H'0004'
                      00213 
                      00214 
                      00215 
                      00216 ;----- INTCON Bits -----------------------------------------------------
  00000000            00217 IOCIF            EQU  H'0000'
  00000001            00218 INTF             EQU  H'0001'
  00000002            00219 TMR0IF           EQU  H'0002'
  00000003            00220 IOCIE            EQU  H'0003'
  00000004            00221 INTE             EQU  H'0004'
  00000005            00222 TMR0IE           EQU  H'0005'
  00000006            00223 PEIE             EQU  H'0006'
  00000007            00224 GIE              EQU  H'0007'
                      00225 
  00000002            00226 T0IF             EQU  H'0002'
  00000005            00227 T0IE             EQU  H'0005'
                      00228 
                      00229 
                      00230 ;----- PORTA Bits -----------------------------------------------------
  00000000            00231 RA0              EQU  H'0000'
  00000001            00232 RA1              EQU  H'0001'
  00000002            00233 RA2              EQU  H'0002'
  00000003            00234 RA3              EQU  H'0003'
  00000004            00235 RA4              EQU  H'0004'
  00000005            00236 RA5              EQU  H'0005'
  00000006            00237 RA6              EQU  H'0006'
  00000007            00238 RA7              EQU  H'0007'
                      00239 
                      00240 
                      00241 ;----- PORTB Bits -----------------------------------------------------
  00000000            00242 RB0              EQU  H'0000'
  00000001            00243 RB1              EQU  H'0001'
  00000002            00244 RB2              EQU  H'0002'
  00000003            00245 RB3              EQU  H'0003'
  00000004            00246 RB4              EQU  H'0004'
  00000005            00247 RB5              EQU  H'0005'
  00000006            00248 RB6              EQU  H'0006'
  00000007            00249 RB7              EQU  H'0007'
                      00250 
                      00251 
                      00252 ;----- PIR1 Bits -----------------------------------------------------
  00000000            00253 TMR1IF           EQU  H'0000'
  00000001            00254 TMR2IF           EQU  H'0001'
gpasm-1.4.0 #1107 (Apr  3 2018) /media/user/s   1-9-2022  19:09:34          PAGE  6


LOC    OBJECT CODE    LINE  SOURCE TEXT
  VALUE

  00000002            00255 CCP1IF           EQU  H'0002'
  00000003            00256 SSP1IF           EQU  H'0003'
  00000004            00257 TXIF             EQU  H'0004'
  00000005            00258 RCIF             EQU  H'0005'
  00000006            00259 ADIF             EQU  H'0006'
  00000007            00260 TMR1GIF          EQU  H'0007'
                      00261 
                      00262 
                      00263 ;----- PIR2 Bits -----------------------------------------------------
  00000003            00264 BCL1IF           EQU  H'0003'
  00000004            00265 EEIF             EQU  H'0004'
  00000005            00266 C1IF             EQU  H'0005'
  00000006            00267 C2IF             EQU  H'0006'
  00000007            00268 OSFIF            EQU  H'0007'
                      00269 
                      00270 
                      00271 ;----- T1CON Bits -----------------------------------------------------
  00000000            00272 TMR1ON           EQU  H'0000'
  00000002            00273 NOT_T1SYNC       EQU  H'0002'
  00000003            00274 T1OSCEN          EQU  H'0003'
  00000004            00275 T1CKPS0          EQU  H'0004'
  00000005            00276 T1CKPS1          EQU  H'0005'
  00000006            00277 TMR1CS0          EQU  H'0006'
  00000007            00278 TMR1CS1          EQU  H'0007'
                      00279 
                      00280 
                      00281 
                      00282 ;----- T1GCON Bits -----------------------------------------------------
  00000000            00283 T1GSS0           EQU  H'0000'
  00000001            00284 T1GSS1           EQU  H'0001'
  00000002            00285 T1GVAL           EQU  H'0002'
  00000003            00286 T1GGO            EQU  H'0003'
  00000004            00287 T1GSPM           EQU  H'0004'
  00000005            00288 T1GTM            EQU  H'0005'
  00000006            00289 T1GPOL           EQU  H'0006'
  00000007            00290 TMR1GE           EQU  H'0007'
                      00291 
                      00292 
                      00293 
                      00294 ;----- T2CON Bits -----------------------------------------------------
  00000000            00295 T2CKPS0          EQU  H'0000'
  00000001            00296 T2CKPS1          EQU  H'0001'
  00000002            00297 TMR2ON           EQU  H'0002'
  00000003            00298 T2OUTPS0         EQU  H'0003'
  00000004            00299 T2OUTPS1         EQU  H'0004'
  00000005            00300 T2OUTPS2         EQU  H'0005'
  00000006            00301 T2OUTPS3         EQU  H'0006'
                      00302 
                      00303 
                      00304 
                      00305 ;----- CPSCON0 Bits -----------------------------------------------------
  00000000            00306 T0XCS            EQU  H'0000'
  00000001            00307 CPSOUT           EQU  H'0001'
gpasm-1.4.0 #1107 (Apr  3 2018) /media/user/s   1-9-2022  19:09:34          PAGE  7


LOC    OBJECT CODE    LINE  SOURCE TEXT
  VALUE

  00000002            00308 CPSRNG0          EQU  H'0002'
  00000003            00309 CPSRNG1          EQU  H'0003'
  00000007            00310 CPSON            EQU  H'0007'
                      00311 
                      00312 
                      00313 
                      00314 ;----- CPSCON1 Bits -----------------------------------------------------
  00000000            00315 CPSCH0           EQU  H'0000'
  00000001            00316 CPSCH1           EQU  H'0001'
  00000002            00317 CPSCH2           EQU  H'0002'
  00000003            00318 CPSCH3           EQU  H'0003'
                      00319 
                      00320 
                      00321 
                      00322 ;----- TRISA Bits -----------------------------------------------------
  00000000            00323 TRISA0           EQU  H'0000'
  00000001            00324 TRISA1           EQU  H'0001'
  00000002            00325 TRISA2           EQU  H'0002'
  00000003            00326 TRISA3           EQU  H'0003'
  00000004            00327 TRISA4           EQU  H'0004'
  00000005            00328 TRISA5           EQU  H'0005'
  00000006            00329 TRISA6           EQU  H'0006'
  00000007            00330 TRISA7           EQU  H'0007'
                      00331 
                      00332 
                      00333 ;----- TRISB Bits -----------------------------------------------------
  00000000            00334 TRISB0           EQU  H'0000'
  00000001            00335 TRISB1           EQU  H'0001'
  00000002            00336 TRISB2           EQU  H'0002'
  00000003            00337 TRISB3           EQU  H'0003'
  00000004            00338 TRISB4           EQU  H'0004'
  00000005            00339 TRISB5           EQU  H'0005'
  00000006            00340 TRISB6           EQU  H'0006'
  00000007            00341 TRISB7           EQU  H'0007'
                      00342 
                      00343 
                      00344 ;----- PIE1 Bits -----------------------------------------------------
  00000000            00345 TMR1IE           EQU  H'0000'
  00000001            00346 TMR2IE           EQU  H'0001'
  00000002            00347 CCP1IE           EQU  H'0002'
  00000003            00348 SSP1IE           EQU  H'0003'
  00000004            00349 TXIE             EQU  H'0004'
  00000005            00350 RCIE             EQU  H'0005'
  00000006            00351 ADIE             EQU  H'0006'
  00000007            00352 TMR1GIE          EQU  H'0007'
                      00353 
                      00354 
                      00355 ;----- PIE2 Bits -----------------------------------------------------
  00000003            00356 BCL1IE           EQU  H'0003'
  00000004            00357 EEIE             EQU  H'0004'
  00000005            00358 C1IE             EQU  H'0005'
  00000006            00359 C2IE             EQU  H'0006'
  00000007            00360 OSFIE            EQU  H'0007'
gpasm-1.4.0 #1107 (Apr  3 2018) /media/user/s   1-9-2022  19:09:34          PAGE  8


LOC    OBJECT CODE    LINE  SOURCE TEXT
  VALUE

                      00361 
                      00362 
                      00363 ;----- OPTION_REG Bits -----------------------------------------------------
  00000000            00364 PS0              EQU  H'0000'
  00000001            00365 PS1              EQU  H'0001'
  00000002            00366 PS2              EQU  H'0002'
  00000003            00367 PSA              EQU  H'0003'
  00000004            00368 TMR0SE           EQU  H'0004'
  00000005            00369 TMR0CS           EQU  H'0005'
  00000006            00370 INTEDG           EQU  H'0006'
  00000007            00371 NOT_WPUEN        EQU  H'0007'
                      00372 
  00000004            00373 T0SE             EQU  H'0004'
  00000005            00374 T0CS             EQU  H'0005'
                      00375 
                      00376 
                      00377 ;----- PCON Bits -----------------------------------------------------
  00000000            00378 NOT_BOR          EQU  H'0000'
  00000001            00379 NOT_POR          EQU  H'0001'
  00000002            00380 NOT_RI           EQU  H'0002'
  00000003            00381 NOT_RMCLR        EQU  H'0003'
  00000006            00382 STKUNF           EQU  H'0006'
  00000007            00383 STKOVF           EQU  H'0007'
                      00384 
                      00385 
                      00386 ;----- WDTCON Bits -----------------------------------------------------
  00000000            00387 SWDTEN           EQU  H'0000'
  00000001            00388 WDTPS0           EQU  H'0001'
  00000002            00389 WDTPS1           EQU  H'0002'
  00000003            00390 WDTPS2           EQU  H'0003'
  00000004            00391 WDTPS3           EQU  H'0004'
  00000005            00392 WDTPS4           EQU  H'0005'
                      00393 
                      00394 
                      00395 
                      00396 ;----- OSCTUNE Bits -----------------------------------------------------
  00000000            00397 TUN0             EQU  H'0000'
  00000001            00398 TUN1             EQU  H'0001'
  00000002            00399 TUN2             EQU  H'0002'
  00000003            00400 TUN3             EQU  H'0003'
  00000004            00401 TUN4             EQU  H'0004'
  00000005            00402 TUN5             EQU  H'0005'
                      00403 
                      00404 
                      00405 
                      00406 ;----- OSCCON Bits -----------------------------------------------------
  00000000            00407 SCS0             EQU  H'0000'
  00000001            00408 SCS1             EQU  H'0001'
  00000003            00409 IRCF0            EQU  H'0003'
  00000004            00410 IRCF1            EQU  H'0004'
  00000005            00411 IRCF2            EQU  H'0005'
  00000006            00412 IRCF3            EQU  H'0006'
  00000007            00413 SPLLEN           EQU  H'0007'
gpasm-1.4.0 #1107 (Apr  3 2018) /media/user/s   1-9-2022  19:09:34          PAGE  9


LOC    OBJECT CODE    LINE  SOURCE TEXT
  VALUE

                      00414 
                      00415 
                      00416 
                      00417 ;----- OSCSTAT Bits -----------------------------------------------------
  00000000            00418 HFIOFS           EQU  H'0000'
  00000001            00419 LFIOFR           EQU  H'0001'
  00000002            00420 MFIOFR           EQU  H'0002'
  00000003            00421 HFIOFL           EQU  H'0003'
  00000004            00422 HFIOFR           EQU  H'0004'
  00000005            00423 OSTS             EQU  H'0005'
  00000006            00424 PLLR             EQU  H'0006'
  00000007            00425 T1OSCR           EQU  H'0007'
                      00426 
                      00427 
                      00428 ;----- ADCON0 Bits -----------------------------------------------------
  00000000            00429 ADON             EQU  H'0000'
  00000001            00430 GO_NOT_DONE      EQU  H'0001'
  00000002            00431 CHS0             EQU  H'0002'
  00000003            00432 CHS1             EQU  H'0003'
  00000004            00433 CHS2             EQU  H'0004'
  00000005            00434 CHS3             EQU  H'0005'
  00000006            00435 CHS4             EQU  H'0006'
                      00436 
  00000001            00437 ADGO             EQU  H'0001'
                      00438 
  00000001            00439 GO               EQU  H'0001'
                      00440 
                      00441 
                      00442 ;----- ADCON1 Bits -----------------------------------------------------
  00000000            00443 ADPREF0          EQU  H'0000'
  00000001            00444 ADPREF1          EQU  H'0001'
  00000002            00445 ADNREF           EQU  H'0002'
  00000004            00446 ADCS0            EQU  H'0004'
  00000005            00447 ADCS1            EQU  H'0005'
  00000006            00448 ADCS2            EQU  H'0006'
  00000007            00449 ADFM             EQU  H'0007'
                      00450 
                      00451 
                      00452 
                      00453 ;----- LATA Bits -----------------------------------------------------
  00000000            00454 LATA0            EQU  H'0000'
  00000001            00455 LATA1            EQU  H'0001'
  00000002            00456 LATA2            EQU  H'0002'
  00000003            00457 LATA3            EQU  H'0003'
  00000004            00458 LATA4            EQU  H'0004'
  00000006            00459 LATA6            EQU  H'0006'
  00000007            00460 LATA7            EQU  H'0007'
                      00461 
                      00462 
                      00463 ;----- LATB Bits -----------------------------------------------------
  00000000            00464 LATB0            EQU  H'0000'
  00000001            00465 LATB1            EQU  H'0001'
  00000002            00466 LATB2            EQU  H'0002'
gpasm-1.4.0 #1107 (Apr  3 2018) /media/user/s   1-9-2022  19:09:34          PAGE 10


LOC    OBJECT CODE    LINE  SOURCE TEXT
  VALUE

  00000003            00467 LATB3            EQU  H'0003'
  00000004            00468 LATB4            EQU  H'0004'
  00000005            00469 LATB5            EQU  H'0005'
  00000006            00470 LATB6            EQU  H'0006'
  00000007            00471 LATB7            EQU  H'0007'
                      00472 
                      00473 
                      00474 ;----- CM1CON0 Bits -----------------------------------------------------
  00000000            00475 C1SYNC           EQU  H'0000'
  00000001            00476 C1HYS            EQU  H'0001'
  00000002            00477 C1SP             EQU  H'0002'
  00000004            00478 C1POL            EQU  H'0004'
  00000005            00479 C1OE             EQU  H'0005'
  00000006            00480 C1OUT            EQU  H'0006'
  00000007            00481 C1ON             EQU  H'0007'
                      00482 
                      00483 
                      00484 ;----- CM1CON1 Bits -----------------------------------------------------
  00000000            00485 C1NCH0           EQU  H'0000'
  00000001            00486 C1NCH1           EQU  H'0001'
  00000004            00487 C1PCH0           EQU  H'0004'
  00000005            00488 C1PCH1           EQU  H'0005'
  00000006            00489 C1INTN           EQU  H'0006'
  00000007            00490 C1INTP           EQU  H'0007'
                      00491 
                      00492 
                      00493 
                      00494 ;----- CM2CON0 Bits -----------------------------------------------------
  00000000            00495 C2SYNC           EQU  H'0000'
  00000001            00496 C2HYS            EQU  H'0001'
  00000002            00497 C2SP             EQU  H'0002'
  00000004            00498 C2POL            EQU  H'0004'
  00000005            00499 C2OE             EQU  H'0005'
  00000006            00500 C2OUT            EQU  H'0006'
  00000007            00501 C2ON             EQU  H'0007'
                      00502 
                      00503 
                      00504 ;----- CM2CON1 Bits -----------------------------------------------------
  00000000            00505 C2NCH0           EQU  H'0000'
  00000001            00506 C2NCH1           EQU  H'0001'
  00000004            00507 C2PCH0           EQU  H'0004'
  00000005            00508 C2PCH1           EQU  H'0005'
  00000006            00509 C2INTN           EQU  H'0006'
  00000007            00510 C2INTP           EQU  H'0007'
                      00511 
                      00512 
                      00513 
                      00514 ;----- CMOUT Bits -----------------------------------------------------
  00000000            00515 MC1OUT           EQU  H'0000'
  00000001            00516 MC2OUT           EQU  H'0001'
                      00517 
                      00518 
                      00519 ;----- BORCON Bits -----------------------------------------------------
gpasm-1.4.0 #1107 (Apr  3 2018) /media/user/s   1-9-2022  19:09:34          PAGE 11


LOC    OBJECT CODE    LINE  SOURCE TEXT
  VALUE

  00000000            00520 BORRDY           EQU  H'0000'
  00000007            00521 SBOREN           EQU  H'0007'
                      00522 
                      00523 
                      00524 ;----- FVRCON Bits -----------------------------------------------------
  00000000            00525 ADFVR0           EQU  H'0000'
  00000001            00526 ADFVR1           EQU  H'0001'
  00000002            00527 CDAFVR0          EQU  H'0002'
  00000003            00528 CDAFVR1          EQU  H'0003'
  00000004            00529 TSRNG            EQU  H'0004'
  00000005            00530 TSEN             EQU  H'0005'
  00000006            00531 FVRRDY           EQU  H'0006'
  00000007            00532 FVREN            EQU  H'0007'
                      00533 
                      00534 
                      00535 
                      00536 ;----- DACCON0 Bits -----------------------------------------------------
  00000000            00537 DACNSS           EQU  H'0000'
  00000002            00538 DACPSS0          EQU  H'0002'
  00000003            00539 DACPSS1          EQU  H'0003'
  00000005            00540 DACOE            EQU  H'0005'
  00000006            00541 DACLPS           EQU  H'0006'
  00000007            00542 DACEN            EQU  H'0007'
                      00543 
                      00544 
                      00545 
                      00546 ;----- DACCON1 Bits -----------------------------------------------------
  00000000            00547 DACR0            EQU  H'0000'
  00000001            00548 DACR1            EQU  H'0001'
  00000002            00549 DACR2            EQU  H'0002'
  00000003            00550 DACR3            EQU  H'0003'
  00000004            00551 DACR4            EQU  H'0004'
                      00552 
                      00553 
                      00554 
                      00555 ;----- SRCON0 Bits -----------------------------------------------------
  00000000            00556 SRPR             EQU  H'0000'
  00000001            00557 SRPS             EQU  H'0001'
  00000002            00558 SRNQEN           EQU  H'0002'
  00000003            00559 SRQEN            EQU  H'0003'
  00000004            00560 SRCLK0           EQU  H'0004'
  00000005            00561 SRCLK1           EQU  H'0005'
  00000006            00562 SRCLK2           EQU  H'0006'
  00000007            00563 SRLEN            EQU  H'0007'
                      00564 
                      00565 
                      00566 
                      00567 ;----- SRCON1 Bits -----------------------------------------------------
  00000000            00568 SRRC1E           EQU  H'0000'
  00000001            00569 SRRC2E           EQU  H'0001'
  00000002            00570 SRRCKE           EQU  H'0002'
  00000003            00571 SRRPE            EQU  H'0003'
  00000004            00572 SRSC1E           EQU  H'0004'
gpasm-1.4.0 #1107 (Apr  3 2018) /media/user/s   1-9-2022  19:09:34          PAGE 12


LOC    OBJECT CODE    LINE  SOURCE TEXT
  VALUE

  00000005            00573 SRSC2E           EQU  H'0005'
  00000006            00574 SRSCKE           EQU  H'0006'
  00000007            00575 SRSPE            EQU  H'0007'
                      00576 
                      00577 
                      00578 ;----- APFCON0 Bits -----------------------------------------------------
  00000000            00579 CCP1SEL          EQU  H'0000'
  00000001            00580 P1CSEL           EQU  H'0001'
  00000002            00581 P1DSEL           EQU  H'0002'
  00000005            00582 SS1SEL           EQU  H'0005'
  00000006            00583 SDO1SEL          EQU  H'0006'
  00000007            00584 RXDTSEL          EQU  H'0007'
                      00585 
                      00586 
                      00587 ;----- APFCON1 Bits -----------------------------------------------------
  00000000            00588 TXCKSEL          EQU  H'0000'
                      00589 
                      00590 
                      00591 ;----- ANSELA Bits -----------------------------------------------------
  00000000            00592 ANSA0            EQU  H'0000'
  00000001            00593 ANSA1            EQU  H'0001'
  00000002            00594 ANSA2            EQU  H'0002'
  00000003            00595 ANSA3            EQU  H'0003'
  00000004            00596 ANSA4            EQU  H'0004'
                      00597 
                      00598 
                      00599 
                      00600 ;----- ANSELB Bits -----------------------------------------------------
  00000001            00601 ANSB1            EQU  H'0001'
  00000002            00602 ANSB2            EQU  H'0002'
  00000003            00603 ANSB3            EQU  H'0003'
  00000004            00604 ANSB4            EQU  H'0004'
  00000005            00605 ANSB5            EQU  H'0005'
  00000006            00606 ANSB6            EQU  H'0006'
  00000007            00607 ANSB7            EQU  H'0007'
                      00608 
                      00609 
                      00610 
                      00611 ;----- EECON1 Bits -----------------------------------------------------
  00000000            00612 RD               EQU  H'0000'
  00000001            00613 WR               EQU  H'0001'
  00000002            00614 WREN             EQU  H'0002'
  00000003            00615 WRERR            EQU  H'0003'
  00000004            00616 FREE             EQU  H'0004'
  00000005            00617 LWLO             EQU  H'0005'
  00000006            00618 CFGS             EQU  H'0006'
  00000007            00619 EEPGD            EQU  H'0007'
                      00620 
                      00621 
                      00622 ;----- RCSTA Bits -----------------------------------------------------
  00000000            00623 RX9D             EQU  H'0000'
  00000001            00624 OERR             EQU  H'0001'
  00000002            00625 FERR             EQU  H'0002'
gpasm-1.4.0 #1107 (Apr  3 2018) /media/user/s   1-9-2022  19:09:34          PAGE 13


LOC    OBJECT CODE    LINE  SOURCE TEXT
  VALUE

  00000003            00626 ADDEN            EQU  H'0003'
  00000004            00627 CREN             EQU  H'0004'
  00000005            00628 SREN             EQU  H'0005'
  00000006            00629 RX9              EQU  H'0006'
  00000007            00630 SPEN             EQU  H'0007'
                      00631 
                      00632 
                      00633 ;----- TXSTA Bits -----------------------------------------------------
  00000000            00634 TX9D             EQU  H'0000'
  00000001            00635 TRMT             EQU  H'0001'
  00000002            00636 BRGH             EQU  H'0002'
  00000003            00637 SENDB            EQU  H'0003'
  00000004            00638 SYNC             EQU  H'0004'
  00000005            00639 TXEN             EQU  H'0005'
  00000006            00640 TX9              EQU  H'0006'
  00000007            00641 CSRC             EQU  H'0007'
                      00642 
                      00643 
                      00644 ;----- BAUDCON Bits -----------------------------------------------------
  00000000            00645 ABDEN            EQU  H'0000'
  00000001            00646 WUE              EQU  H'0001'
  00000003            00647 BRG16            EQU  H'0003'
  00000004            00648 SCKP             EQU  H'0004'
  00000006            00649 RCIDL            EQU  H'0006'
  00000007            00650 ABDOVF           EQU  H'0007'
                      00651 
                      00652 
                      00653 ;----- WPUA Bits -----------------------------------------------------
  00000005            00654 WPUA5            EQU  H'0005'
                      00655 
                      00656 
                      00657 
                      00658 ;----- WPUB Bits -----------------------------------------------------
  00000000            00659 WPUB0            EQU  H'0000'
  00000001            00660 WPUB1            EQU  H'0001'
  00000002            00661 WPUB2            EQU  H'0002'
  00000003            00662 WPUB3            EQU  H'0003'
  00000004            00663 WPUB4            EQU  H'0004'
  00000005            00664 WPUB5            EQU  H'0005'
  00000006            00665 WPUB6            EQU  H'0006'
  00000007            00666 WPUB7            EQU  H'0007'
                      00667 
                      00668 
                      00669 
                      00670 ;----- SSP1STAT Bits -----------------------------------------------------
  00000000            00671 BF               EQU  H'0000'
  00000001            00672 UA               EQU  H'0001'
  00000002            00673 R_NOT_W          EQU  H'0002'
  00000003            00674 S                EQU  H'0003'
  00000004            00675 P                EQU  H'0004'
  00000005            00676 D_NOT_A          EQU  H'0005'
  00000006            00677 CKE              EQU  H'0006'
  00000007            00678 SMP              EQU  H'0007'
gpasm-1.4.0 #1107 (Apr  3 2018) /media/user/s   1-9-2022  19:09:34          PAGE 14


LOC    OBJECT CODE    LINE  SOURCE TEXT
  VALUE

                      00679 
                      00680 
                      00681 ;----- SSPSTAT Bits -----------------------------------------------------
  00000000            00682 BF               EQU  H'0000'
  00000001            00683 UA               EQU  H'0001'
  00000002            00684 R_NOT_W          EQU  H'0002'
  00000003            00685 S                EQU  H'0003'
  00000004            00686 P                EQU  H'0004'
  00000005            00687 D_NOT_A          EQU  H'0005'
  00000006            00688 CKE              EQU  H'0006'
  00000007            00689 SMP              EQU  H'0007'
                      00690 
                      00691 
                      00692 ;----- SSP1CON1 Bits -----------------------------------------------------
  00000000            00693 SSPM0            EQU  H'0000'
  00000001            00694 SSPM1            EQU  H'0001'
  00000002            00695 SSPM2            EQU  H'0002'
  00000003            00696 SSPM3            EQU  H'0003'
  00000004            00697 CKP              EQU  H'0004'
  00000005            00698 SSPEN            EQU  H'0005'
  00000006            00699 SSPOV            EQU  H'0006'
  00000007            00700 WCOL             EQU  H'0007'
                      00701 
                      00702 
                      00703 
                      00704 ;----- SSPCON Bits -----------------------------------------------------
  00000000            00705 SSPM0            EQU  H'0000'
  00000001            00706 SSPM1            EQU  H'0001'
  00000002            00707 SSPM2            EQU  H'0002'
  00000003            00708 SSPM3            EQU  H'0003'
  00000004            00709 CKP              EQU  H'0004'
  00000005            00710 SSPEN            EQU  H'0005'
  00000006            00711 SSPOV            EQU  H'0006'
  00000007            00712 WCOL             EQU  H'0007'
                      00713 
                      00714 
                      00715 
                      00716 ;----- SSPCON1 Bits -----------------------------------------------------
  00000000            00717 SSPM0            EQU  H'0000'
  00000001            00718 SSPM1            EQU  H'0001'
  00000002            00719 SSPM2            EQU  H'0002'
  00000003            00720 SSPM3            EQU  H'0003'
  00000004            00721 CKP              EQU  H'0004'
  00000005            00722 SSPEN            EQU  H'0005'
  00000006            00723 SSPOV            EQU  H'0006'
  00000007            00724 WCOL             EQU  H'0007'
                      00725 
                      00726 
                      00727 
                      00728 ;----- SSP1CON2 Bits -----------------------------------------------------
  00000000            00729 SEN              EQU  H'0000'
  00000001            00730 RSEN             EQU  H'0001'
  00000002            00731 PEN              EQU  H'0002'
gpasm-1.4.0 #1107 (Apr  3 2018) /media/user/s   1-9-2022  19:09:34          PAGE 15


LOC    OBJECT CODE    LINE  SOURCE TEXT
  VALUE

  00000003            00732 RCEN             EQU  H'0003'
  00000004            00733 ACKEN            EQU  H'0004'
  00000005            00734 ACKDT            EQU  H'0005'
  00000006            00735 ACKSTAT          EQU  H'0006'
  00000007            00736 GCEN             EQU  H'0007'
                      00737 
                      00738 
                      00739 ;----- SSPCON2 Bits -----------------------------------------------------
  00000000            00740 SEN              EQU  H'0000'
  00000001            00741 RSEN             EQU  H'0001'
  00000002            00742 PEN              EQU  H'0002'
  00000003            00743 RCEN             EQU  H'0003'
  00000004            00744 ACKEN            EQU  H'0004'
  00000005            00745 ACKDT            EQU  H'0005'
  00000006            00746 ACKSTAT          EQU  H'0006'
  00000007            00747 GCEN             EQU  H'0007'
                      00748 
                      00749 
                      00750 ;----- SSP1CON3 Bits -----------------------------------------------------
  00000000            00751 DHEN             EQU  H'0000'
  00000001            00752 AHEN             EQU  H'0001'
  00000002            00753 SBCDE            EQU  H'0002'
  00000003            00754 SDAHT            EQU  H'0003'
  00000004            00755 BOEN             EQU  H'0004'
  00000005            00756 SCIE             EQU  H'0005'
  00000006            00757 PCIE             EQU  H'0006'
  00000007            00758 ACKTIM           EQU  H'0007'
                      00759 
                      00760 
                      00761 ;----- SSPCON3 Bits -----------------------------------------------------
  00000000            00762 DHEN             EQU  H'0000'
  00000001            00763 AHEN             EQU  H'0001'
  00000002            00764 SBCDE            EQU  H'0002'
  00000003            00765 SDAHT            EQU  H'0003'
  00000004            00766 BOEN             EQU  H'0004'
  00000005            00767 SCIE             EQU  H'0005'
  00000006            00768 PCIE             EQU  H'0006'
  00000007            00769 ACKTIM           EQU  H'0007'
                      00770 
                      00771 
                      00772 ;----- CCP1CON Bits -----------------------------------------------------
  00000000            00773 CCP1M0           EQU  H'0000'
  00000001            00774 CCP1M1           EQU  H'0001'
  00000002            00775 CCP1M2           EQU  H'0002'
  00000003            00776 CCP1M3           EQU  H'0003'
  00000004            00777 DC1B0            EQU  H'0004'
  00000005            00778 DC1B1            EQU  H'0005'
  00000006            00779 P1M0             EQU  H'0006'
  00000007            00780 P1M1             EQU  H'0007'
                      00781 
                      00782 
                      00783 
                      00784 ;----- PWM1CON Bits -----------------------------------------------------
gpasm-1.4.0 #1107 (Apr  3 2018) /media/user/s   1-9-2022  19:09:34          PAGE 16


LOC    OBJECT CODE    LINE  SOURCE TEXT
  VALUE

  00000000            00785 P1DC0            EQU  H'0000'
  00000001            00786 P1DC1            EQU  H'0001'
  00000002            00787 P1DC2            EQU  H'0002'
  00000003            00788 P1DC3            EQU  H'0003'
  00000004            00789 P1DC4            EQU  H'0004'
  00000005            00790 P1DC5            EQU  H'0005'
  00000006            00791 P1DC6            EQU  H'0006'
  00000007            00792 P1RSEN           EQU  H'0007'
                      00793 
                      00794 
                      00795 
                      00796 ;----- CCP1AS Bits -----------------------------------------------------
  00000000            00797 PSS1BD0          EQU  H'0000'
  00000001            00798 PSS1BD1          EQU  H'0001'
  00000002            00799 PSS1AC0          EQU  H'0002'
  00000003            00800 PSS1AC1          EQU  H'0003'
  00000004            00801 CCP1AS0          EQU  H'0004'
  00000005            00802 CCP1AS1          EQU  H'0005'
  00000006            00803 CCP1AS2          EQU  H'0006'
  00000007            00804 CCP1ASE          EQU  H'0007'
                      00805 
                      00806 
                      00807 
                      00808 ;----- ECCP1AS Bits -----------------------------------------------------
  00000000            00809 PSS1BD0          EQU  H'0000'
  00000001            00810 PSS1BD1          EQU  H'0001'
  00000002            00811 PSS1AC0          EQU  H'0002'
  00000003            00812 PSS1AC1          EQU  H'0003'
  00000004            00813 CCP1AS0          EQU  H'0004'
  00000005            00814 CCP1AS1          EQU  H'0005'
  00000006            00815 CCP1AS2          EQU  H'0006'
  00000007            00816 CCP1ASE          EQU  H'0007'
                      00817 
                      00818 
                      00819 
                      00820 ;----- PSTR1CON Bits -----------------------------------------------------
  00000000            00821 STR1A            EQU  H'0000'
  00000001            00822 STR1B            EQU  H'0001'
  00000002            00823 STR1C            EQU  H'0002'
  00000003            00824 STR1D            EQU  H'0003'
  00000004            00825 STR1SYNC         EQU  H'0004'
                      00826 
                      00827 
                      00828 ;----- IOCBP Bits -----------------------------------------------------
  00000000            00829 IOCBP0           EQU  H'0000'
  00000001            00830 IOCBP1           EQU  H'0001'
  00000002            00831 IOCBP2           EQU  H'0002'
  00000003            00832 IOCBP3           EQU  H'0003'
  00000004            00833 IOCBP4           EQU  H'0004'
  00000005            00834 IOCBP5           EQU  H'0005'
  00000006            00835 IOCBP6           EQU  H'0006'
  00000007            00836 IOCBP7           EQU  H'0007'
                      00837 
gpasm-1.4.0 #1107 (Apr  3 2018) /media/user/s   1-9-2022  19:09:34          PAGE 17


LOC    OBJECT CODE    LINE  SOURCE TEXT
  VALUE

                      00838 
                      00839 
                      00840 ;----- IOCBN Bits -----------------------------------------------------
  00000000            00841 IOCBN0           EQU  H'0000'
  00000001            00842 IOCBN1           EQU  H'0001'
  00000002            00843 IOCBN2           EQU  H'0002'
  00000003            00844 IOCBN3           EQU  H'0003'
  00000004            00845 IOCBN4           EQU  H'0004'
  00000005            00846 IOCBN5           EQU  H'0005'
  00000006            00847 IOCBN6           EQU  H'0006'
  00000007            00848 IOCBN7           EQU  H'0007'
                      00849 
                      00850 
                      00851 
                      00852 ;----- IOCBF Bits -----------------------------------------------------
  00000000            00853 IOCBF0           EQU  H'0000'
  00000001            00854 IOCBF1           EQU  H'0001'
  00000002            00855 IOCBF2           EQU  H'0002'
  00000003            00856 IOCBF3           EQU  H'0003'
  00000004            00857 IOCBF4           EQU  H'0004'
  00000005            00858 IOCBF5           EQU  H'0005'
  00000006            00859 IOCBF6           EQU  H'0006'
  00000007            00860 IOCBF7           EQU  H'0007'
                      00861 
                      00862 
                      00863 
                      00864 ;----- CLKRCON Bits -----------------------------------------------------
  00000000            00865 CLKRDIV0         EQU  H'0000'
  00000001            00866 CLKRDIV1         EQU  H'0001'
  00000002            00867 CLKRDIV2         EQU  H'0002'
  00000003            00868 CLKRDC0          EQU  H'0003'
  00000004            00869 CLKRDC1          EQU  H'0004'
  00000005            00870 CLKRSLR          EQU  H'0005'
  00000006            00871 CLKROE           EQU  H'0006'
  00000007            00872 CLKREN           EQU  H'0007'
                      00873 
                      00874 
                      00875 
                      00876 ;----- MDCON Bits -----------------------------------------------------
  00000000            00877 MDBIT            EQU  H'0000'
  00000003            00878 MDOUT            EQU  H'0003'
  00000004            00879 MDOPOL           EQU  H'0004'
  00000005            00880 MDSLR            EQU  H'0005'
  00000006            00881 MDOE             EQU  H'0006'
  00000007            00882 MDEN             EQU  H'0007'
                      00883 
                      00884 
                      00885 ;----- MDSRC Bits -----------------------------------------------------
  00000000            00886 MDMS0            EQU  H'0000'
  00000001            00887 MDMS1            EQU  H'0001'
  00000002            00888 MDMS2            EQU  H'0002'
  00000003            00889 MDMS3            EQU  H'0003'
  00000007            00890 MDMSODIS         EQU  H'0007'
gpasm-1.4.0 #1107 (Apr  3 2018) /media/user/s   1-9-2022  19:09:34          PAGE 18


LOC    OBJECT CODE    LINE  SOURCE TEXT
  VALUE

                      00891 
                      00892 
                      00893 
                      00894 ;----- MDCARL Bits -----------------------------------------------------
  00000000            00895 MDCL0            EQU  H'0000'
  00000001            00896 MDCL1            EQU  H'0001'
  00000002            00897 MDCL2            EQU  H'0002'
  00000003            00898 MDCL3            EQU  H'0003'
  00000005            00899 MDCLSYNC         EQU  H'0005'
  00000006            00900 MDCLPOL          EQU  H'0006'
  00000007            00901 MDCLODIS         EQU  H'0007'
                      00902 
                      00903 
                      00904 
                      00905 ;----- MDCARH Bits -----------------------------------------------------
  00000000            00906 MDCH0            EQU  H'0000'
  00000001            00907 MDCH1            EQU  H'0001'
  00000002            00908 MDCH2            EQU  H'0002'
  00000003            00909 MDCH3            EQU  H'0003'
  00000005            00910 MDCHSYNC         EQU  H'0005'
  00000006            00911 MDCHPOL          EQU  H'0006'
  00000007            00912 MDCHODIS         EQU  H'0007'
                      00913 
                      00914 
                      00915 
                      00916 ;----- STATUS_SHAD Bits -----------------------------------------------------
  00000000            00917 C_SHAD           EQU  H'0000'
  00000001            00918 DC_SHAD          EQU  H'0001'
  00000002            00919 Z_SHAD           EQU  H'0002'
                      00920 
                      00921 
                      00922 
                      00923 ;==========================================================================
                      00924 ;
                      00925 ;       RAM Definitions
                      00926 ;
                      00927 ;==========================================================================
  00000FFF            00928        __MAXRAM  H'0FFF'
                      00929        __BADRAM  H'000E'-H'0010'
                      00930        __BADRAM  H'0013'-H'0014'
                      00931        __BADRAM  H'001D'
                      00932        __BADRAM  H'008E'-H'0090'
                      00933        __BADRAM  H'0093'-H'0094'
                      00934        __BADRAM  H'009F'
                      00935        __BADRAM  H'010E'-H'0110'
                      00936        __BADRAM  H'011C'
                      00937        __BADRAM  H'011F'
                      00938        __BADRAM  H'018E'-H'0190'
                      00939        __BADRAM  H'0197'-H'0198'
                      00940        __BADRAM  H'01A0'-H'01EF'
                      00941        __BADRAM  H'020E'-H'0210'
                      00942        __BADRAM  H'0218'-H'021F'
                      00943        __BADRAM  H'0220'-H'026F'
gpasm-1.4.0 #1107 (Apr  3 2018) /media/user/s   1-9-2022  19:09:34          PAGE 19


LOC    OBJECT CODE    LINE  SOURCE TEXT
  VALUE

                      00944        __BADRAM  H'028C'-H'0290'
                      00945        __BADRAM  H'0297'-H'029F'
                      00946        __BADRAM  H'02A0'-H'02EF'
                      00947        __BADRAM  H'030C'-H'031F'
                      00948        __BADRAM  H'0320'-H'036F'
                      00949        __BADRAM  H'038C'-H'0393'
                      00950        __BADRAM  H'0397'-H'0399'
                      00951        __BADRAM  H'039B'
                      00952        __BADRAM  H'03A0'-H'03EF'
                      00953        __BADRAM  H'040C'-H'041F'
                      00954        __BADRAM  H'0420'-H'046F'
                      00955        __BADRAM  H'048C'-H'049F'
                      00956        __BADRAM  H'04A0'-H'04EF'
                      00957        __BADRAM  H'050C'-H'051F'
                      00958        __BADRAM  H'0520'-H'056F'
                      00959        __BADRAM  H'058C'-H'059F'
                      00960        __BADRAM  H'05A0'-H'05EF'
                      00961        __BADRAM  H'060C'-H'061F'
                      00962        __BADRAM  H'0620'-H'066F'
                      00963        __BADRAM  H'068C'-H'069F'
                      00964        __BADRAM  H'06A0'-H'06EF'
                      00965        __BADRAM  H'070C'-H'071F'
                      00966        __BADRAM  H'0720'-H'076F'
                      00967        __BADRAM  H'078C'-H'079F'
                      00968        __BADRAM  H'07A0'-H'07EF'
                      00969        __BADRAM  H'080C'-H'081F'
                      00970        __BADRAM  H'0820'-H'086F'
                      00971        __BADRAM  H'088C'-H'089F'
                      00972        __BADRAM  H'08A0'-H'08EF'
                      00973        __BADRAM  H'090C'-H'091F'
                      00974        __BADRAM  H'0920'-H'096F'
                      00975        __BADRAM  H'098C'-H'099F'
                      00976        __BADRAM  H'09A0'-H'09EF'
                      00977        __BADRAM  H'0A0C'-H'0A1F'
                      00978        __BADRAM  H'0A20'-H'0A6F'
                      00979        __BADRAM  H'0A8C'-H'0A9F'
                      00980        __BADRAM  H'0AA0'-H'0AEF'
                      00981        __BADRAM  H'0B0C'-H'0B1F'
                      00982        __BADRAM  H'0B20'-H'0B6F'
                      00983        __BADRAM  H'0B8C'-H'0B9F'
                      00984        __BADRAM  H'0BA0'-H'0BEF'
                      00985        __BADRAM  H'0C0C'-H'0C1F'
                      00986        __BADRAM  H'0C20'-H'0C6F'
                      00987        __BADRAM  H'0C8C'-H'0C9F'
                      00988        __BADRAM  H'0CA0'-H'0CEF'
                      00989        __BADRAM  H'0D0C'-H'0D1F'
                      00990        __BADRAM  H'0D20'-H'0D6F'
                      00991        __BADRAM  H'0D8C'-H'0D9F'
                      00992        __BADRAM  H'0DA0'-H'0DEF'
                      00993        __BADRAM  H'0E0C'-H'0E1F'
                      00994        __BADRAM  H'0E20'-H'0E6F'
                      00995        __BADRAM  H'0E8C'-H'0E9F'
                      00996        __BADRAM  H'0EA0'-H'0EEF'
gpasm-1.4.0 #1107 (Apr  3 2018) /media/user/s   1-9-2022  19:09:34          PAGE 20


LOC    OBJECT CODE    LINE  SOURCE TEXT
  VALUE

                      00997        __BADRAM  H'0F0C'-H'0F1F'
                      00998        __BADRAM  H'0F20'-H'0F6F'
                      00999        __BADRAM  H'0F8C'-H'0FE3'
                      01000        __BADRAM  H'0FEC'
                      01001 
                      01002 ;==========================================================================
                      01003 ;
                      01004 ;       Configuration Bits
                      01005 ;
                      01006 ;   NAME            Address
                      01007 ;   CONFIG1           8007h
                      01008 ;   CONFIG2           8008h
                      01009 ;
                      01010 ;==========================================================================
                      01011 
                      01012 ; The following is an assignment of address values for all of the
                      01013 ; configuration registers for the purpose of table reads
  00008007            01014 _CONFIG1         EQU  H'8007'
  00008008            01015 _CONFIG2         EQU  H'8008'
                      01016 
                      01017 ;----- CONFIG1 Options --------------------------------------------------
  0000FFF8            01018 _FOSC_LP         EQU  H'FFF8'    ; LP Oscillator, Low-power crystal connected between OSC1 and OSC2 pins
  0000FFF9            01019 _FOSC_XT         EQU  H'FFF9'    ; XT Oscillator, Crystal/resonator connected between OSC1 and OSC2 pins
  0000FFFA            01020 _FOSC_HS         EQU  H'FFFA'    ; HS Oscillator, High-speed crystal/resonator connected between OSC1 an
                            d OSC2 pins
  0000FFFB            01021 _FOSC_EXTRC      EQU  H'FFFB'    ; EXTRC oscillator: External RC circuit connected to CLKIN pin
  0000FFFC            01022 _FOSC_INTOSC     EQU  H'FFFC'    ; INTOSC oscillator: I/O function on CLKIN pin
  0000FFFD            01023 _FOSC_ECL        EQU  H'FFFD'    ; ECL, External Clock, Low Power Mode (0-0.5 MHz): device clock supplie
                            d to CLKIN pin
  0000FFFE            01024 _FOSC_ECM        EQU  H'FFFE'    ; ECM, External Clock, Medium Power Mode (0.5-4 MHz): device clock supp
                            lied to CLKIN pin
  0000FFFF            01025 _FOSC_ECH        EQU  H'FFFF'    ; ECH, External Clock, High Power Mode (4-32 MHz): device clock supplie
                            d to CLKIN pin
                      01026 
  0000FFE7            01027 _WDTE_OFF        EQU  H'FFE7'    ; WDT disabled
  0000FFEF            01028 _WDTE_SWDTEN     EQU  H'FFEF'    ; WDT controlled by the SWDTEN bit in the WDTCON register
  0000FFF7            01029 _WDTE_NSLEEP     EQU  H'FFF7'    ; WDT enabled while running and disabled in Sleep
  0000FFFF            01030 _WDTE_ON         EQU  H'FFFF'    ; WDT enabled
                      01031 
  0000FFDF            01032 _PWRTE_ON        EQU  H'FFDF'    ; PWRT enabled
  0000FFFF            01033 _PWRTE_OFF       EQU  H'FFFF'    ; PWRT disabled
                      01034 
  0000FFBF            01035 _MCLRE_OFF       EQU  H'FFBF'    ; MCLR/VPP pin function is digital input
  0000FFFF            01036 _MCLRE_ON        EQU  H'FFFF'    ; MCLR/VPP pin function is MCLR
                      01037 
  0000FF7F            01038 _CP_ON           EQU  H'FF7F'    ; Program memory code protection is enabled
  0000FFFF            01039 _CP_OFF          EQU  H'FFFF'    ; Program memory code protection is disabled
                      01040 
  0000FEFF            01041 _CPD_ON          EQU  H'FEFF'    ; Data memory code protection is enabled
  0000FFFF            01042 _CPD_OFF         EQU  H'FFFF'    ; Data memory code protection is disabled
                      01043 
  0000F9FF            01044 _BOREN_OFF       EQU  H'F9FF'    ; Brown-out Reset disabled
  0000FBFF            01045 _BOREN_SBODEN    EQU  H'FBFF'    ; Brown-out Reset controlled by the SBOREN bit in the BORCON register
gpasm-1.4.0 #1107 (Apr  3 2018) /media/user/s   1-9-2022  19:09:34          PAGE 21


LOC    OBJECT CODE    LINE  SOURCE TEXT
  VALUE

  0000FDFF            01046 _BOREN_NSLEEP    EQU  H'FDFF'    ; Brown-out Reset enabled while running and disabled in Sleep
  0000FFFF            01047 _BOREN_ON        EQU  H'FFFF'    ; Brown-out Reset enabled
                      01048 
  0000F7FF            01049 _CLKOUTEN_ON     EQU  H'F7FF'    ; CLKOUT function is enabled on the CLKOUT pin
  0000FFFF            01050 _CLKOUTEN_OFF    EQU  H'FFFF'    ; CLKOUT function is disabled. I/O or oscillator function on the CLKOUT
                             pin
                      01051 
  0000EFFF            01052 _IESO_OFF        EQU  H'EFFF'    ; Internal/External Switchover mode is disabled
  0000FFFF            01053 _IESO_ON         EQU  H'FFFF'    ; Internal/External Switchover mode is enabled
                      01054 
  0000DFFF            01055 _FCMEN_OFF       EQU  H'DFFF'    ; Fail-Safe Clock Monitor is disabled
  0000FFFF            01056 _FCMEN_ON        EQU  H'FFFF'    ; Fail-Safe Clock Monitor is enabled
                      01057 
                      01058 ;----- CONFIG2 Options --------------------------------------------------
  0000FFFC            01059 _WRT_ALL         EQU  H'FFFC'    ; 000h to 7FFh write protected, no addresses may be modified by EECON c
                            ontrol
  0000FFFD            01060 _WRT_HALF        EQU  H'FFFD'    ; 000h to 3FFh write protected, 400h to 7FFh may be modified by EECON c
                            ontrol
  0000FFFE            01061 _WRT_BOOT        EQU  H'FFFE'    ; 000h to 1FFh write protected, 200h to 7FFh may be modified by EECON c
                            ontrol
  0000FFFF            01062 _WRT_OFF         EQU  H'FFFF'    ; Write protection off
                      01063 
  0000FEFF            01064 _PLLEN_OFF       EQU  H'FEFF'    ; 4x PLL disabled
  0000FFFF            01065 _PLLEN_ON        EQU  H'FFFF'    ; 4x PLL enabled
                      01066 
  0000FDFF            01067 _STVREN_OFF      EQU  H'FDFF'    ; Stack Overflow or Underflow will not cause a Reset
  0000FFFF            01068 _STVREN_ON       EQU  H'FFFF'    ; Stack Overflow or Underflow will cause a Reset
                      01069 
  0000FBFF            01070 _BORV_HI         EQU  H'FBFF'    ; Brown-out Reset Voltage (Vbor), high trip point selected.
  0000FFFF            01071 _BORV_LO         EQU  H'FFFF'    ; Brown-out Reset Voltage (Vbor), low trip point selected.
  0000FFFF            01072 _BORV_19         EQU  H'FFFF'    ; Brown-out Reset Voltage (Vbor), low trip point selected.
                      01073 
                      01074 ;;;; Begin: Added in gputils
  00002FFF            01075 _DEBUG_ON        EQU  H'2FFF'    ; In-Circuit Debugger enabled, ICSPCLK and ICSPDAT are dedicated to the
                             debugger.
  00003FFF            01076 _DEBUG_OFF       EQU  H'3FFF'    ; In-Circuit Debugger disabled, ICSPCLK and ICSPDAT are general purpose
                             I/O pins.
                      01077 
                      01078 ;;;; End: Added in gputils
  0000DFFF            01079 _LVP_OFF         EQU  H'DFFF'    ; High-voltage on MCLR/VPP must be used for programming
  0000FFFF            01080 _LVP_ON          EQU  H'FFFF'    ; Low-voltage programming enabled
                      01081 
                      01082 ;----- DEVID Equates --------------------------------------------------
  00008006            01083 _DEVID1          EQU  H'8006'
                      01084 
                      01085 ;----- IDLOC Equates --------------------------------------------------
  00008000            01086 _IDLOC0          EQU  H'8000'
  00008001            01087 _IDLOC1          EQU  H'8001'
  00008002            01088 _IDLOC2          EQU  H'8002'
  00008003            01089 _IDLOC3          EQU  H'8003'
                      01090 
                      01091         LIST
8007   FFA2           00010  __CONFIG _CONFIG1, _FCMEN_ON & _CLKOUTEN_OFF & _CPD_OFF & _CP_OFF & _MCLRE_OFF & _WDTE_OFF & _FOSC_HS
gpasm-1.4.0 #1107 (Apr  3 2018) /media/user/s   1-9-2022  19:09:34          PAGE 22


LOC    OBJECT CODE    LINE  SOURCE TEXT
  VALUE

8008   DEFF           00011  __CONFIG _CONFIG2, _LVP_OFF & _PLLEN_OFF & _WRT_OFF
                      00012 
                      00013 ;********************************************************************************
                      00014 
                      00015 ;Set aside memory locations for variables
  00000070            00016 DELAYTEMP                        EQU 112
  00000071            00017 DELAYTEMP2                       EQU 113
  00000072            00018 SYSWAITTEMPMS                    EQU 114
  00000073            00019 SYSWAITTEMPMS_H                  EQU 115
                      00020 
                      00021 ;********************************************************************************
                      00022 
                      00023 ;Vectors
0000                  00024         ORG     0
                      00025         pagesel BASPROGRAMSTART
0000   2805           00026         goto    BASPROGRAMSTART
0004                  00027         ORG     4
0004   0009           00028         retfie
                      00029 
                      00030 ;********************************************************************************
                      00031 
                      00032 ;Start of program memory page 0
0005                  00033         ORG     5
0005                  00034 BASPROGRAMSTART
                      00035 ;Call initialisation routines
0005   2047           00036         call    INITSYS
                      00037 ;Automatic pin direction setting
0006   0021           00038         banksel TRISB
0007   018D           00039         clrf    TRISB
0008   018C           00040         clrf    TRISA
0009   100D           00041         bcf     TRISB,0
                      00042 
                      00043 ;Start of the main program
000A   018C           00044         clrf    TRISA
000B                  00045 SysDoLoop_S1
000B   0022           00046         banksel LATB
000C   140D           00047         bsf     LATB,0
000D   30C8           00048         movlw   200
000E   00F2           00049         movwf   SysWaitTempMS
000F   01F3           00050         clrf    SysWaitTempMS_H
0010   0020           00051         banksel STATUS
0011   2039           00052         call    Delay_MS
0012   0022           00053         banksel LATB
0013   100D           00054         bcf     LATB,0
0014   30C8           00055         movlw   200
0015   00F2           00056         movwf   SysWaitTempMS
0016   01F3           00057         clrf    SysWaitTempMS_H
0017   0020           00058         banksel STATUS
0018   2039           00059         call    Delay_MS
0019   3001           00060         movlw   1
001A   008C           00061         movwf   PORTA
001B   3001           00062         movlw   1
001C   008D           00063         movwf   PORTB
gpasm-1.4.0 #1107 (Apr  3 2018) /media/user/s   1-9-2022  19:09:34          PAGE 23


LOC    OBJECT CODE    LINE  SOURCE TEXT
  VALUE

001D   30C8           00064         movlw   200
001E   00F2           00065         movwf   SysWaitTempMS
001F   01F3           00066         clrf    SysWaitTempMS_H
0020   2039           00067         call    Delay_MS
0021   018D           00068         clrf    PORTB
0022   30C8           00069         movlw   200
0023   00F2           00070         movwf   SysWaitTempMS
0024   01F3           00071         clrf    SysWaitTempMS_H
0025   2039           00072         call    Delay_MS
0026   3002           00073         movlw   2
0027   008C           00074         movwf   PORTA
0028   0022           00075         banksel LATB
0029   140D           00076         bsf     LATB,RB0
002A   30C8           00077         movlw   200
002B   00F2           00078         movwf   SysWaitTempMS
002C   01F3           00079         clrf    SysWaitTempMS_H
002D   0020           00080         banksel STATUS
002E   2039           00081         call    Delay_MS
002F   0022           00082         banksel LATB
0030   100D           00083         bcf     LATB,RB0
0031   30C8           00084         movlw   200
0032   00F2           00085         movwf   SysWaitTempMS
0033   01F3           00086         clrf    SysWaitTempMS_H
0034   0020           00087         banksel STATUS
0035   2039           00088         call    Delay_MS
0036   280B           00089         goto    SysDoLoop_S1
0037                  00090 SysDoLoop_E1
0037                  00091 BASPROGRAMEND
0037   0063           00092         sleep
0038   2837           00093         goto    BASPROGRAMEND
                      00094 
                      00095 ;********************************************************************************
                      00096 
0039                  00097 Delay_MS
0039   0AF3           00098         incf    SysWaitTempMS_H, F
003A                  00099 DMS_START
003A   30E3           00100         movlw   227
003B   00F1           00101         movwf   DELAYTEMP2
003C                  00102 DMS_OUTER
003C   3006           00103         movlw   6
003D   00F0           00104         movwf   DELAYTEMP
003E                  00105 DMS_INNER
003E   0BF0           00106         decfsz  DELAYTEMP, F
003F   283E           00107         goto    DMS_INNER
0040   0BF1           00108         decfsz  DELAYTEMP2, F
0041   283C           00109         goto    DMS_OUTER
0042   0BF2           00110         decfsz  SysWaitTempMS, F
0043   283A           00111         goto    DMS_START
0044   0BF3           00112         decfsz  SysWaitTempMS_H, F
0045   283A           00113         goto    DMS_START
0046   0008           00114         return
                      00115 
                      00116 ;********************************************************************************
gpasm-1.4.0 #1107 (Apr  3 2018) /media/user/s   1-9-2022  19:09:34          PAGE 24


LOC    OBJECT CODE    LINE  SOURCE TEXT
  VALUE

                      00117 
0047                  00118 INITSYS
                      00119 ;asm showdebug _For_selected_frequency_-_the_external_oscillator_has_been_selected_by_compiler ChipMHz
                      00120 ;asm showdebug _Complete_the_chip_setup_of_BSR,ADCs,ANSEL_and_other_key_setup_registers_or_register_bits
0047   0021           00121         banksel ADCON1
0048   139E           00122         bcf     ADCON1,ADFM
0049   101D           00123         bcf     ADCON0,ADON
004A   0023           00124         banksel ANSELA
004B   018C           00125         clrf    ANSELA
004C   018D           00126         clrf    ANSELB
004D   0022           00127         banksel CM2CON0
004E   1393           00128         bcf     CM2CON0,C2ON
004F   1391           00129         bcf     CM1CON0,C1ON
0050   0020           00130         banksel PORTA
0051   018C           00131         clrf    PORTA
0052   018D           00132         clrf    PORTB
0053   0008           00133         return
                      00134 
                      00135 ;********************************************************************************
                      00136 
                      00137 
                      00138  END
gpasm-1.4.0 #1107 (Apr  3 2018) /media/user/s   1-9-2022  19:09:34          PAGE 25


SYMBOL TABLE
  LABEL                             VALUE

ABDEN                             00000000
ABDOVF                            00000007
ACKDT                             00000005
ACKEN                             00000004
ACKSTAT                           00000006
ACKTIM                            00000007
ADCON0                            0000009D
ADCON1                            0000009E
ADCS0                             00000004
ADCS1                             00000005
ADCS2                             00000006
ADDEN                             00000003
ADFM                              00000007
ADFVR0                            00000000
ADFVR1                            00000001
ADGO                              00000001
ADIE                              00000006
ADIF                              00000006
ADNREF                            00000002
ADON                              00000000
ADPREF0                           00000000
ADPREF1                           00000001
ADRES                             0000009B
ADRESH                            0000009C
ADRESL                            0000009B
AHEN                              00000001
ANSA0                             00000000
ANSA1                             00000001
ANSA2                             00000002
ANSA3                             00000003
ANSA4                             00000004
ANSB1                             00000001
ANSB2                             00000002
ANSB3                             00000003
ANSB4                             00000004
ANSB5                             00000005
ANSB6                             00000006
ANSB7                             00000007
ANSELA                            0000018C
ANSELB                            0000018D
APFCON0                           0000011D
APFCON1                           0000011E
BASPROGRAMEND                     00000037
BASPROGRAMSTART                   00000005
BAUDCON                           0000019F
BCL1IE                            00000003
BCL1IF                            00000003
BF                                00000000
BOEN                              00000004
BORCON                            00000116
BORRDY                            00000000
BRG16                             00000003
BRGH                              00000002
gpasm-1.4.0 #1107 (Apr  3 2018) /media/user/s   1-9-2022  19:09:34          PAGE 26


SYMBOL TABLE
  LABEL                             VALUE 

BSR                               00000008
BSR0                              00000000
BSR1                              00000001
BSR2                              00000002
BSR3                              00000003
BSR4                              00000004
BSR_SHAD                          00000FE6
C                                 00000000
C1HYS                             00000001
C1IE                              00000005
C1IF                              00000005
C1INTN                            00000006
C1INTP                            00000007
C1NCH0                            00000000
C1NCH1                            00000001
C1OE                              00000005
C1ON                              00000007
C1OUT                             00000006
C1PCH0                            00000004
C1PCH1                            00000005
C1POL                             00000004
C1SP                              00000002
C1SYNC                            00000000
C2HYS                             00000001
C2IE                              00000006
C2IF                              00000006
C2INTN                            00000006
C2INTP                            00000007
C2NCH0                            00000000
C2NCH1                            00000001
C2OE                              00000005
C2ON                              00000007
C2OUT                             00000006
C2PCH0                            00000004
C2PCH1                            00000005
C2POL                             00000004
C2SP                              00000002
C2SYNC                            00000000
CCP1AS                            00000295
CCP1AS0                           00000004
CCP1AS1                           00000005
CCP1AS2                           00000006
CCP1ASE                           00000007
CCP1CON                           00000293
CCP1IE                            00000002
CCP1IF                            00000002
CCP1M0                            00000000
CCP1M1                            00000001
CCP1M2                            00000002
CCP1M3                            00000003
CCP1SEL                           00000000
CCPR1                             00000291
CCPR1H                            00000292
gpasm-1.4.0 #1107 (Apr  3 2018) /media/user/s   1-9-2022  19:09:34          PAGE 27


SYMBOL TABLE
  LABEL                             VALUE 

CCPR1L                            00000291
CDAFVR0                           00000002
CDAFVR1                           00000003
CFGS                              00000006
CHS0                              00000002
CHS1                              00000003
CHS2                              00000004
CHS3                              00000005
CHS4                              00000006
CKE                               00000006
CKP                               00000004
CLKRCON                           0000039A
CLKRDC0                           00000003
CLKRDC1                           00000004
CLKRDIV0                          00000000
CLKRDIV1                          00000001
CLKRDIV2                          00000002
CLKREN                            00000007
CLKROE                            00000006
CLKRSLR                           00000005
CM1CON0                           00000111
CM1CON1                           00000112
CM2CON0                           00000113
CM2CON1                           00000114
CMOUT                             00000115
CPSCH0                            00000000
CPSCH1                            00000001
CPSCH2                            00000002
CPSCH3                            00000003
CPSCON0                           0000001E
CPSCON1                           0000001F
CPSON                             00000007
CPSOUT                            00000001
CPSRNG0                           00000002
CPSRNG1                           00000003
CREN                              00000004
CSRC                              00000007
C_SHAD                            00000000
DACCON0                           00000118
DACCON1                           00000119
DACEN                             00000007
DACLPS                            00000006
DACNSS                            00000000
DACOE                             00000005
DACPSS0                           00000002
DACPSS1                           00000003
DACR0                             00000000
DACR1                             00000001
DACR2                             00000002
DACR3                             00000003
DACR4                             00000004
DC                                00000001
DC1B0                             00000004
gpasm-1.4.0 #1107 (Apr  3 2018) /media/user/s   1-9-2022  19:09:34          PAGE 28


SYMBOL TABLE
  LABEL                             VALUE 

DC1B1                             00000005
DC_SHAD                           00000001
DELAYTEMP                         00000070
DELAYTEMP2                        00000071
DHEN                              00000000
DMS_INNER                         0000003E
DMS_OUTER                         0000003C
DMS_START                         0000003A
D_NOT_A                           00000005
Delay_MS                          00000039
ECCP1AS                           00000295
EEADR                             00000191
EEADRH                            00000192
EEADRL                            00000191
EECON1                            00000195
EECON2                            00000196
EEDAT                             00000193
EEDATH                            00000194
EEDATL                            00000193
EEIE                              00000004
EEIF                              00000004
EEPGD                             00000007
F                                 00000001
FERR                              00000002
FREE                              00000004
FSR0                              00000004
FSR0H                             00000005
FSR0H_SHAD                        00000FE9
FSR0L                             00000004
FSR0L_SHAD                        00000FE8
FSR1                              00000006
FSR1H                             00000007
FSR1H_SHAD                        00000FEB
FSR1L                             00000006
FSR1L_SHAD                        00000FEA
FVRCON                            00000117
FVREN                             00000007
FVRRDY                            00000006
GCEN                              00000007
GIE                               00000007
GO                                00000001
GO_NOT_DONE                       00000001
HFIOFL                            00000003
HFIOFR                            00000004
HFIOFS                            00000000
INDF0                             00000000
INDF1                             00000001
INITSYS                           00000047
INTCON                            0000000B
INTE                              00000004
INTEDG                            00000006
INTF                              00000001
IOCBF                             00000396
gpasm-1.4.0 #1107 (Apr  3 2018) /media/user/s   1-9-2022  19:09:34          PAGE 29


SYMBOL TABLE
  LABEL                             VALUE 

IOCBF0                            00000000
IOCBF1                            00000001
IOCBF2                            00000002
IOCBF3                            00000003
IOCBF4                            00000004
IOCBF5                            00000005
IOCBF6                            00000006
IOCBF7                            00000007
IOCBN                             00000395
IOCBN0                            00000000
IOCBN1                            00000001
IOCBN2                            00000002
IOCBN3                            00000003
IOCBN4                            00000004
IOCBN5                            00000005
IOCBN6                            00000006
IOCBN7                            00000007
IOCBP                             00000394
IOCBP0                            00000000
IOCBP1                            00000001
IOCBP2                            00000002
IOCBP3                            00000003
IOCBP4                            00000004
IOCBP5                            00000005
IOCBP6                            00000006
IOCBP7                            00000007
IOCIE                             00000003
IOCIF                             00000000
IRCF0                             00000003
IRCF1                             00000004
IRCF2                             00000005
IRCF3                             00000006
LATA                              0000010C
LATA0                             00000000
LATA1                             00000001
LATA2                             00000002
LATA3                             00000003
LATA4                             00000004
LATA6                             00000006
LATA7                             00000007
LATB                              0000010D
LATB0                             00000000
LATB1                             00000001
LATB2                             00000002
LATB3                             00000003
LATB4                             00000004
LATB5                             00000005
LATB6                             00000006
LATB7                             00000007
LFIOFR                            00000001
LWLO                              00000005
MC1OUT                            00000000
MC2OUT                            00000001
gpasm-1.4.0 #1107 (Apr  3 2018) /media/user/s   1-9-2022  19:09:34          PAGE 30


SYMBOL TABLE
  LABEL                             VALUE 

MDBIT                             00000000
MDCARH                            0000039F
MDCARL                            0000039E
MDCH0                             00000000
MDCH1                             00000001
MDCH2                             00000002
MDCH3                             00000003
MDCHODIS                          00000007
MDCHPOL                           00000006
MDCHSYNC                          00000005
MDCL0                             00000000
MDCL1                             00000001
MDCL2                             00000002
MDCL3                             00000003
MDCLODIS                          00000007
MDCLPOL                           00000006
MDCLSYNC                          00000005
MDCON                             0000039C
MDEN                              00000007
MDMS0                             00000000
MDMS1                             00000001
MDMS2                             00000002
MDMS3                             00000003
MDMSODIS                          00000007
MDOE                              00000006
MDOPOL                            00000004
MDOUT                             00000003
MDSLR                             00000005
MDSRC                             0000039D
MFIOFR                            00000002
NOT_BOR                           00000000
NOT_PD                            00000003
NOT_POR                           00000001
NOT_RI                            00000002
NOT_RMCLR                         00000003
NOT_T1SYNC                        00000002
NOT_TO                            00000004
NOT_WPUEN                         00000007
OERR                              00000001
OPTION_REG                        00000095
OSCCON                            00000099
OSCSTAT                           0000009A
OSCTUNE                           00000098
OSFIE                             00000007
OSFIF                             00000007
OSTS                              00000005
P                                 00000004
P1CSEL                            00000001
P1DC0                             00000000
P1DC1                             00000001
P1DC2                             00000002
P1DC3                             00000003
P1DC4                             00000004
gpasm-1.4.0 #1107 (Apr  3 2018) /media/user/s   1-9-2022  19:09:34          PAGE 31


SYMBOL TABLE
  LABEL                             VALUE 

P1DC5                             00000005
P1DC6                             00000006
P1DSEL                            00000002
P1M0                              00000006
P1M1                              00000007
P1RSEN                            00000007
PCIE                              00000006
PCL                               00000002
PCLATH                            0000000A
PCLATH_SHAD                       00000FE7
PCON                              00000096
PEIE                              00000006
PEN                               00000002
PIE1                              00000091
PIE2                              00000092
PIR1                              00000011
PIR2                              00000012
PLLR                              00000006
PORTA                             0000000C
PORTB                             0000000D
PR2                               0000001B
PS0                               00000000
PS1                               00000001
PS2                               00000002
PSA                               00000003
PSS1AC0                           00000002
PSS1AC1                           00000003
PSS1BD0                           00000000
PSS1BD1                           00000001
PSTR1CON                          00000296
PWM1CON                           00000294
RA0                               00000000
RA1                               00000001
RA2                               00000002
RA3                               00000003
RA4                               00000004
RA5                               00000005
RA6                               00000006
RA7                               00000007
RB0                               00000000
RB1                               00000001
RB2                               00000002
RB3                               00000003
RB4                               00000004
RB5                               00000005
RB6                               00000006
RB7                               00000007
RCEN                              00000003
RCIDL                             00000006
RCIE                              00000005
RCIF                              00000005
RCREG                             00000199
RCSTA                             0000019D
gpasm-1.4.0 #1107 (Apr  3 2018) /media/user/s   1-9-2022  19:09:34          PAGE 32


SYMBOL TABLE
  LABEL                             VALUE 

RD                                00000000
RSEN                              00000001
RX9                               00000006
RX9D                              00000000
RXDTSEL                           00000007
R_NOT_W                           00000002
S                                 00000003
SBCDE                             00000002
SBOREN                            00000007
SCIE                              00000005
SCKP                              00000004
SCS0                              00000000
SCS1                              00000001
SDAHT                             00000003
SDO1SEL                           00000006
SEN                               00000000
SENDB                             00000003
SMP                               00000007
SP1BRG                            0000019B
SP1BRGH                           0000019C
SP1BRGL                           0000019B
SPBRG                             0000019B
SPBRGH                            0000019C
SPBRGL                            0000019B
SPEN                              00000007
SPLLEN                            00000007
SRCLK0                            00000004
SRCLK1                            00000005
SRCLK2                            00000006
SRCON0                            0000011A
SRCON1                            0000011B
SREN                              00000005
SRLEN                             00000007
SRNQEN                            00000002
SRPR                              00000000
SRPS                              00000001
SRQEN                             00000003
SRRC1E                            00000000
SRRC2E                            00000001
SRRCKE                            00000002
SRRPE                             00000003
SRSC1E                            00000004
SRSC2E                            00000005
SRSCKE                            00000006
SRSPE                             00000007
SS1SEL                            00000005
SSP1ADD                           00000212
SSP1BUF                           00000211
SSP1CON1                          00000215
SSP1CON2                          00000216
SSP1CON3                          00000217
SSP1IE                            00000003
SSP1IF                            00000003
gpasm-1.4.0 #1107 (Apr  3 2018) /media/user/s   1-9-2022  19:09:34          PAGE 33


SYMBOL TABLE
  LABEL                             VALUE 

SSP1MSK                           00000213
SSP1STAT                          00000214
SSPADD                            00000212
SSPBUF                            00000211
SSPCON                            00000215
SSPCON1                           00000215
SSPCON2                           00000216
SSPCON3                           00000217
SSPEN                             00000005
SSPM0                             00000000
SSPM1                             00000001
SSPM2                             00000002
SSPM3                             00000003
SSPMSK                            00000213
SSPOV                             00000006
SSPSTAT                           00000214
STATUS                            00000003
STATUS_SHAD                       00000FE4
STKOVF                            00000007
STKPTR                            00000FED
STKUNF                            00000006
STR1A                             00000000
STR1B                             00000001
STR1C                             00000002
STR1D                             00000003
STR1SYNC                          00000004
SWDTEN                            00000000
SYNC                              00000004
SYSWAITTEMPMS                     00000072
SYSWAITTEMPMS_H                   00000073
SysDoLoop_E1                      00000037
SysDoLoop_S1                      0000000B
T0CS                              00000005
T0IE                              00000005
T0IF                              00000002
T0SE                              00000004
T0XCS                             00000000
T1CKPS0                           00000004
T1CKPS1                           00000005
T1CON                             00000018
T1GCON                            00000019
T1GGO                             00000003
T1GPOL                            00000006
T1GSPM                            00000004
T1GSS0                            00000000
T1GSS1                            00000001
T1GTM                             00000005
T1GVAL                            00000002
T1OSCEN                           00000003
T1OSCR                            00000007
T2CKPS0                           00000000
T2CKPS1                           00000001
T2CON                             0000001C
gpasm-1.4.0 #1107 (Apr  3 2018) /media/user/s   1-9-2022  19:09:34          PAGE 34


SYMBOL TABLE
  LABEL                             VALUE 

T2OUTPS0                          00000003
T2OUTPS1                          00000004
T2OUTPS2                          00000005
T2OUTPS3                          00000006
TMR0                              00000015
TMR0CS                            00000005
TMR0IE                            00000005
TMR0IF                            00000002
TMR0SE                            00000004
TMR1                              00000016
TMR1CS0                           00000006
TMR1CS1                           00000007
TMR1GE                            00000007
TMR1GIE                           00000007
TMR1GIF                           00000007
TMR1H                             00000017
TMR1IE                            00000000
TMR1IF                            00000000
TMR1L                             00000016
TMR1ON                            00000000
TMR2                              0000001A
TMR2IE                            00000001
TMR2IF                            00000001
TMR2ON                            00000002
TOSH                              00000FEF
TOSL                              00000FEE
TRISA                             0000008C
TRISA0                            00000000
TRISA1                            00000001
TRISA2                            00000002
TRISA3                            00000003
TRISA4                            00000004
TRISA5                            00000005
TRISA6                            00000006
TRISA7                            00000007
TRISB                             0000008D
TRISB0                            00000000
TRISB1                            00000001
TRISB2                            00000002
TRISB3                            00000003
TRISB4                            00000004
TRISB5                            00000005
TRISB6                            00000006
TRISB7                            00000007
TRMT                              00000001
TSEN                              00000005
TSRNG                             00000004
TUN0                              00000000
TUN1                              00000001
TUN2                              00000002
TUN3                              00000003
TUN4                              00000004
TUN5                              00000005
gpasm-1.4.0 #1107 (Apr  3 2018) /media/user/s   1-9-2022  19:09:34          PAGE 35


SYMBOL TABLE
  LABEL                             VALUE 

TX9                               00000006
TX9D                              00000000
TXCKSEL                           00000000
TXEN                              00000005
TXIE                              00000004
TXIF                              00000004
TXREG                             0000019A
TXSTA                             0000019E
UA                                00000001
W                                 00000000
WCOL                              00000007
WDTCON                            00000097
WDTPS0                            00000001
WDTPS1                            00000002
WDTPS2                            00000003
WDTPS3                            00000004
WDTPS4                            00000005
WPUA                              0000020C
WPUA5                             00000005
WPUB                              0000020D
WPUB0                             00000000
WPUB1                             00000001
WPUB2                             00000002
WPUB3                             00000003
WPUB4                             00000004
WPUB5                             00000005
WPUB6                             00000006
WPUB7                             00000007
WR                                00000001
WREG                              00000009
WREG_SHAD                         00000FE5
WREN                              00000002
WRERR                             00000003
WUE                               00000001
Z                                 00000002
Z_SHAD                            00000002
_BOREN_NSLEEP                     0000FDFF
_BOREN_OFF                        0000F9FF
_BOREN_ON                         0000FFFF
_BOREN_SBODEN                     0000FBFF
_BORV_19                          0000FFFF
_BORV_HI                          0000FBFF
_BORV_LO                          0000FFFF
_CLKOUTEN_OFF                     0000FFFF
_CLKOUTEN_ON                      0000F7FF
_CONFIG1                          00008007
_CONFIG2                          00008008
_CPD_OFF                          0000FFFF
_CPD_ON                           0000FEFF
_CP_OFF                           0000FFFF
_CP_ON                            0000FF7F
_DEBUG_OFF                        00003FFF
_DEBUG_ON                         00002FFF
gpasm-1.4.0 #1107 (Apr  3 2018) /media/user/s   1-9-2022  19:09:34          PAGE 36


SYMBOL TABLE
  LABEL                             VALUE 

_DEVID1                           00008006
_FCMEN_OFF                        0000DFFF
_FCMEN_ON                         0000FFFF
_FOSC_ECH                         0000FFFF
_FOSC_ECL                         0000FFFD
_FOSC_ECM                         0000FFFE
_FOSC_EXTRC                       0000FFFB
_FOSC_HS                          0000FFFA
_FOSC_INTOSC                      0000FFFC
_FOSC_LP                          0000FFF8
_FOSC_XT                          0000FFF9
_IDLOC0                           00008000
_IDLOC1                           00008001
_IDLOC2                           00008002
_IDLOC3                           00008003
_IESO_OFF                         0000EFFF
_IESO_ON                          0000FFFF
_LVP_OFF                          0000DFFF
_LVP_ON                           0000FFFF
_MCLRE_OFF                        0000FFBF
_MCLRE_ON                         0000FFFF
_PLLEN_OFF                        0000FEFF
_PLLEN_ON                         0000FFFF
_PWRTE_OFF                        0000FFFF
_PWRTE_ON                         0000FFDF
_STVREN_OFF                       0000FDFF
_STVREN_ON                        0000FFFF
_WDTE_NSLEEP                      0000FFF7
_WDTE_OFF                         0000FFE7
_WDTE_ON                          0000FFFF
_WDTE_SWDTEN                      0000FFEF
_WRT_ALL                          0000FFFC
_WRT_BOOT                         0000FFFE
_WRT_HALF                         0000FFFD
_WRT_OFF                          0000FFFF
__16F1826                         00000001
__CODE_END                        000007FF
__CODE_START                      00000000
__COMMON_RAM_END                  0000007F
__COMMON_RAM_START                00000070
__EEPROM_END                      0000F0FF
__EEPROM_START                    0000F000
__LINEAR_RAM_END                  000020EF
__LINEAR_RAM_START                00002000
__VECTOR_INT                      00000004
__VECTOR_RESET                    00000000


MEMORY USAGE MAP ('X' = Used,  '-' = Unused)

0000 : X---XXXXXXXXXXXX XXXXXXXXXXXXXXXX XXXXXXXXXXXXXXXX XXXXXXXXXXXXXXXX
0040 : XXXXXXXXXXXXXXXX XXXX------------ ---------------- ----------------
8000 : -------XX------- ---------------- ---------------- ----------------
gpasm-1.4.0 #1107 (Apr  3 2018) /media/user/s   1-9-2022  19:09:34          PAGE 37


SYMBOL TABLE
  LABEL                             VALUE 


All other memory blocks unused.

Program Memory Words Used:    81
Program Memory Words Free:  1967


Errors   :     0
Warnings :     1 reported,     0 suppressed
Messages :     0 reported,    15 suppressed

