gplink-1.5.0 #1285 (Sep  9 2021)
Copyright (c) 1998-2016 gputils project
Listing File Generated: 14/10/21  20:58:46


Address  Value    Disassembly              Source
-------  -----    -----------              ------
                                           ;--------------------------------------------------------
                                           ; File Created by SDCC : free open source ANSI-C Compiler
                                           ; Version 4.1.0 #12072 (Linux)
                                           ;--------------------------------------------------------
                                           ; PIC port for the 14-bit core
                                           ;--------------------------------------------------------
                                           ;	.file	"/mnt/software/simulide/tests/pic/pic_timers/Timer1_Pic16F887/Timer1_Pic16F887.c"
                                           	list	p=16f887
                                           	radix dec
                                           	include "p16f887.inc"
                                                   LIST

                                           ;==========================================================================
                                           ; Build date : Oct 21 2015
                                           ;  MPASM PIC16F887 processor include
                                           ; 
                                           ;  (c) Copyright 1999-2015 Microchip Technology, All rights reserved
                                           ;==========================================================================

                                                   NOLIST
                                           ;--------------------------------------------------------
                                           ; config word(s)
                                           ;--------------------------------------------------------
002007   3ff2     addlw   0xf2             	__config _CONFIG1, 0x3ff2
                                           ;--------------------------------------------------------
                                           ; external declarations
                                           ;--------------------------------------------------------
                                           	extern	_ANSELH
                                           	extern	_ANSEL
                                           	extern	_TRISC
                                           	extern	_TRISB
                                           	extern	_TMR1H
                                           	extern	_TMR1L
                                           	extern	_PORTC
                                           	extern	_PORTB
                                           	extern	_CM2CON0bits
                                           	extern	_CM1CON0bits
                                           	extern	_PIE1bits
                                           	extern	_T1CONbits
                                           	extern	_PIR1bits
                                           	extern	_INTCONbits
                                           	extern	__sdcc_gsinit_startup
                                           ;--------------------------------------------------------
                                           ; global declarations
                                           ;--------------------------------------------------------
                                           	global	_main
                                           	global	_myisr

                                           	global PSAVE
                                           	global SSAVE
                                           	global WSAVE
                                           	global STK12
                                           	global STK11
                                           	global STK10
                                           	global STK09
                                           	global STK08
                                           	global STK07
                                           	global STK06
                                           	global STK05
                                           	global STK04
                                           	global STK03
                                           	global STK02
                                           	global STK01
                                           	global STK00

                                           sharebank udata_ovr 0x0070
                                           PSAVE	res 1
                                           SSAVE	res 1
                                           WSAVE	res 1
                                           STK12	res 1
                                           STK11	res 1
                                           STK10	res 1
                                           STK09	res 1
                                           STK08	res 1
                                           STK07	res 1
                                           STK06	res 1
                                           STK05	res 1
                                           STK04	res 1
                                           STK03	res 1
                                           STK02	res 1
                                           STK01	res 1
                                           STK00	res 1

                                           ;--------------------------------------------------------
                                           ; global definitions
                                           ;--------------------------------------------------------
                                           ;--------------------------------------------------------
                                           ; absolute symbol definitions
                                           ;--------------------------------------------------------
                                           ;--------------------------------------------------------
                                           ; compiler-defined variables
                                           ;--------------------------------------------------------
                                           UDL_Timer1_Pic16F887_0	udata
                                           r0x1003	res	1
                                           r0x1001	res	1
                                           ___sdcc_saved_fsr	res	1
                                           ;--------------------------------------------------------
                                           ; initialized data
                                           ;--------------------------------------------------------
                                           ;--------------------------------------------------------
                                           ; initialized absolute data
                                           ;--------------------------------------------------------
                                           ;--------------------------------------------------------
                                           ; overlayable items in internal ram 
                                           ;--------------------------------------------------------
                                           ;	udata_ovr
                                           ;--------------------------------------------------------
                                           ; reset vector 
                                           ;--------------------------------------------------------
                                           STARTUP	code 0x0000
000000   0000     nop                      	nop
000001   118a     bcf     0x0a, 0x3        	pagesel __sdcc_gsinit_startup
000002   120a     bcf     0x0a, 0x4        
000003   283a     goto    0x003a           	goto	__sdcc_gsinit_startup
                                           ;--------------------------------------------------------
                                           ; interrupt and initialization code
                                           ;--------------------------------------------------------
                                           c_interrupt	code	0x0004
                                           __sdcc_interrupt:
                                           ;***
                                           ;  pBlock Stats: dbName = I
                                           ;***
                                           ;2 compiler assigned registers:
                                           ;   r0x1003
                                           ;   r0x1004
                                           ;; Starting pCode block
                                           _myisr:
                                           ; 0 exit points
                                           ;	.line	44; "/mnt/software/simulide/tests/pic/pic_timers/Timer1_Pic16F887/Timer1_Pic16F887.c"	void myisr(void) __interrupt 0 {
000004   00f2     movwf   0x72             	MOVWF	WSAVE
000005   0e03     swapf   0x03, 0x0        	SWAPF	STATUS,W
000006   0183     clrf    0x03             	CLRF	STATUS
000007   00f1     movwf   0x71             	MOVWF	SSAVE
000008   080a     movf    0x0a, 0x0        	MOVF	PCLATH,W
000009   018a     clrf    0x0a             	CLRF	PCLATH
00000a   00f0     movwf   0x70             	MOVWF	PSAVE
00000b   0804     movf    0x04, 0x0        	MOVF	FSR,W
00000c   1283     bcf     0x03, 0x5        	BANKSEL	___sdcc_saved_fsr
00000d   1303     bcf     0x03, 0x6        
00000e   00ae     movwf   0x2e             	MOVWF	___sdcc_saved_fsr
                                           ;	.line	46; "/mnt/software/simulide/tests/pic/pic_timers/Timer1_Pic16F887/Timer1_Pic16F887.c"	if( TMR1IF == 1 )
00000f   1283     bcf     0x03, 0x5        	BANKSEL	r0x1003
000010   1303     bcf     0x03, 0x6        
000011   01ac     clrf    0x2c             	CLRF	r0x1003
000012   1283     bcf     0x03, 0x5        	BANKSEL	_PIR1bits
000013   1303     bcf     0x03, 0x6        
000014   1c0c     btfss   0x0c, 0x0        	BTFSS	_PIR1bits,0
000015   2819     goto    0x0019           	GOTO	_00001_DS_
000016   1283     bcf     0x03, 0x5        	BANKSEL	r0x1003
000017   1303     bcf     0x03, 0x6        
000018   0aac     incf    0x2c, 0x1        	INCF	r0x1003,F
                                           _00001_DS_:
000019   1283     bcf     0x03, 0x5        	BANKSEL	r0x1003
00001a   1303     bcf     0x03, 0x6        
00001b   082c     movf    0x2c, 0x0        	MOVF	r0x1003,W
00001c   3a01     xorlw   0x01             	XORLW	0x01
00001d   1d03     btfss   0x03, 0x2        	BTFSS	STATUS,2
00001e   282c     goto    0x002c           	GOTO	_00107_DS_
                                           ;	.line	48; "/mnt/software/simulide/tests/pic/pic_timers/Timer1_Pic16F887/Timer1_Pic16F887.c"	PORTC ^= 0b00001100;
00001f   1283     bcf     0x03, 0x5        	BANKSEL	_PORTC
000020   1303     bcf     0x03, 0x6        
000021   0807     movf    0x07, 0x0        	MOVF	_PORTC,W
000022   1283     bcf     0x03, 0x5        	BANKSEL	r0x1003
000023   1303     bcf     0x03, 0x6        
000024   00ac     movwf   0x2c             	MOVWF	r0x1003
                                           ;;1	CLRF	r0x1004
000025   300c     movlw   0x0c             	MOVLW	0x0c
000026   06ac     xorwf   0x2c, 0x1        	XORWF	r0x1003,F
000027   082c     movf    0x2c, 0x0        	MOVF	r0x1003,W
000028   1283     bcf     0x03, 0x5        	BANKSEL	_PORTC
000029   1303     bcf     0x03, 0x6        
00002a   0087     movwf   0x07             	MOVWF	_PORTC
                                           ;	.line	51; "/mnt/software/simulide/tests/pic/pic_timers/Timer1_Pic16F887/Timer1_Pic16F887.c"	TMR1IF = 0;
00002b   100c     bcf     0x0c, 0x0        	BCF	_PIR1bits,0
                                           _00107_DS_:
                                           ;	.line	53; "/mnt/software/simulide/tests/pic/pic_timers/Timer1_Pic16F887/Timer1_Pic16F887.c"	}
00002c   1283     bcf     0x03, 0x5        	BANKSEL	___sdcc_saved_fsr
00002d   1303     bcf     0x03, 0x6        
00002e   082e     movf    0x2e, 0x0        	MOVF	___sdcc_saved_fsr,W
00002f   1283     bcf     0x03, 0x5        	BANKSEL	FSR
000030   1303     bcf     0x03, 0x6        
000031   0084     movwf   0x04             	MOVWF	FSR
000032   0870     movf    0x70, 0x0        	MOVF	PSAVE,W
000033   008a     movwf   0x0a             	MOVWF	PCLATH
000034   0183     clrf    0x03             	CLRF	STATUS
000035   0e71     swapf   0x71, 0x0        	SWAPF	SSAVE,W
000036   0083     movwf   0x03             	MOVWF	STATUS
000037   0ef2     swapf   0x72, 0x1        	SWAPF	WSAVE,F
000038   0e72     swapf   0x72, 0x0        	SWAPF	WSAVE,W
                                           END_OF_INTERRUPT:
000039   0009     retfie                   	RETFIE	

                                           ;--------------------------------------------------------
                                           ; code
                                           ;--------------------------------------------------------
                                           code_Timer1_Pic16F887	code
                                           ;***
                                           ;  pBlock Stats: dbName = M
                                           ;***
                                           ;has an exit
                                           ;2 compiler assigned registers:
                                           ;   r0x1001
                                           ;   r0x1002
                                           ;; Starting pCode block
                                           S_Timer1_Pic16F887__main	code
                                           _main:
                                           ; 2 exit points
                                           ;	.line	64; "/mnt/software/simulide/tests/pic/pic_timers/Timer1_Pic16F887/Timer1_Pic16F887.c"	ANSEL  = 0x00;
0000d6   1683     bsf     0x03, 0x5        	BANKSEL	_ANSEL
0000d7   1703     bsf     0x03, 0x6        
0000d8   0188     clrf    0x08             	CLRF	_ANSEL
                                           ;	.line	65; "/mnt/software/simulide/tests/pic/pic_timers/Timer1_Pic16F887/Timer1_Pic16F887.c"	ANSELH = 0x00;
0000d9   0189     clrf    0x09             	CLRF	_ANSELH
                                           ;	.line	66; "/mnt/software/simulide/tests/pic/pic_timers/Timer1_Pic16F887/Timer1_Pic16F887.c"	C1ON   = 0;
0000da   1283     bcf     0x03, 0x5        	BANKSEL	_CM1CON0bits
0000db   1703     bsf     0x03, 0x6        
0000dc   1387     bcf     0x07, 0x7        	BCF	_CM1CON0bits,7
                                           ;	.line	67; "/mnt/software/simulide/tests/pic/pic_timers/Timer1_Pic16F887/Timer1_Pic16F887.c"	C2ON   = 0;
0000dd   1388     bcf     0x08, 0x7        	BCF	_CM2CON0bits,7
                                           ;	.line	68; "/mnt/software/simulide/tests/pic/pic_timers/Timer1_Pic16F887/Timer1_Pic16F887.c"	TRISB  = 0x00;
0000de   1683     bsf     0x03, 0x5        	BANKSEL	_TRISB
0000df   1303     bcf     0x03, 0x6        
0000e0   0186     clrf    0x06             	CLRF	_TRISB
                                           ;	.line	69; "/mnt/software/simulide/tests/pic/pic_timers/Timer1_Pic16F887/Timer1_Pic16F887.c"	PORTB  = 0x00;
0000e1   1283     bcf     0x03, 0x5        	BANKSEL	_PORTB
0000e2   1303     bcf     0x03, 0x6        
0000e3   0186     clrf    0x06             	CLRF	_PORTB
                                           ;	.line	70; "/mnt/software/simulide/tests/pic/pic_timers/Timer1_Pic16F887/Timer1_Pic16F887.c"	TRISC  = 0x00;
0000e4   1683     bsf     0x03, 0x5        	BANKSEL	_TRISC
0000e5   1303     bcf     0x03, 0x6        
0000e6   0187     clrf    0x07             	CLRF	_TRISC
                                           ;	.line	71; "/mnt/software/simulide/tests/pic/pic_timers/Timer1_Pic16F887/Timer1_Pic16F887.c"	PORTC  = 0x00;
0000e7   1283     bcf     0x03, 0x5        	BANKSEL	_PORTC
0000e8   1303     bcf     0x03, 0x6        
0000e9   0187     clrf    0x07             	CLRF	_PORTC
                                           ;	.line	74; "/mnt/software/simulide/tests/pic/pic_timers/Timer1_Pic16F887/Timer1_Pic16F887.c"	TMR1IF = 0;
0000ea   100c     bcf     0x0c, 0x0        	BCF	_PIR1bits,0
                                           ;	.line	75; "/mnt/software/simulide/tests/pic/pic_timers/Timer1_Pic16F887/Timer1_Pic16F887.c"	TMR1H = 0;
0000eb   018f     clrf    0x0f             	CLRF	_TMR1H
                                           ;	.line	76; "/mnt/software/simulide/tests/pic/pic_timers/Timer1_Pic16F887/Timer1_Pic16F887.c"	TMR1L = 0;
0000ec   018e     clrf    0x0e             	CLRF	_TMR1L
                                           ;	.line	78; "/mnt/software/simulide/tests/pic/pic_timers/Timer1_Pic16F887/Timer1_Pic16F887.c"	TMR1CS  = 0;
0000ed   1090     bcf     0x10, 0x1        	BCF	_T1CONbits,1
                                           ;	.line	79; "/mnt/software/simulide/tests/pic/pic_timers/Timer1_Pic16F887/Timer1_Pic16F887.c"	T1CKPS0 = 1;
0000ee   1610     bsf     0x10, 0x4        	BSF	_T1CONbits,4
                                           ;	.line	80; "/mnt/software/simulide/tests/pic/pic_timers/Timer1_Pic16F887/Timer1_Pic16F887.c"	T1CKPS1 = 1;
0000ef   1690     bsf     0x10, 0x5        	BSF	_T1CONbits,5
                                           ;	.line	81; "/mnt/software/simulide/tests/pic/pic_timers/Timer1_Pic16F887/Timer1_Pic16F887.c"	TMR1IE  = 1;
0000f0   1683     bsf     0x03, 0x5        	BANKSEL	_PIE1bits
0000f1   1303     bcf     0x03, 0x6        
0000f2   140c     bsf     0x0c, 0x0        	BSF	_PIE1bits,0
                                           ;	.line	83; "/mnt/software/simulide/tests/pic/pic_timers/Timer1_Pic16F887/Timer1_Pic16F887.c"	PEIE   = 1;
0000f3   1283     bcf     0x03, 0x5        	BANKSEL	_INTCONbits
0000f4   1303     bcf     0x03, 0x6        
0000f5   170b     bsf     0x0b, 0x6        	BSF	_INTCONbits,6
                                           ;	.line	84; "/mnt/software/simulide/tests/pic/pic_timers/Timer1_Pic16F887/Timer1_Pic16F887.c"	GIE    = 1;            // General Interrupt Enable
0000f6   178b     bsf     0x0b, 0x7        	BSF	_INTCONbits,7
                                           ;	.line	85; "/mnt/software/simulide/tests/pic/pic_timers/Timer1_Pic16F887/Timer1_Pic16F887.c"	TMR1ON = 1;
0000f7   1410     bsf     0x10, 0x0        	BSF	_T1CONbits,0
                                           _00116_DS_:
                                           ;	.line	89; "/mnt/software/simulide/tests/pic/pic_timers/Timer1_Pic16F887/Timer1_Pic16F887.c"	if(TMR1H == 0x00 && TMR1L == 0x00){
0000f8   1283     bcf     0x03, 0x5        	BANKSEL	_TMR1H
0000f9   1303     bcf     0x03, 0x6        
0000fa   080f     movf    0x0f, 0x0        	MOVF	_TMR1H,W
0000fb   1d03     btfss   0x03, 0x2        	BTFSS	STATUS,2
0000fc   28f8     goto    0x00f8           	GOTO	_00116_DS_
0000fd   080e     movf    0x0e, 0x0        	MOVF	_TMR1L,W
0000fe   1d03     btfss   0x03, 0x2        	BTFSS	STATUS,2
0000ff   28f8     goto    0x00f8           	GOTO	_00116_DS_
                                           ;	.line	90; "/mnt/software/simulide/tests/pic/pic_timers/Timer1_Pic16F887/Timer1_Pic16F887.c"	PORTC ^= 0b00000011;
000100   0807     movf    0x07, 0x0        	MOVF	_PORTC,W
000101   1283     bcf     0x03, 0x5        	BANKSEL	r0x1001
000102   1303     bcf     0x03, 0x6        
000103   00ad     movwf   0x2d             	MOVWF	r0x1001
                                           ;;1	CLRF	r0x1002
000104   3003     movlw   0x03             	MOVLW	0x03
000105   06ad     xorwf   0x2d, 0x1        	XORWF	r0x1001,F
000106   082d     movf    0x2d, 0x0        	MOVF	r0x1001,W
000107   1283     bcf     0x03, 0x5        	BANKSEL	_PORTC
000108   1303     bcf     0x03, 0x6        
000109   0087     movwf   0x07             	MOVWF	_PORTC
00010a   28f8     goto    0x00f8           	GOTO	_00116_DS_
                                           ;	.line	93; "/mnt/software/simulide/tests/pic/pic_timers/Timer1_Pic16F887/Timer1_Pic16F887.c"	}
00010b   0008     return                   	RETURN	
                                           ; exit point of _main


                                           ;	code size estimation:
                                           ;	   66+   21 =    87 instructions (  216 byte)

                                           	end
